SF:/home/strandgate/Development/ecoPrimals/phase2/rhizoCrypt/crates/rhizo-crypt-core/src/clients/beardog.rs
FN:141,_RNCNvMs0_NtNtCsid3wTlZBOIR_16rhizo_crypt_core7clients7beardogNtB7_11DidDocument23get_verification_method0Bb_
FN:101,_RINvMs_NtNtCsid3wTlZBOIR_16rhizo_crypt_core7clients7beardogNtB5_13BearDogConfig13with_fallbackpEB9_
FN:437,_RNCNCNCNvMs1_NtNtCsid3wTlZBOIR_16rhizo_crypt_core7clients7beardogNtBb_13BearDogClient20discover_or_fallback0s_00Bf_
FN:431,_RNCNCNvMs1_NtNtCsid3wTlZBOIR_16rhizo_crypt_core7clients7beardogNtB9_13BearDogClient20discover_or_fallback00Bd_
FN:436,_RNCNCNvMs1_NtNtCsid3wTlZBOIR_16rhizo_crypt_core7clients7beardogNtB9_13BearDogClient20discover_or_fallback0s_0Bd_
FN:671,_RNCNvMs1_NtNtCsid3wTlZBOIR_16rhizo_crypt_core7clients7beardogNtB7_13BearDogClient10cache_size0Bb_
FN:444,_RNCNvMs1_NtNtCsid3wTlZBOIR_16rhizo_crypt_core7clients7beardogNtB7_13BearDogClient10disconnect0Bb_
FN:666,_RNCNvMs1_NtNtCsid3wTlZBOIR_16rhizo_crypt_core7clients7beardogNtB7_13BearDogClient11clear_cache0Bb_
FN:458,_RNCNvMs1_NtNtCsid3wTlZBOIR_16rhizo_crypt_core7clients7beardogNtB7_13BearDogClient11resolve_did0Bb_
FN:610,_RNCNvMs1_NtNtCsid3wTlZBOIR_16rhizo_crypt_core7clients7beardogNtB7_13BearDogClient11sign_vertex0Bb_
FN:340,_RNCNvMs1_NtNtCsid3wTlZBOIR_16rhizo_crypt_core7clients7beardogNtB7_13BearDogClient12is_connected0Bb_
FN:633,_RNCNvMs1_NtNtCsid3wTlZBOIR_16rhizo_crypt_core7clients7beardogNtB7_13BearDogClient16sign_attestation0Bb_
FN:417,_RNCNvMs1_NtNtCsid3wTlZBOIR_16rhizo_crypt_core7clients7beardogNtB7_13BearDogClient20discover_or_fallback0Bb_
FN:655,_RNCNvMs1_NtNtCsid3wTlZBOIR_16rhizo_crypt_core7clients7beardogNtB7_13BearDogClient23verify_vertex_signature0Bb_
FN:515,_RNCNvMs1_NtNtCsid3wTlZBOIR_16rhizo_crypt_core7clients7beardogNtB7_13BearDogClient4sign0Bb_
FN:335,_RNCNvMs1_NtNtCsid3wTlZBOIR_16rhizo_crypt_core7clients7beardogNtB7_13BearDogClient5state0Bb_
FN:563,_RNCNvMs1_NtNtCsid3wTlZBOIR_16rhizo_crypt_core7clients7beardogNtB7_13BearDogClient6verify0Bb_
FN:358,_RNCNvMs1_NtNtCsid3wTlZBOIR_16rhizo_crypt_core7clients7beardogNtB7_13BearDogClient7connect0Bb_
FN:676,_RNCNvMs1_NtNtCsid3wTlZBOIR_16rhizo_crypt_core7clients7beardogNtB7_13BearDogClient8endpoint0Bb_
FN:444,_RNCNvMs1_NtNtCs7YQQ0vypdx3_16rhizo_crypt_core7clients7beardogNtB7_13BearDogClient10disconnect0Bb_
FN:633,_RNCNvMs1_NtNtCs7YQQ0vypdx3_16rhizo_crypt_core7clients7beardogNtB7_13BearDogClient16sign_attestation0Bb_
FN:444,_RNvMs1_NtNtCs7YQQ0vypdx3_16rhizo_crypt_core7clients7beardogNtB5_13BearDogClient10disconnect
FN:629,_RNvMs1_NtNtCs7YQQ0vypdx3_16rhizo_crypt_core7clients7beardogNtB5_13BearDogClient16sign_attestation
FN:330,_RNvMs1_NtNtCs7YQQ0vypdx3_16rhizo_crypt_core7clients7beardogNtB5_13BearDogClient8from_env
FN:83,_RNvMs_NtNtCs7YQQ0vypdx3_16rhizo_crypt_core7clients7beardogNtB4_13BearDogConfig8from_env
FN:687,_RNvNtNtNtCs7YQQ0vypdx3_16rhizo_crypt_core7clients7beardog5testss_19test_config_default
FN:700,_RNvNtNtNtCs7YQQ0vypdx3_16rhizo_crypt_core7clients7beardog5testss_20test_client_creation
FN:743,_RNvNtNtNtCs7YQQ0vypdx3_16rhizo_crypt_core7clients7beardog5testss_21test_cache_operations
FN:713,_RNvNtNtNtCs7YQQ0vypdx3_16rhizo_crypt_core7clients7beardog5testss_25test_client_initial_state
FN:694,_RNvNtNtNtCs7YQQ0vypdx3_16rhizo_crypt_core7clients7beardog5testss_25test_config_with_fallback
FN:780,_RNvNtNtNtCs7YQQ0vypdx3_16rhizo_crypt_core7clients7beardog5testss_25test_did_document_methods
FN:706,_RNvNtNtNtCs7YQQ0vypdx3_16rhizo_crypt_core7clients7beardog5testss_26test_client_with_discovery
FN:721,_RNvNtNtNtCs7YQQ0vypdx3_16rhizo_crypt_core7clients7beardog5testss_28test_sign_without_connection
FN:735,_RNvNtNtNtCs7YQQ0vypdx3_16rhizo_crypt_core7clients7beardog5testss_29test_discovery_fallback_error
FN:759,_RNvNtNtNtCs7YQQ0vypdx3_16rhizo_crypt_core7clients7beardog5testss_30test_deterministic_sign_verify
FN:773,_RNvNtNtNtCs7YQQ0vypdx3_16rhizo_crypt_core7clients7beardog5testss_36test_signature_purpose_serialization
FN:101,_RINvMs_NtNtCs7YQQ0vypdx3_16rhizo_crypt_core7clients7beardogNtB5_13BearDogConfig13with_fallbackReEB9_
FN:437,_RNCNCNCNvMs1_NtNtCs7YQQ0vypdx3_16rhizo_crypt_core7clients7beardogNtBb_13BearDogClient20discover_or_fallback0s_00Bf_
FN:431,_RNCNCNvMs1_NtNtCs7YQQ0vypdx3_16rhizo_crypt_core7clients7beardogNtB9_13BearDogClient20discover_or_fallback00Bd_
FN:436,_RNCNCNvMs1_NtNtCs7YQQ0vypdx3_16rhizo_crypt_core7clients7beardogNtB9_13BearDogClient20discover_or_fallback0s_0Bd_
FN:141,_RNCNvMs0_NtNtCs7YQQ0vypdx3_16rhizo_crypt_core7clients7beardogNtB7_11DidDocument23get_verification_method0Bb_
FN:671,_RNCNvMs1_NtNtCs7YQQ0vypdx3_16rhizo_crypt_core7clients7beardogNtB7_13BearDogClient10cache_size0Bb_
FN:666,_RNCNvMs1_NtNtCs7YQQ0vypdx3_16rhizo_crypt_core7clients7beardogNtB7_13BearDogClient11clear_cache0Bb_
FN:458,_RNCNvMs1_NtNtCs7YQQ0vypdx3_16rhizo_crypt_core7clients7beardogNtB7_13BearDogClient11resolve_did0Bb_
FN:610,_RNCNvMs1_NtNtCs7YQQ0vypdx3_16rhizo_crypt_core7clients7beardogNtB7_13BearDogClient11sign_vertex0Bb_
FN:340,_RNCNvMs1_NtNtCs7YQQ0vypdx3_16rhizo_crypt_core7clients7beardogNtB7_13BearDogClient12is_connected0Bb_
FN:417,_RNCNvMs1_NtNtCs7YQQ0vypdx3_16rhizo_crypt_core7clients7beardogNtB7_13BearDogClient20discover_or_fallback0Bb_
FN:655,_RNCNvMs1_NtNtCs7YQQ0vypdx3_16rhizo_crypt_core7clients7beardogNtB7_13BearDogClient23verify_vertex_signature0Bb_
FN:515,_RNCNvMs1_NtNtCs7YQQ0vypdx3_16rhizo_crypt_core7clients7beardogNtB7_13BearDogClient4sign0Bb_
FN:335,_RNCNvMs1_NtNtCs7YQQ0vypdx3_16rhizo_crypt_core7clients7beardogNtB7_13BearDogClient5state0Bb_
FN:563,_RNCNvMs1_NtNtCs7YQQ0vypdx3_16rhizo_crypt_core7clients7beardogNtB7_13BearDogClient6verify0Bb_
FN:358,_RNCNvMs1_NtNtCs7YQQ0vypdx3_16rhizo_crypt_core7clients7beardogNtB7_13BearDogClient7connect0Bb_
FN:676,_RNCNvMs1_NtNtCs7YQQ0vypdx3_16rhizo_crypt_core7clients7beardogNtB7_13BearDogClient8endpoint0Bb_
FN:743,_RNCNvNtNtNtCs7YQQ0vypdx3_16rhizo_crypt_core7clients7beardog5testss_21test_cache_operations0B9_
FN:713,_RNCNvNtNtNtCs7YQQ0vypdx3_16rhizo_crypt_core7clients7beardog5testss_25test_client_initial_state0B9_
FN:721,_RNCNvNtNtNtCs7YQQ0vypdx3_16rhizo_crypt_core7clients7beardog5testss_28test_sign_without_connection0B9_
FN:735,_RNCNvNtNtNtCs7YQQ0vypdx3_16rhizo_crypt_core7clients7beardog5testss_29test_discovery_fallback_error0B9_
FN:759,_RNCNvNtNtNtCs7YQQ0vypdx3_16rhizo_crypt_core7clients7beardog5testss_30test_deterministic_sign_verify0B9_
FN:140,_RNvMs0_NtNtCs7YQQ0vypdx3_16rhizo_crypt_core7clients7beardogNtB5_11DidDocument23get_verification_method
FN:134,_RNvMs0_NtNtCs7YQQ0vypdx3_16rhizo_crypt_core7clients7beardogNtB5_11DidDocument27default_verification_method
FN:671,_RNvMs1_NtNtCs7YQQ0vypdx3_16rhizo_crypt_core7clients7beardogNtB5_13BearDogClient10cache_size
FN:666,_RNvMs1_NtNtCs7YQQ0vypdx3_16rhizo_crypt_core7clients7beardogNtB5_13BearDogClient11clear_cache
FN:458,_RNvMs1_NtNtCs7YQQ0vypdx3_16rhizo_crypt_core7clients7beardogNtB5_13BearDogClient11resolve_did
FN:610,_RNvMs1_NtNtCs7YQQ0vypdx3_16rhizo_crypt_core7clients7beardogNtB5_13BearDogClient11sign_vertex
FN:340,_RNvMs1_NtNtCs7YQQ0vypdx3_16rhizo_crypt_core7clients7beardogNtB5_13BearDogClient12is_connected
FN:324,_RNvMs1_NtNtCs7YQQ0vypdx3_16rhizo_crypt_core7clients7beardogNtB5_13BearDogClient13with_defaults
FN:296,_RNvMs1_NtNtCs7YQQ0vypdx3_16rhizo_crypt_core7clients7beardogNtB5_13BearDogClient14with_discovery
FN:417,_RNvMs1_NtNtCs7YQQ0vypdx3_16rhizo_crypt_core7clients7beardogNtB5_13BearDogClient20discover_or_fallback
FN:650,_RNvMs1_NtNtCs7YQQ0vypdx3_16rhizo_crypt_core7clients7beardogNtB5_13BearDogClient23verify_vertex_signature
FN:310,_RNvMs1_NtNtCs7YQQ0vypdx3_16rhizo_crypt_core7clients7beardogNtB5_13BearDogClient3new
FN:515,_RNvMs1_NtNtCs7YQQ0vypdx3_16rhizo_crypt_core7clients7beardogNtB5_13BearDogClient4sign
FN:335,_RNvMs1_NtNtCs7YQQ0vypdx3_16rhizo_crypt_core7clients7beardogNtB5_13BearDogClient5state
FN:563,_RNvMs1_NtNtCs7YQQ0vypdx3_16rhizo_crypt_core7clients7beardogNtB5_13BearDogClient6verify
FN:358,_RNvMs1_NtNtCs7YQQ0vypdx3_16rhizo_crypt_core7clients7beardogNtB5_13BearDogClient7connect
FN:676,_RNvMs1_NtNtCs7YQQ0vypdx3_16rhizo_crypt_core7clients7beardogNtB5_13BearDogClient8endpoint
FN:65,_RNvXNtNtCs7YQQ0vypdx3_16rhizo_crypt_core7clients7beardogNtB2_13BearDogConfigNtNtCs9sjCchOt1K7_4core7default7Default7default
FNDA:0,_RNCNvMs0_NtNtCsid3wTlZBOIR_16rhizo_crypt_core7clients7beardogNtB7_11DidDocument23get_verification_method0Bb_
FNDA:0,_RINvMs_NtNtCsid3wTlZBOIR_16rhizo_crypt_core7clients7beardogNtB5_13BearDogConfig13with_fallbackpEB9_
FNDA:0,_RNCNCNCNvMs1_NtNtCsid3wTlZBOIR_16rhizo_crypt_core7clients7beardogNtBb_13BearDogClient20discover_or_fallback0s_00Bf_
FNDA:0,_RNCNCNvMs1_NtNtCsid3wTlZBOIR_16rhizo_crypt_core7clients7beardogNtB9_13BearDogClient20discover_or_fallback00Bd_
FNDA:0,_RNCNCNvMs1_NtNtCsid3wTlZBOIR_16rhizo_crypt_core7clients7beardogNtB9_13BearDogClient20discover_or_fallback0s_0Bd_
FNDA:0,_RNCNvMs1_NtNtCsid3wTlZBOIR_16rhizo_crypt_core7clients7beardogNtB7_13BearDogClient10cache_size0Bb_
FNDA:0,_RNCNvMs1_NtNtCsid3wTlZBOIR_16rhizo_crypt_core7clients7beardogNtB7_13BearDogClient10disconnect0Bb_
FNDA:0,_RNCNvMs1_NtNtCsid3wTlZBOIR_16rhizo_crypt_core7clients7beardogNtB7_13BearDogClient11clear_cache0Bb_
FNDA:0,_RNCNvMs1_NtNtCsid3wTlZBOIR_16rhizo_crypt_core7clients7beardogNtB7_13BearDogClient11resolve_did0Bb_
FNDA:0,_RNCNvMs1_NtNtCsid3wTlZBOIR_16rhizo_crypt_core7clients7beardogNtB7_13BearDogClient11sign_vertex0Bb_
FNDA:0,_RNCNvMs1_NtNtCsid3wTlZBOIR_16rhizo_crypt_core7clients7beardogNtB7_13BearDogClient12is_connected0Bb_
FNDA:0,_RNCNvMs1_NtNtCsid3wTlZBOIR_16rhizo_crypt_core7clients7beardogNtB7_13BearDogClient16sign_attestation0Bb_
FNDA:0,_RNCNvMs1_NtNtCsid3wTlZBOIR_16rhizo_crypt_core7clients7beardogNtB7_13BearDogClient20discover_or_fallback0Bb_
FNDA:0,_RNCNvMs1_NtNtCsid3wTlZBOIR_16rhizo_crypt_core7clients7beardogNtB7_13BearDogClient23verify_vertex_signature0Bb_
FNDA:0,_RNCNvMs1_NtNtCsid3wTlZBOIR_16rhizo_crypt_core7clients7beardogNtB7_13BearDogClient4sign0Bb_
FNDA:0,_RNCNvMs1_NtNtCsid3wTlZBOIR_16rhizo_crypt_core7clients7beardogNtB7_13BearDogClient5state0Bb_
FNDA:0,_RNCNvMs1_NtNtCsid3wTlZBOIR_16rhizo_crypt_core7clients7beardogNtB7_13BearDogClient6verify0Bb_
FNDA:0,_RNCNvMs1_NtNtCsid3wTlZBOIR_16rhizo_crypt_core7clients7beardogNtB7_13BearDogClient7connect0Bb_
FNDA:0,_RNCNvMs1_NtNtCsid3wTlZBOIR_16rhizo_crypt_core7clients7beardogNtB7_13BearDogClient8endpoint0Bb_
FNDA:0,_RNCNvMs1_NtNtCs7YQQ0vypdx3_16rhizo_crypt_core7clients7beardogNtB7_13BearDogClient10disconnect0Bb_
FNDA:0,_RNCNvMs1_NtNtCs7YQQ0vypdx3_16rhizo_crypt_core7clients7beardogNtB7_13BearDogClient16sign_attestation0Bb_
FNDA:0,_RNvMs1_NtNtCs7YQQ0vypdx3_16rhizo_crypt_core7clients7beardogNtB5_13BearDogClient10disconnect
FNDA:0,_RNvMs1_NtNtCs7YQQ0vypdx3_16rhizo_crypt_core7clients7beardogNtB5_13BearDogClient16sign_attestation
FNDA:0,_RNvMs1_NtNtCs7YQQ0vypdx3_16rhizo_crypt_core7clients7beardogNtB5_13BearDogClient8from_env
FNDA:0,_RNvMs_NtNtCs7YQQ0vypdx3_16rhizo_crypt_core7clients7beardogNtB4_13BearDogConfig8from_env
FNDA:1,_RNvNtNtNtCs7YQQ0vypdx3_16rhizo_crypt_core7clients7beardog5testss_19test_config_default
FNDA:1,_RNvNtNtNtCs7YQQ0vypdx3_16rhizo_crypt_core7clients7beardog5testss_20test_client_creation
FNDA:1,_RNvNtNtNtCs7YQQ0vypdx3_16rhizo_crypt_core7clients7beardog5testss_21test_cache_operations
FNDA:1,_RNvNtNtNtCs7YQQ0vypdx3_16rhizo_crypt_core7clients7beardog5testss_25test_client_initial_state
FNDA:1,_RNvNtNtNtCs7YQQ0vypdx3_16rhizo_crypt_core7clients7beardog5testss_25test_config_with_fallback
FNDA:1,_RNvNtNtNtCs7YQQ0vypdx3_16rhizo_crypt_core7clients7beardog5testss_25test_did_document_methods
FNDA:1,_RNvNtNtNtCs7YQQ0vypdx3_16rhizo_crypt_core7clients7beardog5testss_26test_client_with_discovery
FNDA:1,_RNvNtNtNtCs7YQQ0vypdx3_16rhizo_crypt_core7clients7beardog5testss_28test_sign_without_connection
FNDA:1,_RNvNtNtNtCs7YQQ0vypdx3_16rhizo_crypt_core7clients7beardog5testss_29test_discovery_fallback_error
FNDA:1,_RNvNtNtNtCs7YQQ0vypdx3_16rhizo_crypt_core7clients7beardog5testss_30test_deterministic_sign_verify
FNDA:1,_RNvNtNtNtCs7YQQ0vypdx3_16rhizo_crypt_core7clients7beardog5testss_36test_signature_purpose_serialization
FNDA:1,_RINvMs_NtNtCs7YQQ0vypdx3_16rhizo_crypt_core7clients7beardogNtB5_13BearDogConfig13with_fallbackReEB9_
FNDA:0,_RNCNCNCNvMs1_NtNtCs7YQQ0vypdx3_16rhizo_crypt_core7clients7beardogNtBb_13BearDogClient20discover_or_fallback0s_00Bf_
FNDA:1,_RNCNCNvMs1_NtNtCs7YQQ0vypdx3_16rhizo_crypt_core7clients7beardogNtB9_13BearDogClient20discover_or_fallback00Bd_
FNDA:0,_RNCNCNvMs1_NtNtCs7YQQ0vypdx3_16rhizo_crypt_core7clients7beardogNtB9_13BearDogClient20discover_or_fallback0s_0Bd_
FNDA:2,_RNCNvMs0_NtNtCs7YQQ0vypdx3_16rhizo_crypt_core7clients7beardogNtB7_11DidDocument23get_verification_method0Bb_
FNDA:2,_RNCNvMs1_NtNtCs7YQQ0vypdx3_16rhizo_crypt_core7clients7beardogNtB7_13BearDogClient10cache_size0Bb_
FNDA:1,_RNCNvMs1_NtNtCs7YQQ0vypdx3_16rhizo_crypt_core7clients7beardogNtB7_13BearDogClient11clear_cache0Bb_
FNDA:1,_RNCNvMs1_NtNtCs7YQQ0vypdx3_16rhizo_crypt_core7clients7beardogNtB7_13BearDogClient11resolve_did0Bb_
FNDA:1,_RNCNvMs1_NtNtCs7YQQ0vypdx3_16rhizo_crypt_core7clients7beardogNtB7_13BearDogClient11sign_vertex0Bb_
FNDA:6,_RNCNvMs1_NtNtCs7YQQ0vypdx3_16rhizo_crypt_core7clients7beardogNtB7_13BearDogClient12is_connected0Bb_
FNDA:1,_RNCNvMs1_NtNtCs7YQQ0vypdx3_16rhizo_crypt_core7clients7beardogNtB7_13BearDogClient20discover_or_fallback0Bb_
FNDA:1,_RNCNvMs1_NtNtCs7YQQ0vypdx3_16rhizo_crypt_core7clients7beardogNtB7_13BearDogClient23verify_vertex_signature0Bb_
FNDA:2,_RNCNvMs1_NtNtCs7YQQ0vypdx3_16rhizo_crypt_core7clients7beardogNtB7_13BearDogClient4sign0Bb_
FNDA:1,_RNCNvMs1_NtNtCs7YQQ0vypdx3_16rhizo_crypt_core7clients7beardogNtB7_13BearDogClient5state0Bb_
FNDA:1,_RNCNvMs1_NtNtCs7YQQ0vypdx3_16rhizo_crypt_core7clients7beardogNtB7_13BearDogClient6verify0Bb_
FNDA:1,_RNCNvMs1_NtNtCs7YQQ0vypdx3_16rhizo_crypt_core7clients7beardogNtB7_13BearDogClient7connect0Bb_
FNDA:1,_RNCNvMs1_NtNtCs7YQQ0vypdx3_16rhizo_crypt_core7clients7beardogNtB7_13BearDogClient8endpoint0Bb_
FNDA:1,_RNCNvNtNtNtCs7YQQ0vypdx3_16rhizo_crypt_core7clients7beardog5testss_21test_cache_operations0B9_
FNDA:1,_RNCNvNtNtNtCs7YQQ0vypdx3_16rhizo_crypt_core7clients7beardog5testss_25test_client_initial_state0B9_
FNDA:1,_RNCNvNtNtNtCs7YQQ0vypdx3_16rhizo_crypt_core7clients7beardog5testss_28test_sign_without_connection0B9_
FNDA:1,_RNCNvNtNtNtCs7YQQ0vypdx3_16rhizo_crypt_core7clients7beardog5testss_29test_discovery_fallback_error0B9_
FNDA:1,_RNCNvNtNtNtCs7YQQ0vypdx3_16rhizo_crypt_core7clients7beardog5testss_30test_deterministic_sign_verify0B9_
FNDA:2,_RNvMs0_NtNtCs7YQQ0vypdx3_16rhizo_crypt_core7clients7beardogNtB5_11DidDocument23get_verification_method
FNDA:1,_RNvMs0_NtNtCs7YQQ0vypdx3_16rhizo_crypt_core7clients7beardogNtB5_11DidDocument27default_verification_method
FNDA:2,_RNvMs1_NtNtCs7YQQ0vypdx3_16rhizo_crypt_core7clients7beardogNtB5_13BearDogClient10cache_size
FNDA:1,_RNvMs1_NtNtCs7YQQ0vypdx3_16rhizo_crypt_core7clients7beardogNtB5_13BearDogClient11clear_cache
FNDA:1,_RNvMs1_NtNtCs7YQQ0vypdx3_16rhizo_crypt_core7clients7beardogNtB5_13BearDogClient11resolve_did
FNDA:1,_RNvMs1_NtNtCs7YQQ0vypdx3_16rhizo_crypt_core7clients7beardogNtB5_13BearDogClient11sign_vertex
FNDA:6,_RNvMs1_NtNtCs7YQQ0vypdx3_16rhizo_crypt_core7clients7beardogNtB5_13BearDogClient12is_connected
FNDA:5,_RNvMs1_NtNtCs7YQQ0vypdx3_16rhizo_crypt_core7clients7beardogNtB5_13BearDogClient13with_defaults
FNDA:1,_RNvMs1_NtNtCs7YQQ0vypdx3_16rhizo_crypt_core7clients7beardogNtB5_13BearDogClient14with_discovery
FNDA:1,_RNvMs1_NtNtCs7YQQ0vypdx3_16rhizo_crypt_core7clients7beardogNtB5_13BearDogClient20discover_or_fallback
FNDA:1,_RNvMs1_NtNtCs7YQQ0vypdx3_16rhizo_crypt_core7clients7beardogNtB5_13BearDogClient23verify_vertex_signature
FNDA:6,_RNvMs1_NtNtCs7YQQ0vypdx3_16rhizo_crypt_core7clients7beardogNtB5_13BearDogClient3new
FNDA:2,_RNvMs1_NtNtCs7YQQ0vypdx3_16rhizo_crypt_core7clients7beardogNtB5_13BearDogClient4sign
FNDA:1,_RNvMs1_NtNtCs7YQQ0vypdx3_16rhizo_crypt_core7clients7beardogNtB5_13BearDogClient5state
FNDA:1,_RNvMs1_NtNtCs7YQQ0vypdx3_16rhizo_crypt_core7clients7beardogNtB5_13BearDogClient6verify
FNDA:1,_RNvMs1_NtNtCs7YQQ0vypdx3_16rhizo_crypt_core7clients7beardogNtB5_13BearDogClient7connect
FNDA:1,_RNvMs1_NtNtCs7YQQ0vypdx3_16rhizo_crypt_core7clients7beardogNtB5_13BearDogClient8endpoint
FNDA:9,_RNvXNtNtCs7YQQ0vypdx3_16rhizo_crypt_core7clients7beardogNtB2_13BearDogConfigNtNtCs9sjCchOt1K7_4core7default7Default7default
FNF:57
FNH:49
DA:65,9
DA:66,9
DA:67,9
DA:68,9
DA:69,9
DA:70,9
DA:71,9
DA:72,9
DA:73,9
DA:83,0
DA:84,0
DA:86,0
DA:87,0
DA:88,0
DA:90,0
DA:91,0
DA:92,0
DA:93,0
DA:94,0
DA:96,0
DA:97,0
DA:101,1
DA:102,1
DA:103,1
DA:104,1
DA:105,1
DA:106,1
DA:134,1
DA:135,1
DA:136,1
DA:140,2
DA:141,2
DA:142,2
DA:296,1
DA:297,1
DA:298,1
DA:299,1
DA:300,1
DA:301,1
DA:302,1
DA:303,1
DA:304,1
DA:305,1
DA:306,1
DA:310,6
DA:311,6
DA:312,6
DA:313,6
DA:314,6
DA:315,6
DA:316,6
DA:317,6
DA:318,6
DA:319,6
DA:320,6
DA:324,5
DA:325,5
DA:326,5
DA:330,0
DA:331,0
DA:332,0
DA:335,1
DA:336,1
DA:337,1
DA:340,6
DA:341,6
DA:342,6
DA:358,1
DA:359,1
DA:360,0
DA:361,1
DA:362,1
DA:363,1
DA:366,1
DA:368,0
DA:371,0
DA:372,0
DA:373,0
DA:374,0
DA:375,0
DA:377,0
DA:378,0
DA:379,0
DA:380,0
DA:398,0
DA:400,0
DA:401,0
DA:403,0
DA:404,0
DA:405,0
DA:406,0
DA:409,0
DA:410,0
DA:411,0
DA:414,1
DA:417,1
DA:419,1
DA:420,0
DA:421,0
DA:422,0
DA:423,0
DA:424,0
DA:425,1
DA:428,1
DA:429,1
DA:430,1
DA:431,1
DA:432,1
DA:433,1
DA:434,1
DA:435,1
DA:436,1
DA:437,0
DA:438,0
DA:439,0
DA:440,1
DA:441,1
DA:444,0
DA:445,0
DA:446,0
DA:447,0
DA:448,0
DA:458,1
DA:459,1
DA:460,0
DA:461,1
DA:462,1
DA:463,1
DA:467,1
DA:468,1
DA:469,0
DA:470,0
DA:471,1
DA:472,1
DA:473,1
DA:474,1
DA:481,1
DA:482,1
DA:483,1
DA:484,1
DA:485,1
DA:486,1
DA:487,1
DA:488,1
DA:489,1
DA:490,1
DA:491,1
DA:492,1
DA:493,1
DA:494,1
DA:495,1
DA:496,1
DA:497,1
DA:498,1
DA:499,1
DA:500,1
DA:501,1
DA:502,0
DA:504,1
DA:505,1
DA:515,2
DA:516,2
DA:517,1
DA:518,1
DA:519,1
DA:520,1
DA:523,0
DA:524,0
DA:547,1
DA:548,1
DA:549,1
DA:550,1
DA:551,1
DA:552,1
DA:553,2
DA:563,1
DA:564,1
DA:565,0
DA:566,1
DA:567,1
DA:568,1
DA:570,0
DA:571,0
DA:593,1
DA:594,1
DA:595,1
DA:597,0
DA:599,1
DA:610,1
DA:611,1
DA:612,1
DA:613,1
DA:614,1
DA:615,1
DA:616,1
DA:617,1
DA:618,1
DA:629,0
DA:630,0
DA:631,0
DA:632,0
DA:633,0
DA:634,0
DA:635,0
DA:636,0
DA:637,0
DA:638,0
DA:639,0
DA:640,0
DA:641,0
DA:650,1
DA:651,1
DA:652,1
DA:653,1
DA:654,1
DA:655,1
DA:656,1
DA:657,1
DA:658,1
DA:659,1
DA:660,1
DA:661,1
DA:662,1
DA:663,1
DA:666,1
DA:667,1
DA:668,1
DA:671,2
DA:672,2
DA:673,2
DA:676,1
DA:677,1
DA:678,1
DA:687,1
DA:688,1
DA:689,1
DA:690,1
DA:691,1
DA:694,1
DA:695,1
DA:696,1
DA:697,1
DA:700,1
DA:701,1
DA:702,1
DA:703,1
DA:706,1
DA:707,1
DA:708,1
DA:709,1
DA:710,1
DA:713,1
DA:714,1
DA:715,1
DA:716,1
DA:717,1
DA:718,1
DA:721,1
DA:722,1
DA:723,1
DA:724,1
DA:725,1
DA:726,1
DA:727,1
DA:728,1
DA:729,1
DA:730,1
DA:731,1
DA:732,1
DA:735,1
DA:736,1
DA:737,1
DA:738,1
DA:739,1
DA:740,1
DA:743,1
DA:744,1
DA:745,1
DA:746,1
DA:747,1
DA:748,1
DA:749,1
DA:750,1
DA:751,1
DA:752,1
DA:753,1
DA:754,1
DA:755,1
DA:756,1
DA:759,1
DA:760,1
DA:761,1
DA:762,1
DA:763,1
DA:764,1
DA:765,1
DA:766,1
DA:767,1
DA:768,1
DA:769,1
DA:770,1
DA:773,1
DA:774,1
DA:775,1
DA:776,1
DA:777,1
DA:780,1
DA:781,1
DA:782,1
DA:783,1
DA:784,1
DA:785,1
DA:786,1
DA:787,1
DA:788,1
DA:789,1
DA:790,1
DA:791,1
DA:792,1
DA:793,1
DA:794,1
DA:795,1
DA:796,1
DA:797,1
DA:798,1
DA:799,1
BRF:0
BRH:0
LF:386
LH:308
end_of_record
SF:/home/strandgate/Development/ecoPrimals/phase2/rhizoCrypt/crates/rhizo-crypt-core/src/clients/loamspine.rs
FN:100,_RINvMs_NtNtCsid3wTlZBOIR_16rhizo_crypt_core7clients9loamspineNtB5_15LoamSpineConfig13with_fallbackpEB9_
FN:399,_RNCNCNCNvMs1_NtNtCsid3wTlZBOIR_16rhizo_crypt_core7clients9loamspineNtBb_15LoamSpineClient20discover_or_fallback0s_00Bf_
FN:393,_RNCNCNvMs1_NtNtCsid3wTlZBOIR_16rhizo_crypt_core7clients9loamspineNtB9_15LoamSpineClient20discover_or_fallback00Bd_
FN:398,_RNCNCNvMs1_NtNtCsid3wTlZBOIR_16rhizo_crypt_core7clients9loamspineNtB9_15LoamSpineClient20discover_or_fallback0s_0Bd_
FN:406,_RNCNvMs1_NtNtCsid3wTlZBOIR_16rhizo_crypt_core7clients9loamspineNtB7_15LoamSpineClient10disconnect0Bb_
FN:484,_RNCNvMs1_NtNtCsid3wTlZBOIR_16rhizo_crypt_core7clients9loamspineNtB7_15LoamSpineClient10get_commit0Bb_
FN:321,_RNCNvMs1_NtNtCsid3wTlZBOIR_16rhizo_crypt_core7clients9loamspineNtB7_15LoamSpineClient12is_connected0Bb_
FN:562,_RNCNvMs1_NtNtCsid3wTlZBOIR_16rhizo_crypt_core7clients9loamspineNtB7_15LoamSpineClient13clear_pending0Bb_
FN:557,_RNCNvMs1_NtNtCsid3wTlZBOIR_16rhizo_crypt_core7clients9loamspineNtB7_15LoamSpineClient13pending_count0Bb_
FN:546,_RNCNvMs1_NtNtCsid3wTlZBOIR_16rhizo_crypt_core7clients9loamspineNtB7_15LoamSpineClient14commit_session0Bb_
FN:462,_RNCNvMs1_NtNtCsid3wTlZBOIR_16rhizo_crypt_core7clients9loamspineNtB7_15LoamSpineClient17get_commit_status0Bb_
FN:379,_RNCNvMs1_NtNtCsid3wTlZBOIR_16rhizo_crypt_core7clients9loamspineNtB7_15LoamSpineClient20discover_or_fallback0Bb_
FN:316,_RNCNvMs1_NtNtCsid3wTlZBOIR_16rhizo_crypt_core7clients9loamspineNtB7_15LoamSpineClient5state0Bb_
FN:421,_RNCNvMs1_NtNtCsid3wTlZBOIR_16rhizo_crypt_core7clients9loamspineNtB7_15LoamSpineClient6commit0Bb_
FN:339,_RNCNvMs1_NtNtCsid3wTlZBOIR_16rhizo_crypt_core7clients9loamspineNtB7_15LoamSpineClient7connect0Bb_
FN:509,_RNCNvMs1_NtNtCsid3wTlZBOIR_16rhizo_crypt_core7clients9loamspineNtB7_15LoamSpineClient8checkout0Bb_
FN:567,_RNCNvMs1_NtNtCsid3wTlZBOIR_16rhizo_crypt_core7clients9loamspineNtB7_15LoamSpineClient8endpoint0Bb_
FN:138,_RNvMs0_NtNtCsid3wTlZBOIR_16rhizo_crypt_core7clients9loamspineNtB5_12CommitStatus10is_successB9_
FN:131,_RNvMs0_NtNtCsid3wTlZBOIR_16rhizo_crypt_core7clients9loamspineNtB5_12CommitStatus11is_terminalB9_
FN:406,_RNCNvMs1_NtNtCs7YQQ0vypdx3_16rhizo_crypt_core7clients9loamspineNtB7_15LoamSpineClient10disconnect0Bb_
FN:562,_RNCNvMs1_NtNtCs7YQQ0vypdx3_16rhizo_crypt_core7clients9loamspineNtB7_15LoamSpineClient13clear_pending0Bb_
FN:557,_RNCNvMs1_NtNtCs7YQQ0vypdx3_16rhizo_crypt_core7clients9loamspineNtB7_15LoamSpineClient13pending_count0Bb_
FN:509,_RNCNvMs1_NtNtCs7YQQ0vypdx3_16rhizo_crypt_core7clients9loamspineNtB7_15LoamSpineClient8checkout0Bb_
FN:406,_RNvMs1_NtNtCs7YQQ0vypdx3_16rhizo_crypt_core7clients9loamspineNtB5_15LoamSpineClient10disconnect
FN:562,_RNvMs1_NtNtCs7YQQ0vypdx3_16rhizo_crypt_core7clients9loamspineNtB5_15LoamSpineClient13clear_pending
FN:557,_RNvMs1_NtNtCs7YQQ0vypdx3_16rhizo_crypt_core7clients9loamspineNtB5_15LoamSpineClient13pending_count
FN:509,_RNvMs1_NtNtCs7YQQ0vypdx3_16rhizo_crypt_core7clients9loamspineNtB5_15LoamSpineClient8checkout
FN:311,_RNvMs1_NtNtCs7YQQ0vypdx3_16rhizo_crypt_core7clients9loamspineNtB5_15LoamSpineClient8from_env
FN:82,_RNvMs_NtNtCs7YQQ0vypdx3_16rhizo_crypt_core7clients9loamspineNtB4_15LoamSpineConfig8from_env
FN:138,_RNvMs0_NtNtCs7YQQ0vypdx3_16rhizo_crypt_core7clients9loamspineNtB5_12CommitStatus10is_successB9_
FN:131,_RNvMs0_NtNtCs7YQQ0vypdx3_16rhizo_crypt_core7clients9loamspineNtB5_12CommitStatus11is_terminalB9_
FN:484,_RNvMs1_NtNtCs7YQQ0vypdx3_16rhizo_crypt_core7clients9loamspineNtB5_15LoamSpineClient10get_commit
FN:321,_RNvMs1_NtNtCs7YQQ0vypdx3_16rhizo_crypt_core7clients9loamspineNtB5_15LoamSpineClient12is_connected
FN:305,_RNvMs1_NtNtCs7YQQ0vypdx3_16rhizo_crypt_core7clients9loamspineNtB5_15LoamSpineClient13with_defaults
FN:541,_RNvMs1_NtNtCs7YQQ0vypdx3_16rhizo_crypt_core7clients9loamspineNtB5_15LoamSpineClient14commit_session
FN:277,_RNvMs1_NtNtCs7YQQ0vypdx3_16rhizo_crypt_core7clients9loamspineNtB5_15LoamSpineClient14with_discovery
FN:462,_RNvMs1_NtNtCs7YQQ0vypdx3_16rhizo_crypt_core7clients9loamspineNtB5_15LoamSpineClient17get_commit_status
FN:379,_RNvMs1_NtNtCs7YQQ0vypdx3_16rhizo_crypt_core7clients9loamspineNtB5_15LoamSpineClient20discover_or_fallback
FN:291,_RNvMs1_NtNtCs7YQQ0vypdx3_16rhizo_crypt_core7clients9loamspineNtB5_15LoamSpineClient3new
FN:316,_RNvMs1_NtNtCs7YQQ0vypdx3_16rhizo_crypt_core7clients9loamspineNtB5_15LoamSpineClient5state
FN:421,_RNvMs1_NtNtCs7YQQ0vypdx3_16rhizo_crypt_core7clients9loamspineNtB5_15LoamSpineClient6commit
FN:339,_RNvMs1_NtNtCs7YQQ0vypdx3_16rhizo_crypt_core7clients9loamspineNtB5_15LoamSpineClient7connect
FN:567,_RNvMs1_NtNtCs7YQQ0vypdx3_16rhizo_crypt_core7clients9loamspineNtB5_15LoamSpineClient8endpoint
FN:64,_RNvXNtNtCs7YQQ0vypdx3_16rhizo_crypt_core7clients9loamspineNtB2_15LoamSpineConfigNtNtCs9sjCchOt1K7_4core7default7Default7default
FN:741,_RNCNvNtNtNtCs7YQQ0vypdx3_16rhizo_crypt_core7clients9loamspine5testss_22test_endpoint_tracking0B9_
FN:624,_RNCNvNtNtNtCs7YQQ0vypdx3_16rhizo_crypt_core7clients9loamspine5testss_25test_client_initial_state0B9_
FN:647,_RNCNvNtNtNtCs7YQQ0vypdx3_16rhizo_crypt_core7clients9loamspine5testss_29test_discovery_fallback_error0B9_
FN:631,_RNCNvNtNtNtCs7YQQ0vypdx3_16rhizo_crypt_core7clients9loamspine5testss_30test_commit_without_connection0B9_
FN:729,_RNCNvNtNtNtCs7YQQ0vypdx3_16rhizo_crypt_core7clients9loamspine5testss_31test_commit_session_convenience0B9_
FN:654,_RNCNvNtNtNtCs7YQQ0vypdx3_16rhizo_crypt_core7clients9loamspine5testss_32test_commit_with_mock_connection0B9_
FN:692,_RNCNvNtNtNtCs7YQQ0vypdx3_16rhizo_crypt_core7clients9loamspine5testss_34test_get_commit_without_connection0B9_
FN:699,_RNCNvNtNtNtCs7YQQ0vypdx3_16rhizo_crypt_core7clients9loamspine5testss_35test_get_commit_pending_integration0B9_
FN:711,_RNCNvNtNtNtCs7YQQ0vypdx3_16rhizo_crypt_core7clients9loamspine5testss_41test_get_commit_status_without_connection0B9_
FN:718,_RNCNvNtNtNtCs7YQQ0vypdx3_16rhizo_crypt_core7clients9loamspine5testss_43test_get_commit_status_with_mock_connection0B9_
FN:579,_RNvNtNtNtCs7YQQ0vypdx3_16rhizo_crypt_core7clients9loamspine5tests17make_test_summary
FN:597,_RNvNtNtNtCs7YQQ0vypdx3_16rhizo_crypt_core7clients9loamspine5testss_19test_config_default
FN:611,_RNvNtNtNtCs7YQQ0vypdx3_16rhizo_crypt_core7clients9loamspine5testss_20test_client_creation
FN:741,_RNvNtNtNtCs7YQQ0vypdx3_16rhizo_crypt_core7clients9loamspine5testss_22test_endpoint_tracking
FN:624,_RNvNtNtNtCs7YQQ0vypdx3_16rhizo_crypt_core7clients9loamspine5testss_25test_client_initial_state
FN:605,_RNvNtNtNtCs7YQQ0vypdx3_16rhizo_crypt_core7clients9loamspine5testss_25test_config_with_fallback
FN:617,_RNvNtNtNtCs7YQQ0vypdx3_16rhizo_crypt_core7clients9loamspine5testss_26test_client_with_discovery
FN:752,_RNvNtNtNtCs7YQQ0vypdx3_16rhizo_crypt_core7clients9loamspine5testss_26test_commit_request_fields
FN:676,_RNvNtNtNtCs7YQQ0vypdx3_16rhizo_crypt_core7clients9loamspine5testss_26test_commit_status_methods
FN:647,_RNvNtNtNtCs7YQQ0vypdx3_16rhizo_crypt_core7clients9loamspine5testss_29test_discovery_fallback_error
FN:631,_RNvNtNtNtCs7YQQ0vypdx3_16rhizo_crypt_core7clients9loamspine5testss_30test_commit_without_connection
FN:729,_RNvNtNtNtCs7YQQ0vypdx3_16rhizo_crypt_core7clients9loamspine5testss_31test_commit_session_convenience
FN:685,_RNvNtNtNtCs7YQQ0vypdx3_16rhizo_crypt_core7clients9loamspine5testss_32test_commit_status_serialization
FN:654,_RNvNtNtNtCs7YQQ0vypdx3_16rhizo_crypt_core7clients9loamspine5testss_32test_commit_with_mock_connection
FN:692,_RNvNtNtNtCs7YQQ0vypdx3_16rhizo_crypt_core7clients9loamspine5testss_34test_get_commit_without_connection
FN:699,_RNvNtNtNtCs7YQQ0vypdx3_16rhizo_crypt_core7clients9loamspine5testss_35test_get_commit_pending_integration
FN:711,_RNvNtNtNtCs7YQQ0vypdx3_16rhizo_crypt_core7clients9loamspine5testss_41test_get_commit_status_without_connection
FN:718,_RNvNtNtNtCs7YQQ0vypdx3_16rhizo_crypt_core7clients9loamspine5testss_43test_get_commit_status_with_mock_connection
FN:100,_RINvMs_NtNtCs7YQQ0vypdx3_16rhizo_crypt_core7clients9loamspineNtB5_15LoamSpineConfig13with_fallbackReEB9_
FN:399,_RNCNCNCNvMs1_NtNtCs7YQQ0vypdx3_16rhizo_crypt_core7clients9loamspineNtBb_15LoamSpineClient20discover_or_fallback0s_00Bf_
FN:393,_RNCNCNvMs1_NtNtCs7YQQ0vypdx3_16rhizo_crypt_core7clients9loamspineNtB9_15LoamSpineClient20discover_or_fallback00Bd_
FN:398,_RNCNCNvMs1_NtNtCs7YQQ0vypdx3_16rhizo_crypt_core7clients9loamspineNtB9_15LoamSpineClient20discover_or_fallback0s_0Bd_
FN:484,_RNCNvMs1_NtNtCs7YQQ0vypdx3_16rhizo_crypt_core7clients9loamspineNtB7_15LoamSpineClient10get_commit0Bb_
FN:321,_RNCNvMs1_NtNtCs7YQQ0vypdx3_16rhizo_crypt_core7clients9loamspineNtB7_15LoamSpineClient12is_connected0Bb_
FN:546,_RNCNvMs1_NtNtCs7YQQ0vypdx3_16rhizo_crypt_core7clients9loamspineNtB7_15LoamSpineClient14commit_session0Bb_
FN:462,_RNCNvMs1_NtNtCs7YQQ0vypdx3_16rhizo_crypt_core7clients9loamspineNtB7_15LoamSpineClient17get_commit_status0Bb_
FN:379,_RNCNvMs1_NtNtCs7YQQ0vypdx3_16rhizo_crypt_core7clients9loamspineNtB7_15LoamSpineClient20discover_or_fallback0Bb_
FN:316,_RNCNvMs1_NtNtCs7YQQ0vypdx3_16rhizo_crypt_core7clients9loamspineNtB7_15LoamSpineClient5state0Bb_
FN:421,_RNCNvMs1_NtNtCs7YQQ0vypdx3_16rhizo_crypt_core7clients9loamspineNtB7_15LoamSpineClient6commit0Bb_
FN:339,_RNCNvMs1_NtNtCs7YQQ0vypdx3_16rhizo_crypt_core7clients9loamspineNtB7_15LoamSpineClient7connect0Bb_
FN:567,_RNCNvMs1_NtNtCs7YQQ0vypdx3_16rhizo_crypt_core7clients9loamspineNtB7_15LoamSpineClient8endpoint0Bb_
FNDA:0,_RINvMs_NtNtCsid3wTlZBOIR_16rhizo_crypt_core7clients9loamspineNtB5_15LoamSpineConfig13with_fallbackpEB9_
FNDA:0,_RNCNCNCNvMs1_NtNtCsid3wTlZBOIR_16rhizo_crypt_core7clients9loamspineNtBb_15LoamSpineClient20discover_or_fallback0s_00Bf_
FNDA:0,_RNCNCNvMs1_NtNtCsid3wTlZBOIR_16rhizo_crypt_core7clients9loamspineNtB9_15LoamSpineClient20discover_or_fallback00Bd_
FNDA:0,_RNCNCNvMs1_NtNtCsid3wTlZBOIR_16rhizo_crypt_core7clients9loamspineNtB9_15LoamSpineClient20discover_or_fallback0s_0Bd_
FNDA:0,_RNCNvMs1_NtNtCsid3wTlZBOIR_16rhizo_crypt_core7clients9loamspineNtB7_15LoamSpineClient10disconnect0Bb_
FNDA:0,_RNCNvMs1_NtNtCsid3wTlZBOIR_16rhizo_crypt_core7clients9loamspineNtB7_15LoamSpineClient10get_commit0Bb_
FNDA:0,_RNCNvMs1_NtNtCsid3wTlZBOIR_16rhizo_crypt_core7clients9loamspineNtB7_15LoamSpineClient12is_connected0Bb_
FNDA:0,_RNCNvMs1_NtNtCsid3wTlZBOIR_16rhizo_crypt_core7clients9loamspineNtB7_15LoamSpineClient13clear_pending0Bb_
FNDA:0,_RNCNvMs1_NtNtCsid3wTlZBOIR_16rhizo_crypt_core7clients9loamspineNtB7_15LoamSpineClient13pending_count0Bb_
FNDA:0,_RNCNvMs1_NtNtCsid3wTlZBOIR_16rhizo_crypt_core7clients9loamspineNtB7_15LoamSpineClient14commit_session0Bb_
FNDA:0,_RNCNvMs1_NtNtCsid3wTlZBOIR_16rhizo_crypt_core7clients9loamspineNtB7_15LoamSpineClient17get_commit_status0Bb_
FNDA:0,_RNCNvMs1_NtNtCsid3wTlZBOIR_16rhizo_crypt_core7clients9loamspineNtB7_15LoamSpineClient20discover_or_fallback0Bb_
FNDA:0,_RNCNvMs1_NtNtCsid3wTlZBOIR_16rhizo_crypt_core7clients9loamspineNtB7_15LoamSpineClient5state0Bb_
FNDA:0,_RNCNvMs1_NtNtCsid3wTlZBOIR_16rhizo_crypt_core7clients9loamspineNtB7_15LoamSpineClient6commit0Bb_
FNDA:0,_RNCNvMs1_NtNtCsid3wTlZBOIR_16rhizo_crypt_core7clients9loamspineNtB7_15LoamSpineClient7connect0Bb_
FNDA:0,_RNCNvMs1_NtNtCsid3wTlZBOIR_16rhizo_crypt_core7clients9loamspineNtB7_15LoamSpineClient8checkout0Bb_
FNDA:0,_RNCNvMs1_NtNtCsid3wTlZBOIR_16rhizo_crypt_core7clients9loamspineNtB7_15LoamSpineClient8endpoint0Bb_
FNDA:0,_RNvMs0_NtNtCsid3wTlZBOIR_16rhizo_crypt_core7clients9loamspineNtB5_12CommitStatus10is_successB9_
FNDA:0,_RNvMs0_NtNtCsid3wTlZBOIR_16rhizo_crypt_core7clients9loamspineNtB5_12CommitStatus11is_terminalB9_
FNDA:0,_RNCNvMs1_NtNtCs7YQQ0vypdx3_16rhizo_crypt_core7clients9loamspineNtB7_15LoamSpineClient10disconnect0Bb_
FNDA:0,_RNCNvMs1_NtNtCs7YQQ0vypdx3_16rhizo_crypt_core7clients9loamspineNtB7_15LoamSpineClient13clear_pending0Bb_
FNDA:0,_RNCNvMs1_NtNtCs7YQQ0vypdx3_16rhizo_crypt_core7clients9loamspineNtB7_15LoamSpineClient13pending_count0Bb_
FNDA:0,_RNCNvMs1_NtNtCs7YQQ0vypdx3_16rhizo_crypt_core7clients9loamspineNtB7_15LoamSpineClient8checkout0Bb_
FNDA:0,_RNvMs1_NtNtCs7YQQ0vypdx3_16rhizo_crypt_core7clients9loamspineNtB5_15LoamSpineClient10disconnect
FNDA:0,_RNvMs1_NtNtCs7YQQ0vypdx3_16rhizo_crypt_core7clients9loamspineNtB5_15LoamSpineClient13clear_pending
FNDA:0,_RNvMs1_NtNtCs7YQQ0vypdx3_16rhizo_crypt_core7clients9loamspineNtB5_15LoamSpineClient13pending_count
FNDA:0,_RNvMs1_NtNtCs7YQQ0vypdx3_16rhizo_crypt_core7clients9loamspineNtB5_15LoamSpineClient8checkout
FNDA:0,_RNvMs1_NtNtCs7YQQ0vypdx3_16rhizo_crypt_core7clients9loamspineNtB5_15LoamSpineClient8from_env
FNDA:0,_RNvMs_NtNtCs7YQQ0vypdx3_16rhizo_crypt_core7clients9loamspineNtB4_15LoamSpineConfig8from_env
FNDA:2,_RNvMs0_NtNtCs7YQQ0vypdx3_16rhizo_crypt_core7clients9loamspineNtB5_12CommitStatus10is_successB9_
FNDA:3,_RNvMs0_NtNtCs7YQQ0vypdx3_16rhizo_crypt_core7clients9loamspineNtB5_12CommitStatus11is_terminalB9_
FNDA:2,_RNvMs1_NtNtCs7YQQ0vypdx3_16rhizo_crypt_core7clients9loamspineNtB5_15LoamSpineClient10get_commit
FNDA:9,_RNvMs1_NtNtCs7YQQ0vypdx3_16rhizo_crypt_core7clients9loamspineNtB5_15LoamSpineClient12is_connected
FNDA:10,_RNvMs1_NtNtCs7YQQ0vypdx3_16rhizo_crypt_core7clients9loamspineNtB5_15LoamSpineClient13with_defaults
FNDA:1,_RNvMs1_NtNtCs7YQQ0vypdx3_16rhizo_crypt_core7clients9loamspineNtB5_15LoamSpineClient14commit_session
FNDA:1,_RNvMs1_NtNtCs7YQQ0vypdx3_16rhizo_crypt_core7clients9loamspineNtB5_15LoamSpineClient14with_discovery
FNDA:2,_RNvMs1_NtNtCs7YQQ0vypdx3_16rhizo_crypt_core7clients9loamspineNtB5_15LoamSpineClient17get_commit_status
FNDA:1,_RNvMs1_NtNtCs7YQQ0vypdx3_16rhizo_crypt_core7clients9loamspineNtB5_15LoamSpineClient20discover_or_fallback
FNDA:11,_RNvMs1_NtNtCs7YQQ0vypdx3_16rhizo_crypt_core7clients9loamspineNtB5_15LoamSpineClient3new
FNDA:1,_RNvMs1_NtNtCs7YQQ0vypdx3_16rhizo_crypt_core7clients9loamspineNtB5_15LoamSpineClient5state
FNDA:3,_RNvMs1_NtNtCs7YQQ0vypdx3_16rhizo_crypt_core7clients9loamspineNtB5_15LoamSpineClient6commit
FNDA:1,_RNvMs1_NtNtCs7YQQ0vypdx3_16rhizo_crypt_core7clients9loamspineNtB5_15LoamSpineClient7connect
FNDA:2,_RNvMs1_NtNtCs7YQQ0vypdx3_16rhizo_crypt_core7clients9loamspineNtB5_15LoamSpineClient8endpoint
FNDA:14,_RNvXNtNtCs7YQQ0vypdx3_16rhizo_crypt_core7clients9loamspineNtB2_15LoamSpineConfigNtNtCs9sjCchOt1K7_4core7default7Default7default
FNDA:1,_RNCNvNtNtNtCs7YQQ0vypdx3_16rhizo_crypt_core7clients9loamspine5testss_22test_endpoint_tracking0B9_
FNDA:1,_RNCNvNtNtNtCs7YQQ0vypdx3_16rhizo_crypt_core7clients9loamspine5testss_25test_client_initial_state0B9_
FNDA:1,_RNCNvNtNtNtCs7YQQ0vypdx3_16rhizo_crypt_core7clients9loamspine5testss_29test_discovery_fallback_error0B9_
FNDA:1,_RNCNvNtNtNtCs7YQQ0vypdx3_16rhizo_crypt_core7clients9loamspine5testss_30test_commit_without_connection0B9_
FNDA:1,_RNCNvNtNtNtCs7YQQ0vypdx3_16rhizo_crypt_core7clients9loamspine5testss_31test_commit_session_convenience0B9_
FNDA:1,_RNCNvNtNtNtCs7YQQ0vypdx3_16rhizo_crypt_core7clients9loamspine5testss_32test_commit_with_mock_connection0B9_
FNDA:1,_RNCNvNtNtNtCs7YQQ0vypdx3_16rhizo_crypt_core7clients9loamspine5testss_34test_get_commit_without_connection0B9_
FNDA:1,_RNCNvNtNtNtCs7YQQ0vypdx3_16rhizo_crypt_core7clients9loamspine5testss_35test_get_commit_pending_integration0B9_
FNDA:1,_RNCNvNtNtNtCs7YQQ0vypdx3_16rhizo_crypt_core7clients9loamspine5testss_41test_get_commit_status_without_connection0B9_
FNDA:1,_RNCNvNtNtNtCs7YQQ0vypdx3_16rhizo_crypt_core7clients9loamspine5testss_43test_get_commit_status_with_mock_connection0B9_
FNDA:4,_RNvNtNtNtCs7YQQ0vypdx3_16rhizo_crypt_core7clients9loamspine5tests17make_test_summary
FNDA:1,_RNvNtNtNtCs7YQQ0vypdx3_16rhizo_crypt_core7clients9loamspine5testss_19test_config_default
FNDA:1,_RNvNtNtNtCs7YQQ0vypdx3_16rhizo_crypt_core7clients9loamspine5testss_20test_client_creation
FNDA:1,_RNvNtNtNtCs7YQQ0vypdx3_16rhizo_crypt_core7clients9loamspine5testss_22test_endpoint_tracking
FNDA:1,_RNvNtNtNtCs7YQQ0vypdx3_16rhizo_crypt_core7clients9loamspine5testss_25test_client_initial_state
FNDA:1,_RNvNtNtNtCs7YQQ0vypdx3_16rhizo_crypt_core7clients9loamspine5testss_25test_config_with_fallback
FNDA:1,_RNvNtNtNtCs7YQQ0vypdx3_16rhizo_crypt_core7clients9loamspine5testss_26test_client_with_discovery
FNDA:1,_RNvNtNtNtCs7YQQ0vypdx3_16rhizo_crypt_core7clients9loamspine5testss_26test_commit_request_fields
FNDA:1,_RNvNtNtNtCs7YQQ0vypdx3_16rhizo_crypt_core7clients9loamspine5testss_26test_commit_status_methods
FNDA:1,_RNvNtNtNtCs7YQQ0vypdx3_16rhizo_crypt_core7clients9loamspine5testss_29test_discovery_fallback_error
FNDA:1,_RNvNtNtNtCs7YQQ0vypdx3_16rhizo_crypt_core7clients9loamspine5testss_30test_commit_without_connection
FNDA:1,_RNvNtNtNtCs7YQQ0vypdx3_16rhizo_crypt_core7clients9loamspine5testss_31test_commit_session_convenience
FNDA:1,_RNvNtNtNtCs7YQQ0vypdx3_16rhizo_crypt_core7clients9loamspine5testss_32test_commit_status_serialization
FNDA:1,_RNvNtNtNtCs7YQQ0vypdx3_16rhizo_crypt_core7clients9loamspine5testss_32test_commit_with_mock_connection
FNDA:1,_RNvNtNtNtCs7YQQ0vypdx3_16rhizo_crypt_core7clients9loamspine5testss_34test_get_commit_without_connection
FNDA:1,_RNvNtNtNtCs7YQQ0vypdx3_16rhizo_crypt_core7clients9loamspine5testss_35test_get_commit_pending_integration
FNDA:1,_RNvNtNtNtCs7YQQ0vypdx3_16rhizo_crypt_core7clients9loamspine5testss_41test_get_commit_status_without_connection
FNDA:1,_RNvNtNtNtCs7YQQ0vypdx3_16rhizo_crypt_core7clients9loamspine5testss_43test_get_commit_status_with_mock_connection
FNDA:1,_RINvMs_NtNtCs7YQQ0vypdx3_16rhizo_crypt_core7clients9loamspineNtB5_15LoamSpineConfig13with_fallbackReEB9_
FNDA:0,_RNCNCNCNvMs1_NtNtCs7YQQ0vypdx3_16rhizo_crypt_core7clients9loamspineNtBb_15LoamSpineClient20discover_or_fallback0s_00Bf_
FNDA:1,_RNCNCNvMs1_NtNtCs7YQQ0vypdx3_16rhizo_crypt_core7clients9loamspineNtB9_15LoamSpineClient20discover_or_fallback00Bd_
FNDA:0,_RNCNCNvMs1_NtNtCs7YQQ0vypdx3_16rhizo_crypt_core7clients9loamspineNtB9_15LoamSpineClient20discover_or_fallback0s_0Bd_
FNDA:2,_RNCNvMs1_NtNtCs7YQQ0vypdx3_16rhizo_crypt_core7clients9loamspineNtB7_15LoamSpineClient10get_commit0Bb_
FNDA:9,_RNCNvMs1_NtNtCs7YQQ0vypdx3_16rhizo_crypt_core7clients9loamspineNtB7_15LoamSpineClient12is_connected0Bb_
FNDA:1,_RNCNvMs1_NtNtCs7YQQ0vypdx3_16rhizo_crypt_core7clients9loamspineNtB7_15LoamSpineClient14commit_session0Bb_
FNDA:2,_RNCNvMs1_NtNtCs7YQQ0vypdx3_16rhizo_crypt_core7clients9loamspineNtB7_15LoamSpineClient17get_commit_status0Bb_
FNDA:1,_RNCNvMs1_NtNtCs7YQQ0vypdx3_16rhizo_crypt_core7clients9loamspineNtB7_15LoamSpineClient20discover_or_fallback0Bb_
FNDA:1,_RNCNvMs1_NtNtCs7YQQ0vypdx3_16rhizo_crypt_core7clients9loamspineNtB7_15LoamSpineClient5state0Bb_
FNDA:3,_RNCNvMs1_NtNtCs7YQQ0vypdx3_16rhizo_crypt_core7clients9loamspineNtB7_15LoamSpineClient6commit0Bb_
FNDA:1,_RNCNvMs1_NtNtCs7YQQ0vypdx3_16rhizo_crypt_core7clients9loamspineNtB7_15LoamSpineClient7connect0Bb_
FNDA:2,_RNCNvMs1_NtNtCs7YQQ0vypdx3_16rhizo_crypt_core7clients9loamspineNtB7_15LoamSpineClient8endpoint0Bb_
FNF:66
FNH:54
DA:64,14
DA:65,14
DA:66,14
DA:67,14
DA:68,14
DA:69,14
DA:70,14
DA:71,14
DA:72,14
DA:82,0
DA:83,0
DA:85,0
DA:86,0
DA:87,0
DA:89,0
DA:90,0
DA:91,0
DA:92,0
DA:93,0
DA:95,0
DA:96,0
DA:100,1
DA:101,1
DA:102,1
DA:103,1
DA:104,1
DA:105,1
DA:131,3
DA:132,3
DA:133,3
DA:138,2
DA:139,2
DA:140,2
DA:277,1
DA:278,1
DA:279,1
DA:280,1
DA:281,1
DA:282,1
DA:283,1
DA:284,1
DA:285,1
DA:286,1
DA:287,1
DA:291,11
DA:292,11
DA:293,11
DA:294,11
DA:295,11
DA:296,11
DA:297,11
DA:298,11
DA:299,11
DA:300,11
DA:301,11
DA:305,10
DA:306,10
DA:307,10
DA:311,0
DA:312,0
DA:313,0
DA:316,1
DA:317,1
DA:318,1
DA:321,9
DA:322,9
DA:323,9
DA:339,1
DA:340,1
DA:341,0
DA:342,1
DA:343,1
DA:344,1
DA:347,1
DA:349,0
DA:352,0
DA:353,0
DA:354,0
DA:355,0
DA:356,0
DA:358,0
DA:359,0
DA:360,0
DA:361,0
DA:362,0
DA:363,0
DA:365,0
DA:366,0
DA:367,0
DA:368,0
DA:371,0
DA:372,0
DA:373,0
DA:376,1
DA:379,1
DA:381,1
DA:382,0
DA:383,0
DA:384,0
DA:385,0
DA:386,0
DA:387,1
DA:390,1
DA:391,1
DA:392,1
DA:393,1
DA:394,1
DA:395,1
DA:396,1
DA:397,1
DA:398,1
DA:399,0
DA:400,0
DA:401,0
DA:402,1
DA:403,1
DA:406,0
DA:407,0
DA:408,0
DA:409,0
DA:410,0
DA:421,3
DA:422,3
DA:423,1
DA:424,2
DA:425,2
DA:426,2
DA:430,0
DA:438,2
DA:439,2
DA:440,2
DA:441,2
DA:442,2
DA:443,2
DA:444,2
DA:445,2
DA:446,2
DA:448,0
DA:451,2
DA:452,3
DA:462,2
DA:463,2
DA:464,1
DA:465,1
DA:466,1
DA:467,1
DA:473,1
DA:474,2
DA:484,2
DA:485,2
DA:486,1
DA:487,1
DA:488,1
DA:489,1
DA:495,1
DA:496,1
DA:497,1
DA:498,2
DA:509,0
DA:510,0
DA:511,0
DA:512,0
DA:513,0
DA:514,0
DA:517,0
DA:524,0
DA:525,0
DA:526,0
DA:527,0
DA:528,0
DA:529,0
DA:530,0
DA:541,1
DA:542,1
DA:543,1
DA:544,1
DA:545,1
DA:546,1
DA:547,1
DA:548,1
DA:549,1
DA:550,1
DA:551,1
DA:552,1
DA:553,1
DA:554,1
DA:557,0
DA:558,0
DA:559,0
DA:562,0
DA:563,0
DA:564,0
DA:567,2
DA:568,2
DA:569,2
DA:579,4
DA:580,4
DA:581,4
DA:582,4
DA:583,4
DA:584,4
DA:585,4
DA:586,4
DA:587,4
DA:588,4
DA:589,4
DA:590,4
DA:591,4
DA:592,4
DA:593,4
DA:594,4
DA:597,1
DA:598,1
DA:599,1
DA:600,1
DA:601,1
DA:602,1
DA:605,1
DA:606,1
DA:607,1
DA:608,1
DA:611,1
DA:612,1
DA:613,1
DA:614,1
DA:617,1
DA:618,1
DA:619,1
DA:620,1
DA:621,1
DA:624,1
DA:625,1
DA:626,1
DA:627,1
DA:628,1
DA:631,1
DA:632,1
DA:633,1
DA:634,1
DA:635,1
DA:636,1
DA:637,1
DA:638,1
DA:639,1
DA:640,1
DA:641,1
DA:642,1
DA:643,1
DA:644,1
DA:647,1
DA:648,1
DA:649,1
DA:650,1
DA:651,1
DA:654,1
DA:655,1
DA:656,1
DA:657,1
DA:658,1
DA:659,1
DA:660,1
DA:661,1
DA:662,1
DA:663,1
DA:664,1
DA:665,1
DA:666,1
DA:667,1
DA:668,1
DA:669,1
DA:670,1
DA:671,1
DA:672,1
DA:673,1
DA:676,1
DA:677,1
DA:678,1
DA:679,1
DA:680,1
DA:681,1
DA:682,1
DA:685,1
DA:686,1
DA:687,1
DA:688,1
DA:689,1
DA:692,1
DA:693,1
DA:694,1
DA:695,1
DA:696,1
DA:699,1
DA:700,1
DA:701,1
DA:702,1
DA:703,1
DA:704,1
DA:705,1
DA:706,1
DA:707,1
DA:708,1
DA:711,1
DA:712,1
DA:713,1
DA:714,1
DA:715,1
DA:718,1
DA:719,1
DA:720,1
DA:721,1
DA:722,1
DA:723,1
DA:724,1
DA:725,1
DA:726,1
DA:729,1
DA:730,1
DA:731,1
DA:732,1
DA:733,1
DA:734,1
DA:735,1
DA:736,1
DA:737,1
DA:738,1
DA:741,1
DA:742,1
DA:743,1
DA:744,1
DA:745,1
DA:746,1
DA:747,1
DA:748,1
DA:749,1
DA:752,1
DA:753,1
DA:754,1
DA:755,1
DA:756,1
DA:757,1
DA:758,1
DA:759,1
DA:760,1
DA:761,1
DA:762,1
DA:763,1
BRF:0
BRH:0
LF:434
LH:356
end_of_record
SF:/home/strandgate/Development/ecoPrimals/phase2/rhizoCrypt/crates/rhizo-crypt-core/src/clients/nestgate.rs
FN:113,_RINvMs_NtNtCsid3wTlZBOIR_16rhizo_crypt_core7clients8nestgateNtB5_14NestGateConfig13with_fallbackpEB9_
FN:410,_RNCNCNCNvMs0_NtNtCsid3wTlZBOIR_16rhizo_crypt_core7clients8nestgateNtBb_14NestGateClient20discover_or_fallback0s_00Bf_
FN:404,_RNCNCNvMs0_NtNtCsid3wTlZBOIR_16rhizo_crypt_core7clients8nestgateNtB9_14NestGateClient20discover_or_fallback00Bd_
FN:409,_RNCNCNvMs0_NtNtCsid3wTlZBOIR_16rhizo_crypt_core7clients8nestgateNtB9_14NestGateClient20discover_or_fallback0s_0Bd_
FN:632,_RNCNvMs0_NtNtCsid3wTlZBOIR_16rhizo_crypt_core7clients8nestgateNtB7_14NestGateClient10cache_size0Bb_
FN:417,_RNCNvMs0_NtNtCsid3wTlZBOIR_16rhizo_crypt_core7clients8nestgateNtB7_14NestGateClient10disconnect0Bb_
FN:627,_RNCNvMs0_NtNtCsid3wTlZBOIR_16rhizo_crypt_core7clients8nestgateNtB7_14NestGateClient11clear_cache0Bb_
FN:314,_RNCNvMs0_NtNtCsid3wTlZBOIR_16rhizo_crypt_core7clients8nestgateNtB7_14NestGateClient12is_connected0Bb_
FN:390,_RNCNvMs0_NtNtCsid3wTlZBOIR_16rhizo_crypt_core7clients8nestgateNtB7_14NestGateClient20discover_or_fallback0Bb_
FN:616,_RNCNvMs0_NtNtCsid3wTlZBOIR_16rhizo_crypt_core7clients8nestgateNtB7_14NestGateClient20store_vertex_payload0Bb_
FN:309,_RNCNvMs0_NtNtCsid3wTlZBOIR_16rhizo_crypt_core7clients8nestgateNtB7_14NestGateClient5state0Bb_
FN:433,_RNCNvMs0_NtNtCsid3wTlZBOIR_16rhizo_crypt_core7clients8nestgateNtB7_14NestGateClient5store0Bb_
FN:585,_RNCNvMs0_NtNtCsid3wTlZBOIR_16rhizo_crypt_core7clients8nestgateNtB7_14NestGateClient6delete0Bb_
FN:537,_RNCNvMs0_NtNtCsid3wTlZBOIR_16rhizo_crypt_core7clients8nestgateNtB7_14NestGateClient6exists0Bb_
FN:332,_RNCNvMs0_NtNtCsid3wTlZBOIR_16rhizo_crypt_core7clients8nestgateNtB7_14NestGateClient7connect0Bb_
FN:637,_RNCNvMs0_NtNtCsid3wTlZBOIR_16rhizo_crypt_core7clients8nestgateNtB7_14NestGateClient8endpoint0Bb_
FN:561,_RNCNvMs0_NtNtCsid3wTlZBOIR_16rhizo_crypt_core7clients8nestgateNtB7_14NestGateClient8metadata0Bb_
FN:515,_RNCNvMs0_NtNtCsid3wTlZBOIR_16rhizo_crypt_core7clients8nestgateNtB7_14NestGateClient8retrieve0Bb_
FN:417,_RNCNvMs0_NtNtCs7YQQ0vypdx3_16rhizo_crypt_core7clients8nestgateNtB7_14NestGateClient10disconnect0Bb_
FN:616,_RNCNvMs0_NtNtCs7YQQ0vypdx3_16rhizo_crypt_core7clients8nestgateNtB7_14NestGateClient20store_vertex_payload0Bb_
FN:561,_RNCNvMs0_NtNtCs7YQQ0vypdx3_16rhizo_crypt_core7clients8nestgateNtB7_14NestGateClient8metadata0Bb_
FN:417,_RNvMs0_NtNtCs7YQQ0vypdx3_16rhizo_crypt_core7clients8nestgateNtB5_14NestGateClient10disconnect
FN:612,_RNvMs0_NtNtCs7YQQ0vypdx3_16rhizo_crypt_core7clients8nestgateNtB5_14NestGateClient20store_vertex_payload
FN:304,_RNvMs0_NtNtCs7YQQ0vypdx3_16rhizo_crypt_core7clients8nestgateNtB5_14NestGateClient8from_env
FN:561,_RNvMs0_NtNtCs7YQQ0vypdx3_16rhizo_crypt_core7clients8nestgateNtB5_14NestGateClient8metadata
FN:89,_RNvMs_NtNtCs7YQQ0vypdx3_16rhizo_crypt_core7clients8nestgateNtB4_14NestGateConfig8from_env
FN:749,_RNCNvNtNtNtCs7YQQ0vypdx3_16rhizo_crypt_core7clients8nestgate5testss_21test_cache_operations0B9_
FN:853,_RNCNvNtNtNtCs7YQQ0vypdx3_16rhizo_crypt_core7clients8nestgate5testss_22test_endpoint_tracking0B9_
FN:727,_RNCNvNtNtNtCs7YQQ0vypdx3_16rhizo_crypt_core7clients8nestgate5testss_22test_payload_too_large0B9_
FN:675,_RNCNvNtNtNtCs7YQQ0vypdx3_16rhizo_crypt_core7clients8nestgate5testss_25test_client_initial_state0B9_
FN:837,_RNCNvNtNtNtCs7YQQ0vypdx3_16rhizo_crypt_core7clients8nestgate5testss_27test_store_with_compression0B9_
FN:696,_RNCNvNtNtNtCs7YQQ0vypdx3_16rhizo_crypt_core7clients8nestgate5testss_29test_discovery_fallback_error0B9_
FN:682,_RNCNvNtNtNtCs7YQQ0vypdx3_16rhizo_crypt_core7clients8nestgate5testss_29test_store_without_connection0B9_
FN:819,_RNCNvNtNtNtCs7YQQ0vypdx3_16rhizo_crypt_core7clients8nestgate5testss_30test_delete_without_connection0B9_
FN:801,_RNCNvNtNtNtCs7YQQ0vypdx3_16rhizo_crypt_core7clients8nestgate5testss_30test_exists_without_connection0B9_
FN:703,_RNCNvNtNtNtCs7YQQ0vypdx3_16rhizo_crypt_core7clients8nestgate5testss_31test_store_with_mock_connection0B9_
FN:827,_RNCNvNtNtNtCs7YQQ0vypdx3_16rhizo_crypt_core7clients8nestgate5testss_32test_delete_with_mock_connection0B9_
FN:809,_RNCNvNtNtNtCs7YQQ0vypdx3_16rhizo_crypt_core7clients8nestgate5testss_32test_exists_with_mock_connection0B9_
FN:770,_RNCNvNtNtNtCs7YQQ0vypdx3_16rhizo_crypt_core7clients8nestgate5testss_32test_retrieve_without_connection0B9_
FN:778,_RNCNvNtNtNtCs7YQQ0vypdx3_16rhizo_crypt_core7clients8nestgate5testss_33test_retrieve_pending_integration0B9_
FN:632,_RNvMs0_NtNtCs7YQQ0vypdx3_16rhizo_crypt_core7clients8nestgateNtB5_14NestGateClient10cache_size
FN:627,_RNvMs0_NtNtCs7YQQ0vypdx3_16rhizo_crypt_core7clients8nestgateNtB5_14NestGateClient11clear_cache
FN:314,_RNvMs0_NtNtCs7YQQ0vypdx3_16rhizo_crypt_core7clients8nestgateNtB5_14NestGateClient12is_connected
FN:298,_RNvMs0_NtNtCs7YQQ0vypdx3_16rhizo_crypt_core7clients8nestgateNtB5_14NestGateClient13with_defaults
FN:267,_RNvMs0_NtNtCs7YQQ0vypdx3_16rhizo_crypt_core7clients8nestgateNtB5_14NestGateClient14with_discovery
FN:390,_RNvMs0_NtNtCs7YQQ0vypdx3_16rhizo_crypt_core7clients8nestgateNtB5_14NestGateClient20discover_or_fallback
FN:283,_RNvMs0_NtNtCs7YQQ0vypdx3_16rhizo_crypt_core7clients8nestgateNtB5_14NestGateClient3new
FN:309,_RNvMs0_NtNtCs7YQQ0vypdx3_16rhizo_crypt_core7clients8nestgateNtB5_14NestGateClient5state
FN:433,_RNvMs0_NtNtCs7YQQ0vypdx3_16rhizo_crypt_core7clients8nestgateNtB5_14NestGateClient5store
FN:585,_RNvMs0_NtNtCs7YQQ0vypdx3_16rhizo_crypt_core7clients8nestgateNtB5_14NestGateClient6delete
FN:537,_RNvMs0_NtNtCs7YQQ0vypdx3_16rhizo_crypt_core7clients8nestgateNtB5_14NestGateClient6exists
FN:332,_RNvMs0_NtNtCs7YQQ0vypdx3_16rhizo_crypt_core7clients8nestgateNtB5_14NestGateClient7connect
FN:637,_RNvMs0_NtNtCs7YQQ0vypdx3_16rhizo_crypt_core7clients8nestgateNtB5_14NestGateClient8endpoint
FN:515,_RNvMs0_NtNtCs7YQQ0vypdx3_16rhizo_crypt_core7clients8nestgateNtB5_14NestGateClient8retrieve
FN:69,_RNvXNtNtCs7YQQ0vypdx3_16rhizo_crypt_core7clients8nestgateNtB2_14NestGateConfigNtNtCs9sjCchOt1K7_4core7default7Default7default
FN:113,_RINvMs_NtNtCs7YQQ0vypdx3_16rhizo_crypt_core7clients8nestgateNtB5_14NestGateConfig13with_fallbackReEB9_
FN:410,_RNCNCNCNvMs0_NtNtCs7YQQ0vypdx3_16rhizo_crypt_core7clients8nestgateNtBb_14NestGateClient20discover_or_fallback0s_00Bf_
FN:404,_RNCNCNvMs0_NtNtCs7YQQ0vypdx3_16rhizo_crypt_core7clients8nestgateNtB9_14NestGateClient20discover_or_fallback00Bd_
FN:409,_RNCNCNvMs0_NtNtCs7YQQ0vypdx3_16rhizo_crypt_core7clients8nestgateNtB9_14NestGateClient20discover_or_fallback0s_0Bd_
FN:632,_RNCNvMs0_NtNtCs7YQQ0vypdx3_16rhizo_crypt_core7clients8nestgateNtB7_14NestGateClient10cache_size0Bb_
FN:627,_RNCNvMs0_NtNtCs7YQQ0vypdx3_16rhizo_crypt_core7clients8nestgateNtB7_14NestGateClient11clear_cache0Bb_
FN:314,_RNCNvMs0_NtNtCs7YQQ0vypdx3_16rhizo_crypt_core7clients8nestgateNtB7_14NestGateClient12is_connected0Bb_
FN:390,_RNCNvMs0_NtNtCs7YQQ0vypdx3_16rhizo_crypt_core7clients8nestgateNtB7_14NestGateClient20discover_or_fallback0Bb_
FN:309,_RNCNvMs0_NtNtCs7YQQ0vypdx3_16rhizo_crypt_core7clients8nestgateNtB7_14NestGateClient5state0Bb_
FN:433,_RNCNvMs0_NtNtCs7YQQ0vypdx3_16rhizo_crypt_core7clients8nestgateNtB7_14NestGateClient5store0Bb_
FN:585,_RNCNvMs0_NtNtCs7YQQ0vypdx3_16rhizo_crypt_core7clients8nestgateNtB7_14NestGateClient6delete0Bb_
FN:537,_RNCNvMs0_NtNtCs7YQQ0vypdx3_16rhizo_crypt_core7clients8nestgateNtB7_14NestGateClient6exists0Bb_
FN:332,_RNCNvMs0_NtNtCs7YQQ0vypdx3_16rhizo_crypt_core7clients8nestgateNtB7_14NestGateClient7connect0Bb_
FN:637,_RNCNvMs0_NtNtCs7YQQ0vypdx3_16rhizo_crypt_core7clients8nestgateNtB7_14NestGateClient8endpoint0Bb_
FN:515,_RNCNvMs0_NtNtCs7YQQ0vypdx3_16rhizo_crypt_core7clients8nestgateNtB7_14NestGateClient8retrieve0Bb_
FN:648,_RNvNtNtNtCs7YQQ0vypdx3_16rhizo_crypt_core7clients8nestgate5testss_19test_config_default
FN:662,_RNvNtNtNtCs7YQQ0vypdx3_16rhizo_crypt_core7clients8nestgate5testss_20test_client_creation
FN:749,_RNvNtNtNtCs7YQQ0vypdx3_16rhizo_crypt_core7clients8nestgate5testss_21test_cache_operations
FN:853,_RNvNtNtNtCs7YQQ0vypdx3_16rhizo_crypt_core7clients8nestgate5testss_22test_endpoint_tracking
FN:727,_RNvNtNtNtCs7YQQ0vypdx3_16rhizo_crypt_core7clients8nestgate5testss_22test_payload_too_large
FN:675,_RNvNtNtNtCs7YQQ0vypdx3_16rhizo_crypt_core7clients8nestgate5testss_25test_client_initial_state
FN:656,_RNvNtNtNtCs7YQQ0vypdx3_16rhizo_crypt_core7clients8nestgate5testss_25test_config_with_fallback
FN:668,_RNvNtNtNtCs7YQQ0vypdx3_16rhizo_crypt_core7clients8nestgate5testss_26test_client_with_discovery
FN:837,_RNvNtNtNtCs7YQQ0vypdx3_16rhizo_crypt_core7clients8nestgate5testss_27test_store_with_compression
FN:696,_RNvNtNtNtCs7YQQ0vypdx3_16rhizo_crypt_core7clients8nestgate5testss_29test_discovery_fallback_error
FN:859,_RNvNtNtNtCs7YQQ0vypdx3_16rhizo_crypt_core7clients8nestgate5testss_29test_store_request_validation
FN:682,_RNvNtNtNtCs7YQQ0vypdx3_16rhizo_crypt_core7clients8nestgate5testss_29test_store_without_connection
FN:819,_RNvNtNtNtCs7YQQ0vypdx3_16rhizo_crypt_core7clients8nestgate5testss_30test_delete_without_connection
FN:801,_RNvNtNtNtCs7YQQ0vypdx3_16rhizo_crypt_core7clients8nestgate5testss_30test_exists_without_connection
FN:874,_RNvNtNtNtCs7YQQ0vypdx3_16rhizo_crypt_core7clients8nestgate5testss_31test_payload_metadata_structure
FN:703,_RNvNtNtNtCs7YQQ0vypdx3_16rhizo_crypt_core7clients8nestgate5testss_31test_store_with_mock_connection
FN:827,_RNvNtNtNtCs7YQQ0vypdx3_16rhizo_crypt_core7clients8nestgate5testss_32test_delete_with_mock_connection
FN:809,_RNvNtNtNtCs7YQQ0vypdx3_16rhizo_crypt_core7clients8nestgate5testss_32test_exists_with_mock_connection
FN:770,_RNvNtNtNtCs7YQQ0vypdx3_16rhizo_crypt_core7clients8nestgate5testss_32test_retrieve_without_connection
FN:778,_RNvNtNtNtCs7YQQ0vypdx3_16rhizo_crypt_core7clients8nestgate5testss_33test_retrieve_pending_integration
FNDA:0,_RINvMs_NtNtCsid3wTlZBOIR_16rhizo_crypt_core7clients8nestgateNtB5_14NestGateConfig13with_fallbackpEB9_
FNDA:0,_RNCNCNCNvMs0_NtNtCsid3wTlZBOIR_16rhizo_crypt_core7clients8nestgateNtBb_14NestGateClient20discover_or_fallback0s_00Bf_
FNDA:0,_RNCNCNvMs0_NtNtCsid3wTlZBOIR_16rhizo_crypt_core7clients8nestgateNtB9_14NestGateClient20discover_or_fallback00Bd_
FNDA:0,_RNCNCNvMs0_NtNtCsid3wTlZBOIR_16rhizo_crypt_core7clients8nestgateNtB9_14NestGateClient20discover_or_fallback0s_0Bd_
FNDA:0,_RNCNvMs0_NtNtCsid3wTlZBOIR_16rhizo_crypt_core7clients8nestgateNtB7_14NestGateClient10cache_size0Bb_
FNDA:0,_RNCNvMs0_NtNtCsid3wTlZBOIR_16rhizo_crypt_core7clients8nestgateNtB7_14NestGateClient10disconnect0Bb_
FNDA:0,_RNCNvMs0_NtNtCsid3wTlZBOIR_16rhizo_crypt_core7clients8nestgateNtB7_14NestGateClient11clear_cache0Bb_
FNDA:0,_RNCNvMs0_NtNtCsid3wTlZBOIR_16rhizo_crypt_core7clients8nestgateNtB7_14NestGateClient12is_connected0Bb_
FNDA:0,_RNCNvMs0_NtNtCsid3wTlZBOIR_16rhizo_crypt_core7clients8nestgateNtB7_14NestGateClient20discover_or_fallback0Bb_
FNDA:0,_RNCNvMs0_NtNtCsid3wTlZBOIR_16rhizo_crypt_core7clients8nestgateNtB7_14NestGateClient20store_vertex_payload0Bb_
FNDA:0,_RNCNvMs0_NtNtCsid3wTlZBOIR_16rhizo_crypt_core7clients8nestgateNtB7_14NestGateClient5state0Bb_
FNDA:0,_RNCNvMs0_NtNtCsid3wTlZBOIR_16rhizo_crypt_core7clients8nestgateNtB7_14NestGateClient5store0Bb_
FNDA:0,_RNCNvMs0_NtNtCsid3wTlZBOIR_16rhizo_crypt_core7clients8nestgateNtB7_14NestGateClient6delete0Bb_
FNDA:0,_RNCNvMs0_NtNtCsid3wTlZBOIR_16rhizo_crypt_core7clients8nestgateNtB7_14NestGateClient6exists0Bb_
FNDA:0,_RNCNvMs0_NtNtCsid3wTlZBOIR_16rhizo_crypt_core7clients8nestgateNtB7_14NestGateClient7connect0Bb_
FNDA:0,_RNCNvMs0_NtNtCsid3wTlZBOIR_16rhizo_crypt_core7clients8nestgateNtB7_14NestGateClient8endpoint0Bb_
FNDA:0,_RNCNvMs0_NtNtCsid3wTlZBOIR_16rhizo_crypt_core7clients8nestgateNtB7_14NestGateClient8metadata0Bb_
FNDA:0,_RNCNvMs0_NtNtCsid3wTlZBOIR_16rhizo_crypt_core7clients8nestgateNtB7_14NestGateClient8retrieve0Bb_
FNDA:0,_RNCNvMs0_NtNtCs7YQQ0vypdx3_16rhizo_crypt_core7clients8nestgateNtB7_14NestGateClient10disconnect0Bb_
FNDA:0,_RNCNvMs0_NtNtCs7YQQ0vypdx3_16rhizo_crypt_core7clients8nestgateNtB7_14NestGateClient20store_vertex_payload0Bb_
FNDA:0,_RNCNvMs0_NtNtCs7YQQ0vypdx3_16rhizo_crypt_core7clients8nestgateNtB7_14NestGateClient8metadata0Bb_
FNDA:0,_RNvMs0_NtNtCs7YQQ0vypdx3_16rhizo_crypt_core7clients8nestgateNtB5_14NestGateClient10disconnect
FNDA:0,_RNvMs0_NtNtCs7YQQ0vypdx3_16rhizo_crypt_core7clients8nestgateNtB5_14NestGateClient20store_vertex_payload
FNDA:0,_RNvMs0_NtNtCs7YQQ0vypdx3_16rhizo_crypt_core7clients8nestgateNtB5_14NestGateClient8from_env
FNDA:0,_RNvMs0_NtNtCs7YQQ0vypdx3_16rhizo_crypt_core7clients8nestgateNtB5_14NestGateClient8metadata
FNDA:0,_RNvMs_NtNtCs7YQQ0vypdx3_16rhizo_crypt_core7clients8nestgateNtB4_14NestGateConfig8from_env
FNDA:1,_RNCNvNtNtNtCs7YQQ0vypdx3_16rhizo_crypt_core7clients8nestgate5testss_21test_cache_operations0B9_
FNDA:1,_RNCNvNtNtNtCs7YQQ0vypdx3_16rhizo_crypt_core7clients8nestgate5testss_22test_endpoint_tracking0B9_
FNDA:1,_RNCNvNtNtNtCs7YQQ0vypdx3_16rhizo_crypt_core7clients8nestgate5testss_22test_payload_too_large0B9_
FNDA:1,_RNCNvNtNtNtCs7YQQ0vypdx3_16rhizo_crypt_core7clients8nestgate5testss_25test_client_initial_state0B9_
FNDA:1,_RNCNvNtNtNtCs7YQQ0vypdx3_16rhizo_crypt_core7clients8nestgate5testss_27test_store_with_compression0B9_
FNDA:1,_RNCNvNtNtNtCs7YQQ0vypdx3_16rhizo_crypt_core7clients8nestgate5testss_29test_discovery_fallback_error0B9_
FNDA:1,_RNCNvNtNtNtCs7YQQ0vypdx3_16rhizo_crypt_core7clients8nestgate5testss_29test_store_without_connection0B9_
FNDA:1,_RNCNvNtNtNtCs7YQQ0vypdx3_16rhizo_crypt_core7clients8nestgate5testss_30test_delete_without_connection0B9_
FNDA:1,_RNCNvNtNtNtCs7YQQ0vypdx3_16rhizo_crypt_core7clients8nestgate5testss_30test_exists_without_connection0B9_
FNDA:1,_RNCNvNtNtNtCs7YQQ0vypdx3_16rhizo_crypt_core7clients8nestgate5testss_31test_store_with_mock_connection0B9_
FNDA:1,_RNCNvNtNtNtCs7YQQ0vypdx3_16rhizo_crypt_core7clients8nestgate5testss_32test_delete_with_mock_connection0B9_
FNDA:1,_RNCNvNtNtNtCs7YQQ0vypdx3_16rhizo_crypt_core7clients8nestgate5testss_32test_exists_with_mock_connection0B9_
FNDA:1,_RNCNvNtNtNtCs7YQQ0vypdx3_16rhizo_crypt_core7clients8nestgate5testss_32test_retrieve_without_connection0B9_
FNDA:1,_RNCNvNtNtNtCs7YQQ0vypdx3_16rhizo_crypt_core7clients8nestgate5testss_33test_retrieve_pending_integration0B9_
FNDA:3,_RNvMs0_NtNtCs7YQQ0vypdx3_16rhizo_crypt_core7clients8nestgateNtB5_14NestGateClient10cache_size
FNDA:1,_RNvMs0_NtNtCs7YQQ0vypdx3_16rhizo_crypt_core7clients8nestgateNtB5_14NestGateClient11clear_cache
FNDA:14,_RNvMs0_NtNtCs7YQQ0vypdx3_16rhizo_crypt_core7clients8nestgateNtB5_14NestGateClient12is_connected
FNDA:13,_RNvMs0_NtNtCs7YQQ0vypdx3_16rhizo_crypt_core7clients8nestgateNtB5_14NestGateClient13with_defaults
FNDA:1,_RNvMs0_NtNtCs7YQQ0vypdx3_16rhizo_crypt_core7clients8nestgateNtB5_14NestGateClient14with_discovery
FNDA:1,_RNvMs0_NtNtCs7YQQ0vypdx3_16rhizo_crypt_core7clients8nestgateNtB5_14NestGateClient20discover_or_fallback
FNDA:15,_RNvMs0_NtNtCs7YQQ0vypdx3_16rhizo_crypt_core7clients8nestgateNtB5_14NestGateClient3new
FNDA:1,_RNvMs0_NtNtCs7YQQ0vypdx3_16rhizo_crypt_core7clients8nestgateNtB5_14NestGateClient5state
FNDA:6,_RNvMs0_NtNtCs7YQQ0vypdx3_16rhizo_crypt_core7clients8nestgateNtB5_14NestGateClient5store
FNDA:2,_RNvMs0_NtNtCs7YQQ0vypdx3_16rhizo_crypt_core7clients8nestgateNtB5_14NestGateClient6delete
FNDA:2,_RNvMs0_NtNtCs7YQQ0vypdx3_16rhizo_crypt_core7clients8nestgateNtB5_14NestGateClient6exists
FNDA:1,_RNvMs0_NtNtCs7YQQ0vypdx3_16rhizo_crypt_core7clients8nestgateNtB5_14NestGateClient7connect
FNDA:1,_RNvMs0_NtNtCs7YQQ0vypdx3_16rhizo_crypt_core7clients8nestgateNtB5_14NestGateClient8endpoint
FNDA:2,_RNvMs0_NtNtCs7YQQ0vypdx3_16rhizo_crypt_core7clients8nestgateNtB5_14NestGateClient8retrieve
FNDA:18,_RNvXNtNtCs7YQQ0vypdx3_16rhizo_crypt_core7clients8nestgateNtB2_14NestGateConfigNtNtCs9sjCchOt1K7_4core7default7Default7default
FNDA:1,_RINvMs_NtNtCs7YQQ0vypdx3_16rhizo_crypt_core7clients8nestgateNtB5_14NestGateConfig13with_fallbackReEB9_
FNDA:0,_RNCNCNCNvMs0_NtNtCs7YQQ0vypdx3_16rhizo_crypt_core7clients8nestgateNtBb_14NestGateClient20discover_or_fallback0s_00Bf_
FNDA:1,_RNCNCNvMs0_NtNtCs7YQQ0vypdx3_16rhizo_crypt_core7clients8nestgateNtB9_14NestGateClient20discover_or_fallback00Bd_
FNDA:0,_RNCNCNvMs0_NtNtCs7YQQ0vypdx3_16rhizo_crypt_core7clients8nestgateNtB9_14NestGateClient20discover_or_fallback0s_0Bd_
FNDA:3,_RNCNvMs0_NtNtCs7YQQ0vypdx3_16rhizo_crypt_core7clients8nestgateNtB7_14NestGateClient10cache_size0Bb_
FNDA:1,_RNCNvMs0_NtNtCs7YQQ0vypdx3_16rhizo_crypt_core7clients8nestgateNtB7_14NestGateClient11clear_cache0Bb_
FNDA:14,_RNCNvMs0_NtNtCs7YQQ0vypdx3_16rhizo_crypt_core7clients8nestgateNtB7_14NestGateClient12is_connected0Bb_
FNDA:1,_RNCNvMs0_NtNtCs7YQQ0vypdx3_16rhizo_crypt_core7clients8nestgateNtB7_14NestGateClient20discover_or_fallback0Bb_
FNDA:1,_RNCNvMs0_NtNtCs7YQQ0vypdx3_16rhizo_crypt_core7clients8nestgateNtB7_14NestGateClient5state0Bb_
FNDA:6,_RNCNvMs0_NtNtCs7YQQ0vypdx3_16rhizo_crypt_core7clients8nestgateNtB7_14NestGateClient5store0Bb_
FNDA:2,_RNCNvMs0_NtNtCs7YQQ0vypdx3_16rhizo_crypt_core7clients8nestgateNtB7_14NestGateClient6delete0Bb_
FNDA:2,_RNCNvMs0_NtNtCs7YQQ0vypdx3_16rhizo_crypt_core7clients8nestgateNtB7_14NestGateClient6exists0Bb_
FNDA:1,_RNCNvMs0_NtNtCs7YQQ0vypdx3_16rhizo_crypt_core7clients8nestgateNtB7_14NestGateClient7connect0Bb_
FNDA:1,_RNCNvMs0_NtNtCs7YQQ0vypdx3_16rhizo_crypt_core7clients8nestgateNtB7_14NestGateClient8endpoint0Bb_
FNDA:2,_RNCNvMs0_NtNtCs7YQQ0vypdx3_16rhizo_crypt_core7clients8nestgateNtB7_14NestGateClient8retrieve0Bb_
FNDA:1,_RNvNtNtNtCs7YQQ0vypdx3_16rhizo_crypt_core7clients8nestgate5testss_19test_config_default
FNDA:1,_RNvNtNtNtCs7YQQ0vypdx3_16rhizo_crypt_core7clients8nestgate5testss_20test_client_creation
FNDA:1,_RNvNtNtNtCs7YQQ0vypdx3_16rhizo_crypt_core7clients8nestgate5testss_21test_cache_operations
FNDA:1,_RNvNtNtNtCs7YQQ0vypdx3_16rhizo_crypt_core7clients8nestgate5testss_22test_endpoint_tracking
FNDA:1,_RNvNtNtNtCs7YQQ0vypdx3_16rhizo_crypt_core7clients8nestgate5testss_22test_payload_too_large
FNDA:1,_RNvNtNtNtCs7YQQ0vypdx3_16rhizo_crypt_core7clients8nestgate5testss_25test_client_initial_state
FNDA:1,_RNvNtNtNtCs7YQQ0vypdx3_16rhizo_crypt_core7clients8nestgate5testss_25test_config_with_fallback
FNDA:1,_RNvNtNtNtCs7YQQ0vypdx3_16rhizo_crypt_core7clients8nestgate5testss_26test_client_with_discovery
FNDA:1,_RNvNtNtNtCs7YQQ0vypdx3_16rhizo_crypt_core7clients8nestgate5testss_27test_store_with_compression
FNDA:1,_RNvNtNtNtCs7YQQ0vypdx3_16rhizo_crypt_core7clients8nestgate5testss_29test_discovery_fallback_error
FNDA:1,_RNvNtNtNtCs7YQQ0vypdx3_16rhizo_crypt_core7clients8nestgate5testss_29test_store_request_validation
FNDA:1,_RNvNtNtNtCs7YQQ0vypdx3_16rhizo_crypt_core7clients8nestgate5testss_29test_store_without_connection
FNDA:1,_RNvNtNtNtCs7YQQ0vypdx3_16rhizo_crypt_core7clients8nestgate5testss_30test_delete_without_connection
FNDA:1,_RNvNtNtNtCs7YQQ0vypdx3_16rhizo_crypt_core7clients8nestgate5testss_30test_exists_without_connection
FNDA:1,_RNvNtNtNtCs7YQQ0vypdx3_16rhizo_crypt_core7clients8nestgate5testss_31test_payload_metadata_structure
FNDA:1,_RNvNtNtNtCs7YQQ0vypdx3_16rhizo_crypt_core7clients8nestgate5testss_31test_store_with_mock_connection
FNDA:1,_RNvNtNtNtCs7YQQ0vypdx3_16rhizo_crypt_core7clients8nestgate5testss_32test_delete_with_mock_connection
FNDA:1,_RNvNtNtNtCs7YQQ0vypdx3_16rhizo_crypt_core7clients8nestgate5testss_32test_exists_with_mock_connection
FNDA:1,_RNvNtNtNtCs7YQQ0vypdx3_16rhizo_crypt_core7clients8nestgate5testss_32test_retrieve_without_connection
FNDA:1,_RNvNtNtNtCs7YQQ0vypdx3_16rhizo_crypt_core7clients8nestgate5testss_33test_retrieve_pending_integration
FNF:72
FNH:62
DA:69,18
DA:70,18
DA:71,18
DA:72,18
DA:73,18
DA:74,18
DA:75,18
DA:76,18
DA:77,18
DA:78,18
DA:89,0
DA:90,0
DA:92,0
DA:93,0
DA:94,0
DA:96,0
DA:97,0
DA:98,0
DA:99,0
DA:100,0
DA:102,0
DA:103,0
DA:104,0
DA:105,0
DA:106,0
DA:108,0
DA:109,0
DA:113,1
DA:114,1
DA:115,1
DA:116,1
DA:117,1
DA:118,1
DA:267,1
DA:268,1
DA:269,1
DA:270,1
DA:271,1
DA:272,1
DA:273,1
DA:274,1
DA:275,1
DA:276,1
DA:277,1
DA:278,1
DA:279,1
DA:283,15
DA:284,15
DA:285,15
DA:286,15
DA:287,15
DA:288,15
DA:289,15
DA:290,15
DA:291,15
DA:292,15
DA:293,15
DA:294,15
DA:298,13
DA:299,13
DA:300,13
DA:304,0
DA:305,0
DA:306,0
DA:309,1
DA:310,1
DA:311,1
DA:314,14
DA:315,14
DA:316,14
DA:332,1
DA:333,1
DA:334,0
DA:335,1
DA:336,1
DA:337,1
DA:340,1
DA:342,0
DA:345,0
DA:346,0
DA:347,0
DA:348,0
DA:349,0
DA:351,0
DA:352,0
DA:353,0
DA:371,0
DA:373,0
DA:374,0
DA:376,0
DA:377,0
DA:378,0
DA:379,0
DA:382,0
DA:383,0
DA:384,0
DA:387,1
DA:390,1
DA:392,1
DA:393,0
DA:394,0
DA:395,0
DA:396,0
DA:397,0
DA:398,1
DA:401,1
DA:402,1
DA:403,1
DA:404,1
DA:405,1
DA:406,1
DA:407,1
DA:408,1
DA:409,1
DA:410,0
DA:411,0
DA:412,0
DA:413,1
DA:414,1
DA:417,0
DA:418,0
DA:419,0
DA:420,0
DA:421,0
DA:433,6
DA:434,6
DA:435,1
DA:436,5
DA:437,5
DA:438,5
DA:439,1
DA:440,1
DA:441,1
DA:442,1
DA:443,1
DA:444,4
DA:445,4
DA:446,4
DA:447,0
DA:448,0
DA:449,0
DA:453,4
DA:454,4
DA:455,4
DA:456,4
DA:457,4
DA:458,4
DA:459,4
DA:460,4
DA:461,4
DA:462,4
DA:463,4
DA:464,4
DA:465,4
DA:466,4
DA:467,4
DA:468,4
DA:469,4
DA:470,4
DA:471,4
DA:472,4
DA:473,4
DA:474,4
DA:475,4
DA:476,4
DA:477,4
DA:478,4
DA:479,4
DA:480,4
DA:481,4
DA:482,4
DA:483,4
DA:484,4
DA:485,4
DA:486,4
DA:487,4
DA:488,4
DA:489,4
DA:490,4
DA:491,4
DA:492,4
DA:493,4
DA:494,4
DA:495,4
DA:496,4
DA:497,4
DA:498,4
DA:499,4
DA:500,4
DA:501,4
DA:502,4
DA:503,4
DA:504,4
DA:505,6
DA:515,2
DA:516,2
DA:517,1
DA:518,1
DA:519,1
DA:520,1
DA:526,1
DA:527,1
DA:528,1
DA:529,2
DA:537,2
DA:538,2
DA:539,1
DA:540,1
DA:541,1
DA:542,1
DA:543,1
DA:544,0
DA:545,1
DA:546,1
DA:547,1
DA:548,1
DA:549,1
DA:550,1
DA:551,1
DA:552,2
DA:561,0
DA:562,0
DA:563,0
DA:564,0
DA:567,0
DA:568,0
DA:569,0
DA:570,0
DA:571,0
DA:572,0
DA:573,0
DA:574,0
DA:575,0
DA:576,0
DA:585,2
DA:586,2
DA:587,1
DA:588,1
DA:589,1
DA:590,1
DA:593,1
DA:594,1
DA:595,1
DA:596,1
DA:597,1
DA:598,1
DA:599,1
DA:600,2
DA:612,0
DA:613,0
DA:614,0
DA:615,0
DA:616,0
DA:617,0
DA:618,0
DA:619,0
DA:620,0
DA:621,0
DA:622,0
DA:623,0
DA:624,0
DA:627,1
DA:628,1
DA:629,1
DA:632,3
DA:633,3
DA:634,3
DA:637,1
DA:638,1
DA:639,1
DA:648,1
DA:649,1
DA:650,1
DA:651,1
DA:652,1
DA:653,1
DA:656,1
DA:657,1
DA:658,1
DA:659,1
DA:662,1
DA:663,1
DA:664,1
DA:665,1
DA:668,1
DA:669,1
DA:670,1
DA:671,1
DA:672,1
DA:675,1
DA:676,1
DA:677,1
DA:678,1
DA:679,1
DA:682,1
DA:683,1
DA:684,1
DA:685,1
DA:686,1
DA:687,1
DA:688,1
DA:689,1
DA:690,1
DA:691,1
DA:692,1
DA:693,1
DA:696,1
DA:697,1
DA:698,1
DA:699,1
DA:700,1
DA:703,1
DA:704,1
DA:705,1
DA:706,1
DA:707,1
DA:708,1
DA:709,1
DA:710,1
DA:711,1
DA:712,1
DA:713,1
DA:714,1
DA:715,1
DA:716,1
DA:717,1
DA:718,1
DA:719,1
DA:720,1
DA:721,1
DA:722,1
DA:723,1
DA:724,1
DA:727,1
DA:728,1
DA:729,1
DA:730,1
DA:731,1
DA:732,1
DA:733,1
DA:734,1
DA:735,1
DA:736,1
DA:737,1
DA:738,1
DA:739,1
DA:740,1
DA:741,1
DA:742,1
DA:743,1
DA:744,1
DA:745,1
DA:746,1
DA:749,1
DA:750,1
DA:751,1
DA:752,1
DA:753,1
DA:754,1
DA:755,1
DA:756,1
DA:757,1
DA:758,1
DA:759,1
DA:760,1
DA:761,1
DA:762,1
DA:763,1
DA:764,1
DA:765,1
DA:766,1
DA:767,1
DA:770,1
DA:771,1
DA:772,1
DA:773,1
DA:774,1
DA:775,1
DA:778,1
DA:779,1
DA:780,1
DA:781,1
DA:782,1
DA:783,1
DA:784,1
DA:785,1
DA:786,1
DA:787,1
DA:788,1
DA:789,1
DA:790,1
DA:791,1
DA:792,1
DA:793,1
DA:794,1
DA:795,1
DA:796,1
DA:797,1
DA:798,1
DA:801,1
DA:802,1
DA:803,1
DA:804,1
DA:805,1
DA:806,1
DA:809,1
DA:810,1
DA:811,1
DA:812,1
DA:813,1
DA:814,1
DA:815,1
DA:816,1
DA:819,1
DA:820,1
DA:821,1
DA:822,1
DA:823,1
DA:824,1
DA:827,1
DA:828,1
DA:829,1
DA:830,1
DA:831,1
DA:832,1
DA:833,1
DA:834,1
DA:837,1
DA:838,1
DA:839,1
DA:840,1
DA:841,1
DA:842,1
DA:843,1
DA:844,1
DA:845,1
DA:846,1
DA:847,1
DA:848,1
DA:849,1
DA:850,1
DA:853,1
DA:854,1
DA:855,1
DA:856,1
DA:859,1
DA:860,1
DA:861,1
DA:862,1
DA:863,1
DA:864,1
DA:865,1
DA:866,1
DA:867,1
DA:868,1
DA:869,1
DA:870,1
DA:871,1
DA:874,1
DA:875,1
DA:876,1
DA:877,1
DA:878,1
DA:879,1
DA:880,1
DA:881,1
DA:882,1
DA:883,1
DA:884,1
DA:885,1
DA:886,1
DA:887,1
DA:888,1
BRF:0
BRH:0
LF:618
LH:527
end_of_record
SF:/home/strandgate/Development/ecoPrimals/phase2/rhizoCrypt/crates/rhizo-crypt-core/src/clients/songbird.rs
FN:138,_RNCNvMs0_NtNtCsid3wTlZBOIR_16rhizo_crypt_core7clients8songbirdNtB7_14SongbirdConfig8from_env0Bb_
FN:201,_RNCNvMs1_NtNtCsid3wTlZBOIR_16rhizo_crypt_core7clients8songbirdNtB7_11ServiceInfo14has_capability0Bb_
FN:167,_RINvMs0_NtNtCsid3wTlZBOIR_16rhizo_crypt_core7clients8songbirdNtB6_14SongbirdConfig12with_addresspEBa_
FN:606,_RNCNCNvMs2_NtNtCsid3wTlZBOIR_16rhizo_crypt_core7clients8songbirdNtB9_14SongbirdClient16discover_beardog00Bd_
FN:630,_RNCNCNvMs2_NtNtCsid3wTlZBOIR_16rhizo_crypt_core7clients8songbirdNtB9_14SongbirdClient17discover_nestgate00Bd_
FN:618,_RNCNCNvMs2_NtNtCsid3wTlZBOIR_16rhizo_crypt_core7clients8songbirdNtB9_14SongbirdClient18discover_loamspine00Bd_
FN:357,_RNCNCNvMs2_NtNtCsid3wTlZBOIR_16rhizo_crypt_core7clients8songbirdNtB9_14SongbirdClient7connect00Bd_
FN:740,_RNCNvMs2_NtNtCsid3wTlZBOIR_16rhizo_crypt_core7clients8songbirdNtB7_14SongbirdClient10disconnect0Bb_
FN:750,_RNCNvMs2_NtNtCsid3wTlZBOIR_16rhizo_crypt_core7clients8songbirdNtB7_14SongbirdClient10service_id0Bb_
FN:722,_RNCNvMs2_NtNtCsid3wTlZBOIR_16rhizo_crypt_core7clients8songbirdNtB7_14SongbirdClient10unregister0Bb_
FN:760,_RNCNvMs2_NtNtCsid3wTlZBOIR_16rhizo_crypt_core7clients8songbirdNtB7_14SongbirdClient11clear_cache0Bb_
FN:422,_RNCNvMs2_NtNtCsid3wTlZBOIR_16rhizo_crypt_core7clients8songbirdNtB7_14SongbirdClient11try_connect0Bb_
FN:324,_RNCNvMs2_NtNtCsid3wTlZBOIR_16rhizo_crypt_core7clients8songbirdNtB7_14SongbirdClient12is_connected0Bb_
FN:755,_RNCNvMs2_NtNtCsid3wTlZBOIR_16rhizo_crypt_core7clients8songbirdNtB7_14SongbirdClient15cache_discovery0Bb_
FN:604,_RNCNvMs2_NtNtCsid3wTlZBOIR_16rhizo_crypt_core7clients8songbirdNtB7_14SongbirdClient16discover_beardog0Bb_
FN:628,_RNCNvMs2_NtNtCsid3wTlZBOIR_16rhizo_crypt_core7clients8songbirdNtB7_14SongbirdClient17discover_nestgate0Bb_
FN:700,_RNCNvMs2_NtNtCsid3wTlZBOIR_16rhizo_crypt_core7clients8songbirdNtB7_14SongbirdClient17federation_status0Bb_
FN:642,_RNCNvMs2_NtNtCsid3wTlZBOIR_16rhizo_crypt_core7clients8songbirdNtB7_14SongbirdClient17populate_registry0Bb_
FN:616,_RNCNvMs2_NtNtCsid3wTlZBOIR_16rhizo_crypt_core7clients8songbirdNtB7_14SongbirdClient18discover_loamspine0Bb_
FN:319,_RNCNvMs2_NtNtCsid3wTlZBOIR_16rhizo_crypt_core7clients8songbirdNtB7_14SongbirdClient5state0Bb_
FN:337,_RNCNvMs2_NtNtCsid3wTlZBOIR_16rhizo_crypt_core7clients8songbirdNtB7_14SongbirdClient7connect0Bb_
FN:545,_RNCNvMs2_NtNtCsid3wTlZBOIR_16rhizo_crypt_core7clients8songbirdNtB7_14SongbirdClient8discover0Bb_
FN:765,_RNCNvMs2_NtNtCsid3wTlZBOIR_16rhizo_crypt_core7clients8songbirdNtB7_14SongbirdClient8endpoint0Bb_
FN:465,_RNCNvMs2_NtNtCsid3wTlZBOIR_16rhizo_crypt_core7clients8songbirdNtB7_14SongbirdClient8register0Bb_
FN:124,_RNvMs0_NtNtCsid3wTlZBOIR_16rhizo_crypt_core7clients8songbirdNtB5_14SongbirdConfig8from_env
FN:200,_RNvMs1_NtNtCsid3wTlZBOIR_16rhizo_crypt_core7clients8songbirdNtB5_11ServiceInfo14has_capability
FN:740,_RNvMs2_NtNtCsid3wTlZBOIR_16rhizo_crypt_core7clients8songbirdNtB5_14SongbirdClient10disconnect
FN:750,_RNvMs2_NtNtCsid3wTlZBOIR_16rhizo_crypt_core7clients8songbirdNtB5_14SongbirdClient10service_id
FN:722,_RNvMs2_NtNtCsid3wTlZBOIR_16rhizo_crypt_core7clients8songbirdNtB5_14SongbirdClient10unregister
FN:760,_RNvMs2_NtNtCsid3wTlZBOIR_16rhizo_crypt_core7clients8songbirdNtB5_14SongbirdClient11clear_cache
FN:422,_RNvMs2_NtNtCsid3wTlZBOIR_16rhizo_crypt_core7clients8songbirdNtB5_14SongbirdClient11try_connect
FN:324,_RNvMs2_NtNtCsid3wTlZBOIR_16rhizo_crypt_core7clients8songbirdNtB5_14SongbirdClient12is_connected
FN:308,_RNvMs2_NtNtCsid3wTlZBOIR_16rhizo_crypt_core7clients8songbirdNtB5_14SongbirdClient13with_defaults
FN:755,_RNvMs2_NtNtCsid3wTlZBOIR_16rhizo_crypt_core7clients8songbirdNtB5_14SongbirdClient15cache_discovery
FN:604,_RNvMs2_NtNtCsid3wTlZBOIR_16rhizo_crypt_core7clients8songbirdNtB5_14SongbirdClient16discover_beardog
FN:628,_RNvMs2_NtNtCsid3wTlZBOIR_16rhizo_crypt_core7clients8songbirdNtB5_14SongbirdClient17discover_nestgate
FN:700,_RNvMs2_NtNtCsid3wTlZBOIR_16rhizo_crypt_core7clients8songbirdNtB5_14SongbirdClient17federation_status
FN:642,_RNvMs2_NtNtCsid3wTlZBOIR_16rhizo_crypt_core7clients8songbirdNtB5_14SongbirdClient17populate_registry
FN:616,_RNvMs2_NtNtCsid3wTlZBOIR_16rhizo_crypt_core7clients8songbirdNtB5_14SongbirdClient18discover_loamspine
FN:291,_RNvMs2_NtNtCsid3wTlZBOIR_16rhizo_crypt_core7clients8songbirdNtB5_14SongbirdClient3new
FN:319,_RNvMs2_NtNtCsid3wTlZBOIR_16rhizo_crypt_core7clients8songbirdNtB5_14SongbirdClient5state
FN:337,_RNvMs2_NtNtCsid3wTlZBOIR_16rhizo_crypt_core7clients8songbirdNtB5_14SongbirdClient7connect
FN:545,_RNvMs2_NtNtCsid3wTlZBOIR_16rhizo_crypt_core7clients8songbirdNtB5_14SongbirdClient8discover
FN:765,_RNvMs2_NtNtCsid3wTlZBOIR_16rhizo_crypt_core7clients8songbirdNtB5_14SongbirdClient8endpoint
FN:314,_RNvMs2_NtNtCsid3wTlZBOIR_16rhizo_crypt_core7clients8songbirdNtB5_14SongbirdClient8from_env
FN:465,_RNvMs2_NtNtCsid3wTlZBOIR_16rhizo_crypt_core7clients8songbirdNtB5_14SongbirdClient8register
FN:106,_RNvMs_NtNtCsid3wTlZBOIR_16rhizo_crypt_core7clients8songbirdNtB4_14SongbirdConfig13is_configured
FN:87,_RNvMs_NtNtCsid3wTlZBOIR_16rhizo_crypt_core7clients8songbirdNtB4_14SongbirdConfig3new
FN:74,_RNvXNtNtCsid3wTlZBOIR_16rhizo_crypt_core7clients8songbirdNtB2_14SongbirdConfigNtNtCs9sjCchOt1K7_4core7default7Default7default
FN:138,_RNCNvMs0_NtNtCs7YQQ0vypdx3_16rhizo_crypt_core7clients8songbirdNtB7_14SongbirdConfig8from_env0Bb_
FN:740,_RNCNvMs2_NtNtCs7YQQ0vypdx3_16rhizo_crypt_core7clients8songbirdNtB7_14SongbirdClient10disconnect0Bb_
FN:750,_RNCNvMs2_NtNtCs7YQQ0vypdx3_16rhizo_crypt_core7clients8songbirdNtB7_14SongbirdClient10service_id0Bb_
FN:722,_RNCNvMs2_NtNtCs7YQQ0vypdx3_16rhizo_crypt_core7clients8songbirdNtB7_14SongbirdClient10unregister0Bb_
FN:700,_RNCNvMs2_NtNtCs7YQQ0vypdx3_16rhizo_crypt_core7clients8songbirdNtB7_14SongbirdClient17federation_status0Bb_
FN:765,_RNCNvMs2_NtNtCs7YQQ0vypdx3_16rhizo_crypt_core7clients8songbirdNtB7_14SongbirdClient8endpoint0Bb_
FN:124,_RNvMs0_NtNtCs7YQQ0vypdx3_16rhizo_crypt_core7clients8songbirdNtB5_14SongbirdConfig8from_env
FN:740,_RNvMs2_NtNtCs7YQQ0vypdx3_16rhizo_crypt_core7clients8songbirdNtB5_14SongbirdClient10disconnect
FN:750,_RNvMs2_NtNtCs7YQQ0vypdx3_16rhizo_crypt_core7clients8songbirdNtB5_14SongbirdClient10service_id
FN:722,_RNvMs2_NtNtCs7YQQ0vypdx3_16rhizo_crypt_core7clients8songbirdNtB5_14SongbirdClient10unregister
FN:308,_RNvMs2_NtNtCs7YQQ0vypdx3_16rhizo_crypt_core7clients8songbirdNtB5_14SongbirdClient13with_defaults
FN:700,_RNvMs2_NtNtCs7YQQ0vypdx3_16rhizo_crypt_core7clients8songbirdNtB5_14SongbirdClient17federation_status
FN:765,_RNvMs2_NtNtCs7YQQ0vypdx3_16rhizo_crypt_core7clients8songbirdNtB5_14SongbirdClient8endpoint
FN:314,_RNvMs2_NtNtCs7YQQ0vypdx3_16rhizo_crypt_core7clients8songbirdNtB5_14SongbirdClient8from_env
FN:74,_RNvXNtNtCs7YQQ0vypdx3_16rhizo_crypt_core7clients8songbirdNtB2_14SongbirdConfigNtNtCs9sjCchOt1K7_4core7default7Default7default
FN:843,_RNCNvNtNtNtCs7YQQ0vypdx3_16rhizo_crypt_core7clients8songbird5testss_21test_cache_operations0B9_
FN:887,_RNCNvNtNtNtCs7YQQ0vypdx3_16rhizo_crypt_core7clients8songbird5testss_22test_populate_registry0B9_
FN:809,_RNCNvNtNtNtCs7YQQ0vypdx3_16rhizo_crypt_core7clients8songbird5testss_25test_client_initial_state0B9_
FN:817,_RNCNvNtNtNtCs7YQQ0vypdx3_16rhizo_crypt_core7clients8songbird5testss_32test_discover_without_connection0B9_
FN:825,_RNCNvNtNtNtCs7YQQ0vypdx3_16rhizo_crypt_core7clients8songbird5testss_32test_register_without_connection0B9_
FN:833,_RNCNvNtNtNtCs7YQQ0vypdx3_16rhizo_crypt_core7clients8songbird5testss_33test_connect_without_config_fails0B9_
FN:801,_RNvNtNtNtCs7YQQ0vypdx3_16rhizo_crypt_core7clients8songbird5testss_20test_client_creation
FN:843,_RNvNtNtNtCs7YQQ0vypdx3_16rhizo_crypt_core7clients8songbird5testss_21test_cache_operations
FN:887,_RNvNtNtNtCs7YQQ0vypdx3_16rhizo_crypt_core7clients8songbird5testss_22test_populate_registry
FN:794,_RNvNtNtNtCs7YQQ0vypdx3_16rhizo_crypt_core7clients8songbird5testss_24test_config_with_address
FN:809,_RNvNtNtNtCs7YQQ0vypdx3_16rhizo_crypt_core7clients8songbird5testss_25test_client_initial_state
FN:785,_RNvNtNtNtCs7YQQ0vypdx3_16rhizo_crypt_core7clients8songbird5testss_28test_config_new_unconfigured
FN:817,_RNvNtNtNtCs7YQQ0vypdx3_16rhizo_crypt_core7clients8songbird5testss_32test_discover_without_connection
FN:914,_RNvNtNtNtCs7YQQ0vypdx3_16rhizo_crypt_core7clients8songbird5testss_32test_from_env_respects_variables
FN:825,_RNvNtNtNtCs7YQQ0vypdx3_16rhizo_crypt_core7clients8songbird5testss_32test_register_without_connection
FN:871,_RNvNtNtNtCs7YQQ0vypdx3_16rhizo_crypt_core7clients8songbird5testss_32test_service_info_has_capability
FN:833,_RNvNtNtNtCs7YQQ0vypdx3_16rhizo_crypt_core7clients8songbird5testss_33test_connect_without_config_fails
FN:167,_RINvMs0_NtNtCs7YQQ0vypdx3_16rhizo_crypt_core7clients8songbirdNtB6_14SongbirdConfig12with_addressReEBa_
FN:606,_RNCNCNvMs2_NtNtCs7YQQ0vypdx3_16rhizo_crypt_core7clients8songbirdNtB9_14SongbirdClient16discover_beardog00Bd_
FN:630,_RNCNCNvMs2_NtNtCs7YQQ0vypdx3_16rhizo_crypt_core7clients8songbirdNtB9_14SongbirdClient17discover_nestgate00Bd_
FN:618,_RNCNCNvMs2_NtNtCs7YQQ0vypdx3_16rhizo_crypt_core7clients8songbirdNtB9_14SongbirdClient18discover_loamspine00Bd_
FN:357,_RNCNCNvMs2_NtNtCs7YQQ0vypdx3_16rhizo_crypt_core7clients8songbirdNtB9_14SongbirdClient7connect00Bd_
FN:201,_RNCNvMs1_NtNtCs7YQQ0vypdx3_16rhizo_crypt_core7clients8songbirdNtB7_11ServiceInfo14has_capability0Bb_
FN:760,_RNCNvMs2_NtNtCs7YQQ0vypdx3_16rhizo_crypt_core7clients8songbirdNtB7_14SongbirdClient11clear_cache0Bb_
FN:422,_RNCNvMs2_NtNtCs7YQQ0vypdx3_16rhizo_crypt_core7clients8songbirdNtB7_14SongbirdClient11try_connect0Bb_
FN:324,_RNCNvMs2_NtNtCs7YQQ0vypdx3_16rhizo_crypt_core7clients8songbirdNtB7_14SongbirdClient12is_connected0Bb_
FN:755,_RNCNvMs2_NtNtCs7YQQ0vypdx3_16rhizo_crypt_core7clients8songbirdNtB7_14SongbirdClient15cache_discovery0Bb_
FN:604,_RNCNvMs2_NtNtCs7YQQ0vypdx3_16rhizo_crypt_core7clients8songbirdNtB7_14SongbirdClient16discover_beardog0Bb_
FN:628,_RNCNvMs2_NtNtCs7YQQ0vypdx3_16rhizo_crypt_core7clients8songbirdNtB7_14SongbirdClient17discover_nestgate0Bb_
FN:642,_RNCNvMs2_NtNtCs7YQQ0vypdx3_16rhizo_crypt_core7clients8songbirdNtB7_14SongbirdClient17populate_registry0Bb_
FN:616,_RNCNvMs2_NtNtCs7YQQ0vypdx3_16rhizo_crypt_core7clients8songbirdNtB7_14SongbirdClient18discover_loamspine0Bb_
FN:319,_RNCNvMs2_NtNtCs7YQQ0vypdx3_16rhizo_crypt_core7clients8songbirdNtB7_14SongbirdClient5state0Bb_
FN:337,_RNCNvMs2_NtNtCs7YQQ0vypdx3_16rhizo_crypt_core7clients8songbirdNtB7_14SongbirdClient7connect0Bb_
FN:545,_RNCNvMs2_NtNtCs7YQQ0vypdx3_16rhizo_crypt_core7clients8songbirdNtB7_14SongbirdClient8discover0Bb_
FN:465,_RNCNvMs2_NtNtCs7YQQ0vypdx3_16rhizo_crypt_core7clients8songbirdNtB7_14SongbirdClient8register0Bb_
FN:200,_RNvMs1_NtNtCs7YQQ0vypdx3_16rhizo_crypt_core7clients8songbirdNtB5_11ServiceInfo14has_capability
FN:760,_RNvMs2_NtNtCs7YQQ0vypdx3_16rhizo_crypt_core7clients8songbirdNtB5_14SongbirdClient11clear_cache
FN:422,_RNvMs2_NtNtCs7YQQ0vypdx3_16rhizo_crypt_core7clients8songbirdNtB5_14SongbirdClient11try_connect
FN:324,_RNvMs2_NtNtCs7YQQ0vypdx3_16rhizo_crypt_core7clients8songbirdNtB5_14SongbirdClient12is_connected
FN:755,_RNvMs2_NtNtCs7YQQ0vypdx3_16rhizo_crypt_core7clients8songbirdNtB5_14SongbirdClient15cache_discovery
FN:604,_RNvMs2_NtNtCs7YQQ0vypdx3_16rhizo_crypt_core7clients8songbirdNtB5_14SongbirdClient16discover_beardog
FN:628,_RNvMs2_NtNtCs7YQQ0vypdx3_16rhizo_crypt_core7clients8songbirdNtB5_14SongbirdClient17discover_nestgate
FN:642,_RNvMs2_NtNtCs7YQQ0vypdx3_16rhizo_crypt_core7clients8songbirdNtB5_14SongbirdClient17populate_registry
FN:616,_RNvMs2_NtNtCs7YQQ0vypdx3_16rhizo_crypt_core7clients8songbirdNtB5_14SongbirdClient18discover_loamspine
FN:291,_RNvMs2_NtNtCs7YQQ0vypdx3_16rhizo_crypt_core7clients8songbirdNtB5_14SongbirdClient3new
FN:319,_RNvMs2_NtNtCs7YQQ0vypdx3_16rhizo_crypt_core7clients8songbirdNtB5_14SongbirdClient5state
FN:337,_RNvMs2_NtNtCs7YQQ0vypdx3_16rhizo_crypt_core7clients8songbirdNtB5_14SongbirdClient7connect
FN:545,_RNvMs2_NtNtCs7YQQ0vypdx3_16rhizo_crypt_core7clients8songbirdNtB5_14SongbirdClient8discover
FN:465,_RNvMs2_NtNtCs7YQQ0vypdx3_16rhizo_crypt_core7clients8songbirdNtB5_14SongbirdClient8register
FN:106,_RNvMs_NtNtCs7YQQ0vypdx3_16rhizo_crypt_core7clients8songbirdNtB4_14SongbirdConfig13is_configured
FN:87,_RNvMs_NtNtCs7YQQ0vypdx3_16rhizo_crypt_core7clients8songbirdNtB4_14SongbirdConfig3new
FNDA:0,_RNCNvMs0_NtNtCsid3wTlZBOIR_16rhizo_crypt_core7clients8songbirdNtB7_14SongbirdConfig8from_env0Bb_
FNDA:0,_RNCNvMs1_NtNtCsid3wTlZBOIR_16rhizo_crypt_core7clients8songbirdNtB7_11ServiceInfo14has_capability0Bb_
FNDA:0,_RINvMs0_NtNtCsid3wTlZBOIR_16rhizo_crypt_core7clients8songbirdNtB6_14SongbirdConfig12with_addresspEBa_
FNDA:0,_RNCNCNvMs2_NtNtCsid3wTlZBOIR_16rhizo_crypt_core7clients8songbirdNtB9_14SongbirdClient16discover_beardog00Bd_
FNDA:0,_RNCNCNvMs2_NtNtCsid3wTlZBOIR_16rhizo_crypt_core7clients8songbirdNtB9_14SongbirdClient17discover_nestgate00Bd_
FNDA:0,_RNCNCNvMs2_NtNtCsid3wTlZBOIR_16rhizo_crypt_core7clients8songbirdNtB9_14SongbirdClient18discover_loamspine00Bd_
FNDA:0,_RNCNCNvMs2_NtNtCsid3wTlZBOIR_16rhizo_crypt_core7clients8songbirdNtB9_14SongbirdClient7connect00Bd_
FNDA:0,_RNCNvMs2_NtNtCsid3wTlZBOIR_16rhizo_crypt_core7clients8songbirdNtB7_14SongbirdClient10disconnect0Bb_
FNDA:0,_RNCNvMs2_NtNtCsid3wTlZBOIR_16rhizo_crypt_core7clients8songbirdNtB7_14SongbirdClient10service_id0Bb_
FNDA:0,_RNCNvMs2_NtNtCsid3wTlZBOIR_16rhizo_crypt_core7clients8songbirdNtB7_14SongbirdClient10unregister0Bb_
FNDA:0,_RNCNvMs2_NtNtCsid3wTlZBOIR_16rhizo_crypt_core7clients8songbirdNtB7_14SongbirdClient11clear_cache0Bb_
FNDA:0,_RNCNvMs2_NtNtCsid3wTlZBOIR_16rhizo_crypt_core7clients8songbirdNtB7_14SongbirdClient11try_connect0Bb_
FNDA:0,_RNCNvMs2_NtNtCsid3wTlZBOIR_16rhizo_crypt_core7clients8songbirdNtB7_14SongbirdClient12is_connected0Bb_
FNDA:0,_RNCNvMs2_NtNtCsid3wTlZBOIR_16rhizo_crypt_core7clients8songbirdNtB7_14SongbirdClient15cache_discovery0Bb_
FNDA:0,_RNCNvMs2_NtNtCsid3wTlZBOIR_16rhizo_crypt_core7clients8songbirdNtB7_14SongbirdClient16discover_beardog0Bb_
FNDA:0,_RNCNvMs2_NtNtCsid3wTlZBOIR_16rhizo_crypt_core7clients8songbirdNtB7_14SongbirdClient17discover_nestgate0Bb_
FNDA:0,_RNCNvMs2_NtNtCsid3wTlZBOIR_16rhizo_crypt_core7clients8songbirdNtB7_14SongbirdClient17federation_status0Bb_
FNDA:0,_RNCNvMs2_NtNtCsid3wTlZBOIR_16rhizo_crypt_core7clients8songbirdNtB7_14SongbirdClient17populate_registry0Bb_
FNDA:0,_RNCNvMs2_NtNtCsid3wTlZBOIR_16rhizo_crypt_core7clients8songbirdNtB7_14SongbirdClient18discover_loamspine0Bb_
FNDA:0,_RNCNvMs2_NtNtCsid3wTlZBOIR_16rhizo_crypt_core7clients8songbirdNtB7_14SongbirdClient5state0Bb_
FNDA:0,_RNCNvMs2_NtNtCsid3wTlZBOIR_16rhizo_crypt_core7clients8songbirdNtB7_14SongbirdClient7connect0Bb_
FNDA:0,_RNCNvMs2_NtNtCsid3wTlZBOIR_16rhizo_crypt_core7clients8songbirdNtB7_14SongbirdClient8discover0Bb_
FNDA:0,_RNCNvMs2_NtNtCsid3wTlZBOIR_16rhizo_crypt_core7clients8songbirdNtB7_14SongbirdClient8endpoint0Bb_
FNDA:0,_RNCNvMs2_NtNtCsid3wTlZBOIR_16rhizo_crypt_core7clients8songbirdNtB7_14SongbirdClient8register0Bb_
FNDA:0,_RNvMs0_NtNtCsid3wTlZBOIR_16rhizo_crypt_core7clients8songbirdNtB5_14SongbirdConfig8from_env
FNDA:0,_RNvMs1_NtNtCsid3wTlZBOIR_16rhizo_crypt_core7clients8songbirdNtB5_11ServiceInfo14has_capability
FNDA:0,_RNvMs2_NtNtCsid3wTlZBOIR_16rhizo_crypt_core7clients8songbirdNtB5_14SongbirdClient10disconnect
FNDA:0,_RNvMs2_NtNtCsid3wTlZBOIR_16rhizo_crypt_core7clients8songbirdNtB5_14SongbirdClient10service_id
FNDA:0,_RNvMs2_NtNtCsid3wTlZBOIR_16rhizo_crypt_core7clients8songbirdNtB5_14SongbirdClient10unregister
FNDA:0,_RNvMs2_NtNtCsid3wTlZBOIR_16rhizo_crypt_core7clients8songbirdNtB5_14SongbirdClient11clear_cache
FNDA:0,_RNvMs2_NtNtCsid3wTlZBOIR_16rhizo_crypt_core7clients8songbirdNtB5_14SongbirdClient11try_connect
FNDA:0,_RNvMs2_NtNtCsid3wTlZBOIR_16rhizo_crypt_core7clients8songbirdNtB5_14SongbirdClient12is_connected
FNDA:0,_RNvMs2_NtNtCsid3wTlZBOIR_16rhizo_crypt_core7clients8songbirdNtB5_14SongbirdClient13with_defaults
FNDA:0,_RNvMs2_NtNtCsid3wTlZBOIR_16rhizo_crypt_core7clients8songbirdNtB5_14SongbirdClient15cache_discovery
FNDA:0,_RNvMs2_NtNtCsid3wTlZBOIR_16rhizo_crypt_core7clients8songbirdNtB5_14SongbirdClient16discover_beardog
FNDA:0,_RNvMs2_NtNtCsid3wTlZBOIR_16rhizo_crypt_core7clients8songbirdNtB5_14SongbirdClient17discover_nestgate
FNDA:0,_RNvMs2_NtNtCsid3wTlZBOIR_16rhizo_crypt_core7clients8songbirdNtB5_14SongbirdClient17federation_status
FNDA:0,_RNvMs2_NtNtCsid3wTlZBOIR_16rhizo_crypt_core7clients8songbirdNtB5_14SongbirdClient17populate_registry
FNDA:0,_RNvMs2_NtNtCsid3wTlZBOIR_16rhizo_crypt_core7clients8songbirdNtB5_14SongbirdClient18discover_loamspine
FNDA:0,_RNvMs2_NtNtCsid3wTlZBOIR_16rhizo_crypt_core7clients8songbirdNtB5_14SongbirdClient3new
FNDA:0,_RNvMs2_NtNtCsid3wTlZBOIR_16rhizo_crypt_core7clients8songbirdNtB5_14SongbirdClient5state
FNDA:0,_RNvMs2_NtNtCsid3wTlZBOIR_16rhizo_crypt_core7clients8songbirdNtB5_14SongbirdClient7connect
FNDA:0,_RNvMs2_NtNtCsid3wTlZBOIR_16rhizo_crypt_core7clients8songbirdNtB5_14SongbirdClient8discover
FNDA:0,_RNvMs2_NtNtCsid3wTlZBOIR_16rhizo_crypt_core7clients8songbirdNtB5_14SongbirdClient8endpoint
FNDA:0,_RNvMs2_NtNtCsid3wTlZBOIR_16rhizo_crypt_core7clients8songbirdNtB5_14SongbirdClient8from_env
FNDA:0,_RNvMs2_NtNtCsid3wTlZBOIR_16rhizo_crypt_core7clients8songbirdNtB5_14SongbirdClient8register
FNDA:0,_RNvMs_NtNtCsid3wTlZBOIR_16rhizo_crypt_core7clients8songbirdNtB4_14SongbirdConfig13is_configured
FNDA:0,_RNvMs_NtNtCsid3wTlZBOIR_16rhizo_crypt_core7clients8songbirdNtB4_14SongbirdConfig3new
FNDA:0,_RNvXNtNtCsid3wTlZBOIR_16rhizo_crypt_core7clients8songbirdNtB2_14SongbirdConfigNtNtCs9sjCchOt1K7_4core7default7Default7default
FNDA:0,_RNCNvMs0_NtNtCs7YQQ0vypdx3_16rhizo_crypt_core7clients8songbirdNtB7_14SongbirdConfig8from_env0Bb_
FNDA:0,_RNCNvMs2_NtNtCs7YQQ0vypdx3_16rhizo_crypt_core7clients8songbirdNtB7_14SongbirdClient10disconnect0Bb_
FNDA:0,_RNCNvMs2_NtNtCs7YQQ0vypdx3_16rhizo_crypt_core7clients8songbirdNtB7_14SongbirdClient10service_id0Bb_
FNDA:0,_RNCNvMs2_NtNtCs7YQQ0vypdx3_16rhizo_crypt_core7clients8songbirdNtB7_14SongbirdClient10unregister0Bb_
FNDA:0,_RNCNvMs2_NtNtCs7YQQ0vypdx3_16rhizo_crypt_core7clients8songbirdNtB7_14SongbirdClient17federation_status0Bb_
FNDA:0,_RNCNvMs2_NtNtCs7YQQ0vypdx3_16rhizo_crypt_core7clients8songbirdNtB7_14SongbirdClient8endpoint0Bb_
FNDA:0,_RNvMs0_NtNtCs7YQQ0vypdx3_16rhizo_crypt_core7clients8songbirdNtB5_14SongbirdConfig8from_env
FNDA:0,_RNvMs2_NtNtCs7YQQ0vypdx3_16rhizo_crypt_core7clients8songbirdNtB5_14SongbirdClient10disconnect
FNDA:0,_RNvMs2_NtNtCs7YQQ0vypdx3_16rhizo_crypt_core7clients8songbirdNtB5_14SongbirdClient10service_id
FNDA:0,_RNvMs2_NtNtCs7YQQ0vypdx3_16rhizo_crypt_core7clients8songbirdNtB5_14SongbirdClient10unregister
FNDA:0,_RNvMs2_NtNtCs7YQQ0vypdx3_16rhizo_crypt_core7clients8songbirdNtB5_14SongbirdClient13with_defaults
FNDA:0,_RNvMs2_NtNtCs7YQQ0vypdx3_16rhizo_crypt_core7clients8songbirdNtB5_14SongbirdClient17federation_status
FNDA:0,_RNvMs2_NtNtCs7YQQ0vypdx3_16rhizo_crypt_core7clients8songbirdNtB5_14SongbirdClient8endpoint
FNDA:0,_RNvMs2_NtNtCs7YQQ0vypdx3_16rhizo_crypt_core7clients8songbirdNtB5_14SongbirdClient8from_env
FNDA:0,_RNvXNtNtCs7YQQ0vypdx3_16rhizo_crypt_core7clients8songbirdNtB2_14SongbirdConfigNtNtCs9sjCchOt1K7_4core7default7Default7default
FNDA:1,_RNCNvNtNtNtCs7YQQ0vypdx3_16rhizo_crypt_core7clients8songbird5testss_21test_cache_operations0B9_
FNDA:1,_RNCNvNtNtNtCs7YQQ0vypdx3_16rhizo_crypt_core7clients8songbird5testss_22test_populate_registry0B9_
FNDA:1,_RNCNvNtNtNtCs7YQQ0vypdx3_16rhizo_crypt_core7clients8songbird5testss_25test_client_initial_state0B9_
FNDA:1,_RNCNvNtNtNtCs7YQQ0vypdx3_16rhizo_crypt_core7clients8songbird5testss_32test_discover_without_connection0B9_
FNDA:1,_RNCNvNtNtNtCs7YQQ0vypdx3_16rhizo_crypt_core7clients8songbird5testss_32test_register_without_connection0B9_
FNDA:1,_RNCNvNtNtNtCs7YQQ0vypdx3_16rhizo_crypt_core7clients8songbird5testss_33test_connect_without_config_fails0B9_
FNDA:1,_RNvNtNtNtCs7YQQ0vypdx3_16rhizo_crypt_core7clients8songbird5testss_20test_client_creation
FNDA:1,_RNvNtNtNtCs7YQQ0vypdx3_16rhizo_crypt_core7clients8songbird5testss_21test_cache_operations
FNDA:1,_RNvNtNtNtCs7YQQ0vypdx3_16rhizo_crypt_core7clients8songbird5testss_22test_populate_registry
FNDA:1,_RNvNtNtNtCs7YQQ0vypdx3_16rhizo_crypt_core7clients8songbird5testss_24test_config_with_address
FNDA:1,_RNvNtNtNtCs7YQQ0vypdx3_16rhizo_crypt_core7clients8songbird5testss_25test_client_initial_state
FNDA:1,_RNvNtNtNtCs7YQQ0vypdx3_16rhizo_crypt_core7clients8songbird5testss_28test_config_new_unconfigured
FNDA:1,_RNvNtNtNtCs7YQQ0vypdx3_16rhizo_crypt_core7clients8songbird5testss_32test_discover_without_connection
FNDA:1,_RNvNtNtNtCs7YQQ0vypdx3_16rhizo_crypt_core7clients8songbird5testss_32test_from_env_respects_variables
FNDA:1,_RNvNtNtNtCs7YQQ0vypdx3_16rhizo_crypt_core7clients8songbird5testss_32test_register_without_connection
FNDA:1,_RNvNtNtNtCs7YQQ0vypdx3_16rhizo_crypt_core7clients8songbird5testss_32test_service_info_has_capability
FNDA:1,_RNvNtNtNtCs7YQQ0vypdx3_16rhizo_crypt_core7clients8songbird5testss_33test_connect_without_config_fails
FNDA:8,_RINvMs0_NtNtCs7YQQ0vypdx3_16rhizo_crypt_core7clients8songbirdNtB6_14SongbirdConfig12with_addressReEBa_
FNDA:1,_RNCNCNvMs2_NtNtCs7YQQ0vypdx3_16rhizo_crypt_core7clients8songbirdNtB9_14SongbirdClient16discover_beardog00Bd_
FNDA:0,_RNCNCNvMs2_NtNtCs7YQQ0vypdx3_16rhizo_crypt_core7clients8songbirdNtB9_14SongbirdClient17discover_nestgate00Bd_
FNDA:0,_RNCNCNvMs2_NtNtCs7YQQ0vypdx3_16rhizo_crypt_core7clients8songbirdNtB9_14SongbirdClient18discover_loamspine00Bd_
FNDA:0,_RNCNCNvMs2_NtNtCs7YQQ0vypdx3_16rhizo_crypt_core7clients8songbirdNtB9_14SongbirdClient7connect00Bd_
FNDA:5,_RNCNvMs1_NtNtCs7YQQ0vypdx3_16rhizo_crypt_core7clients8songbirdNtB7_11ServiceInfo14has_capability0Bb_
FNDA:1,_RNCNvMs2_NtNtCs7YQQ0vypdx3_16rhizo_crypt_core7clients8songbirdNtB7_14SongbirdClient11clear_cache0Bb_
FNDA:0,_RNCNvMs2_NtNtCs7YQQ0vypdx3_16rhizo_crypt_core7clients8songbirdNtB7_14SongbirdClient11try_connect0Bb_
FNDA:9,_RNCNvMs2_NtNtCs7YQQ0vypdx3_16rhizo_crypt_core7clients8songbirdNtB7_14SongbirdClient12is_connected0Bb_
FNDA:2,_RNCNvMs2_NtNtCs7YQQ0vypdx3_16rhizo_crypt_core7clients8songbirdNtB7_14SongbirdClient15cache_discovery0Bb_
FNDA:1,_RNCNvMs2_NtNtCs7YQQ0vypdx3_16rhizo_crypt_core7clients8songbirdNtB7_14SongbirdClient16discover_beardog0Bb_
FNDA:1,_RNCNvMs2_NtNtCs7YQQ0vypdx3_16rhizo_crypt_core7clients8songbirdNtB7_14SongbirdClient17discover_nestgate0Bb_
FNDA:1,_RNCNvMs2_NtNtCs7YQQ0vypdx3_16rhizo_crypt_core7clients8songbirdNtB7_14SongbirdClient17populate_registry0Bb_
FNDA:1,_RNCNvMs2_NtNtCs7YQQ0vypdx3_16rhizo_crypt_core7clients8songbirdNtB7_14SongbirdClient18discover_loamspine0Bb_
FNDA:1,_RNCNvMs2_NtNtCs7YQQ0vypdx3_16rhizo_crypt_core7clients8songbirdNtB7_14SongbirdClient5state0Bb_
FNDA:1,_RNCNvMs2_NtNtCs7YQQ0vypdx3_16rhizo_crypt_core7clients8songbirdNtB7_14SongbirdClient7connect0Bb_
FNDA:6,_RNCNvMs2_NtNtCs7YQQ0vypdx3_16rhizo_crypt_core7clients8songbirdNtB7_14SongbirdClient8discover0Bb_
FNDA:1,_RNCNvMs2_NtNtCs7YQQ0vypdx3_16rhizo_crypt_core7clients8songbirdNtB7_14SongbirdClient8register0Bb_
FNDA:3,_RNvMs1_NtNtCs7YQQ0vypdx3_16rhizo_crypt_core7clients8songbirdNtB5_11ServiceInfo14has_capability
FNDA:1,_RNvMs2_NtNtCs7YQQ0vypdx3_16rhizo_crypt_core7clients8songbirdNtB5_14SongbirdClient11clear_cache
FNDA:0,_RNvMs2_NtNtCs7YQQ0vypdx3_16rhizo_crypt_core7clients8songbirdNtB5_14SongbirdClient11try_connect
FNDA:9,_RNvMs2_NtNtCs7YQQ0vypdx3_16rhizo_crypt_core7clients8songbirdNtB5_14SongbirdClient12is_connected
FNDA:2,_RNvMs2_NtNtCs7YQQ0vypdx3_16rhizo_crypt_core7clients8songbirdNtB5_14SongbirdClient15cache_discovery
FNDA:1,_RNvMs2_NtNtCs7YQQ0vypdx3_16rhizo_crypt_core7clients8songbirdNtB5_14SongbirdClient16discover_beardog
FNDA:1,_RNvMs2_NtNtCs7YQQ0vypdx3_16rhizo_crypt_core7clients8songbirdNtB5_14SongbirdClient17discover_nestgate
FNDA:1,_RNvMs2_NtNtCs7YQQ0vypdx3_16rhizo_crypt_core7clients8songbirdNtB5_14SongbirdClient17populate_registry
FNDA:1,_RNvMs2_NtNtCs7YQQ0vypdx3_16rhizo_crypt_core7clients8songbirdNtB5_14SongbirdClient18discover_loamspine
FNDA:7,_RNvMs2_NtNtCs7YQQ0vypdx3_16rhizo_crypt_core7clients8songbirdNtB5_14SongbirdClient3new
FNDA:1,_RNvMs2_NtNtCs7YQQ0vypdx3_16rhizo_crypt_core7clients8songbirdNtB5_14SongbirdClient5state
FNDA:1,_RNvMs2_NtNtCs7YQQ0vypdx3_16rhizo_crypt_core7clients8songbirdNtB5_14SongbirdClient7connect
FNDA:6,_RNvMs2_NtNtCs7YQQ0vypdx3_16rhizo_crypt_core7clients8songbirdNtB5_14SongbirdClient8discover
FNDA:1,_RNvMs2_NtNtCs7YQQ0vypdx3_16rhizo_crypt_core7clients8songbirdNtB5_14SongbirdClient8register
FNDA:5,_RNvMs_NtNtCs7YQQ0vypdx3_16rhizo_crypt_core7clients8songbirdNtB4_14SongbirdConfig13is_configured
FNDA:10,_RNvMs_NtNtCs7YQQ0vypdx3_16rhizo_crypt_core7clients8songbirdNtB4_14SongbirdConfig3new
FNF:66
FNH:46
DA:74,0
DA:75,0
DA:76,0
DA:87,10
DA:88,10
DA:89,10
DA:90,10
DA:91,10
DA:92,10
DA:93,10
DA:94,10
DA:95,10
DA:96,10
DA:97,10
DA:98,10
DA:99,10
DA:100,10
DA:101,10
DA:102,10
DA:106,5
DA:107,5
DA:108,5
DA:124,0
DA:125,0
DA:128,0
DA:129,0
DA:130,0
DA:131,0
DA:132,0
DA:133,0
DA:134,0
DA:135,0
DA:137,0
DA:138,0
DA:139,0
DA:140,0
DA:141,0
DA:142,0
DA:143,0
DA:144,0
DA:147,0
DA:150,0
DA:151,0
DA:152,0
DA:158,0
DA:159,0
DA:160,0
DA:162,0
DA:163,0
DA:167,8
DA:168,8
DA:169,8
DA:170,8
DA:171,8
DA:200,3
DA:201,5
DA:202,3
DA:291,7
DA:292,7
DA:293,7
DA:294,7
DA:295,7
DA:296,7
DA:297,7
DA:298,7
DA:299,7
DA:300,7
DA:301,7
DA:308,0
DA:309,0
DA:310,0
DA:314,0
DA:315,0
DA:316,0
DA:319,1
DA:320,1
DA:321,1
DA:324,9
DA:325,9
DA:326,9
DA:337,1
DA:338,1
DA:339,1
DA:340,0
DA:341,1
DA:342,1
DA:343,1
DA:344,1
DA:345,1
DA:346,1
DA:347,1
DA:348,1
DA:349,1
DA:350,0
DA:351,0
DA:352,0
DA:353,0
DA:356,0
DA:357,0
DA:358,0
DA:359,0
DA:364,0
DA:365,0
DA:366,0
DA:367,0
DA:368,0
DA:370,0
DA:372,0
DA:373,0
DA:374,0
DA:375,0
DA:377,0
DA:378,0
DA:379,0
DA:380,0
DA:383,0
DA:384,0
DA:385,0
DA:418,1
DA:422,0
DA:423,0
DA:424,0
DA:425,0
DA:426,0
DA:427,0
DA:429,0
DA:430,0
DA:433,0
DA:465,1
DA:466,1
DA:467,1
DA:468,1
DA:469,1
DA:470,0
DA:471,0
DA:472,0
DA:475,0
DA:511,0
DA:512,0
DA:513,0
DA:514,0
DA:515,0
DA:516,0
DA:517,0
DA:518,0
DA:519,0
DA:520,0
DA:521,0
DA:522,0
DA:523,0
DA:524,0
DA:525,0
DA:526,0
DA:527,0
DA:528,0
DA:529,0
DA:530,0
DA:531,0
DA:532,0
DA:533,0
DA:535,0
DA:536,1
DA:545,6
DA:546,6
DA:547,1
DA:548,5
DA:549,5
DA:550,5
DA:554,5
DA:555,5
DA:556,2
DA:557,2
DA:558,3
DA:559,3
DA:560,3
DA:561,3
DA:562,3
DA:563,3
DA:564,3
DA:565,3
DA:566,3
DA:567,3
DA:568,3
DA:569,3
DA:570,3
DA:571,3
DA:572,3
DA:573,3
DA:574,3
DA:575,3
DA:576,3
DA:577,3
DA:578,3
DA:579,3
DA:580,3
DA:581,3
DA:582,3
DA:583,3
DA:584,3
DA:585,3
DA:586,3
DA:587,3
DA:588,3
DA:589,3
DA:590,3
DA:591,3
DA:592,3
DA:593,3
DA:594,3
DA:595,6
DA:604,1
DA:605,1
DA:606,1
DA:607,1
DA:616,1
DA:617,1
DA:618,1
DA:619,1
DA:628,1
DA:629,1
DA:630,1
DA:631,1
DA:642,1
DA:643,1
DA:644,0
DA:645,1
DA:648,1
DA:649,1
DA:650,1
DA:651,1
DA:652,1
DA:653,1
DA:654,1
DA:655,1
DA:656,1
DA:657,0
DA:658,0
DA:661,1
DA:662,0
DA:663,0
DA:664,0
DA:665,0
DA:666,0
DA:667,0
DA:668,0
DA:669,0
DA:670,0
DA:671,0
DA:672,0
DA:673,0
DA:674,0
DA:675,1
DA:678,1
DA:679,0
DA:680,0
DA:681,0
DA:682,0
DA:683,0
DA:684,0
DA:685,0
DA:686,0
DA:687,0
DA:688,1
DA:690,1
DA:691,1
DA:700,0
DA:701,0
DA:702,0
DA:703,0
DA:704,0
DA:705,0
DA:706,0
DA:707,0
DA:708,0
DA:709,0
DA:710,0
DA:711,0
DA:712,0
DA:713,0
DA:714,0
DA:715,0
DA:722,0
DA:723,0
DA:725,0
DA:726,0
DA:732,0
DA:733,0
DA:734,0
DA:736,0
DA:737,0
DA:740,0
DA:741,0
DA:742,0
DA:743,0
DA:744,0
DA:745,0
DA:746,0
DA:747,0
DA:750,0
DA:751,0
DA:752,0
DA:755,2
DA:756,2
DA:757,2
DA:760,1
DA:761,1
DA:762,1
DA:765,0
DA:766,0
DA:767,0
DA:785,1
DA:786,1
DA:787,1
DA:788,1
DA:789,1
DA:790,1
DA:791,1
DA:794,1
DA:795,1
DA:796,1
DA:797,1
DA:798,1
DA:801,1
DA:802,1
DA:803,1
DA:804,1
DA:805,1
DA:806,1
DA:809,1
DA:810,1
DA:811,1
DA:812,1
DA:813,1
DA:814,1
DA:817,1
DA:818,1
DA:819,1
DA:820,1
DA:821,1
DA:822,1
DA:825,1
DA:826,1
DA:827,1
DA:828,1
DA:829,1
DA:830,1
DA:833,1
DA:834,1
DA:835,1
DA:836,1
DA:837,1
DA:838,1
DA:839,1
DA:840,1
DA:843,1
DA:844,1
DA:845,1
DA:846,1
DA:847,1
DA:848,1
DA:849,1
DA:850,1
DA:851,1
DA:852,1
DA:853,1
DA:854,1
DA:855,1
DA:856,1
DA:857,1
DA:858,1
DA:859,1
DA:860,1
DA:861,1
DA:862,1
DA:863,1
DA:864,1
DA:865,1
DA:866,1
DA:867,1
DA:868,1
DA:871,1
DA:872,1
DA:873,1
DA:874,1
DA:875,1
DA:876,1
DA:877,1
DA:878,1
DA:879,1
DA:880,1
DA:881,1
DA:882,1
DA:883,1
DA:884,1
DA:887,1
DA:888,1
DA:889,1
DA:890,1
DA:891,1
DA:892,1
DA:893,1
DA:894,1
DA:895,1
DA:896,1
DA:897,1
DA:898,1
DA:899,1
DA:900,1
DA:901,1
DA:902,1
DA:903,1
DA:904,1
DA:905,1
DA:906,1
DA:907,1
DA:908,1
DA:909,1
DA:910,1
DA:911,1
DA:914,1
DA:915,1
DA:916,1
DA:917,1
DA:918,1
DA:919,1
BRF:0
BRH:0
LF:514
LH:340
end_of_record
SF:/home/strandgate/Development/ecoPrimals/phase2/rhizoCrypt/crates/rhizo-crypt-core/src/config.rs
FN:298,_RINvMs5_NtCsid3wTlZBOIR_16rhizo_crypt_core6configNtB6_9RpcConfig9with_addrReECsdcY13n2UsKC_11chaos_tests
FN:281,_RNCNvMs5_NtCsid3wTlZBOIR_16rhizo_crypt_core6configNtB7_9RpcConfig19from_env_or_default0B9_
FN:285,_RNCNvMs5_NtCsid3wTlZBOIR_16rhizo_crypt_core6configNtB7_9RpcConfig19from_env_or_defaults_0B9_
FN:332,_RNvMs5_NtCsid3wTlZBOIR_16rhizo_crypt_core6configNtB5_9RpcConfig10parse_addr
FN:323,_RNvMs5_NtCsid3wTlZBOIR_16rhizo_crypt_core6configNtB5_9RpcConfig11socket_addrB7_
FN:311,_RNvMs5_NtCsid3wTlZBOIR_16rhizo_crypt_core6configNtB5_9RpcConfig14localhost_auto
FN:274,_RNvMs5_NtCsid3wTlZBOIR_16rhizo_crypt_core6configNtB5_9RpcConfig19from_env_or_default
FN:338,_RNvMs5_NtCsid3wTlZBOIR_16rhizo_crypt_core6configNtB5_9RpcConfig7ip_addr
FN:96,_RNvMs_NtCsid3wTlZBOIR_16rhizo_crypt_core6configNtB4_16RhizoCryptConfig12with_storage
FN:89,_RNvMs_NtCsid3wTlZBOIR_16rhizo_crypt_core6configNtB4_16RhizoCryptConfig16with_gc_interval
FN:82,_RNvMs_NtCsid3wTlZBOIR_16rhizo_crypt_core6configNtB4_16RhizoCryptConfig17with_max_sessions
FN:54,_RNvXNtCsid3wTlZBOIR_16rhizo_crypt_core6configNtB2_16RhizoCryptConfigNtNtCs9sjCchOt1K7_4core7default7Default7default
FN:116,_RNvXs0_NtCsid3wTlZBOIR_16rhizo_crypt_core6configNtB5_13StorageConfigNtNtCs9sjCchOt1K7_4core7default7Default7default
FN:153,_RNvXs1_NtCsid3wTlZBOIR_16rhizo_crypt_core6configNtB5_13MetricsConfigNtNtCs9sjCchOt1K7_4core7default7Default7default
FN:184,_RNvXs2_NtCsid3wTlZBOIR_16rhizo_crypt_core6configNtB5_23DehydrationClientConfigNtNtCs9sjCchOt1K7_4core7default7Default7default
FN:217,_RNvXs3_NtCsid3wTlZBOIR_16rhizo_crypt_core6configNtB5_11SliceConfigNtNtCs9sjCchOt1K7_4core7default7Default7default
FN:256,_RNvXs4_NtCsid3wTlZBOIR_16rhizo_crypt_core6configNtB5_9RpcConfigNtNtCs9sjCchOt1K7_4core7default7Default7default
FN:298,_RINvMs5_NtCsid3wTlZBOIR_16rhizo_crypt_core6configNtB6_9RpcConfig9with_addrpEB8_
FN:73,_RINvMs_NtCsid3wTlZBOIR_16rhizo_crypt_core6configNtB5_16RhizoCryptConfig3newpEB7_
FN:355,_RINvNtNtCsid3wTlZBOIR_16rhizo_crypt_core6config14duration_serde11deserializepEB6_
FN:348,_RINvNtNtCsid3wTlZBOIR_16rhizo_crypt_core6config14duration_serde9serializepEB6_
FN:163,_RNCINvXs0_NvXNvNtCsid3wTlZBOIR_16rhizo_crypt_core6configs7_1__NtBd_23DehydrationClientConfigNtNtCs3wVxj8hVOn5_10serde_core2de11Deserialize11deserializeNtB8_9___VisitorNtB1u_7Visitor9visit_seqpE0Bf_
FN:163,_RNCINvXs0_NvXNvNtCsid3wTlZBOIR_16rhizo_crypt_core6configs7_1__NtBd_23DehydrationClientConfigNtNtCs3wVxj8hVOn5_10serde_core2de11Deserialize11deserializeNtB8_9___VisitorNtB1u_7Visitor9visit_seqpEs_0Bf_
FN:196,_RNCINvXs0_NvXNvNtCsid3wTlZBOIR_16rhizo_crypt_core6configs9_1__NtBd_11SliceConfigNtNtCs3wVxj8hVOn5_10serde_core2de11Deserialize11deserializeNtB8_9___VisitorNtB1i_7Visitor9visit_seqpE0Bf_
FN:196,_RNCINvXs0_NvXNvNtCsid3wTlZBOIR_16rhizo_crypt_core6configs9_1__NtBd_11SliceConfigNtNtCs3wVxj8hVOn5_10serde_core2de11Deserialize11deserializeNtB8_9___VisitorNtB1i_7Visitor9visit_seqpEs_0Bf_
FN:18,_RNCINvXs0_NvXNvNtCsid3wTlZBOIR_16rhizo_crypt_core6configs_1__NtBd_16RhizoCryptConfigNtNtCs3wVxj8hVOn5_10serde_core2de11Deserialize11deserializeNtB8_9___VisitorNtB1m_7Visitor9visit_seqpE0Bf_
FN:18,_RNCINvXs0_NvXNvNtCsid3wTlZBOIR_16rhizo_crypt_core6configs_1__NtBd_16RhizoCryptConfigNtNtCs3wVxj8hVOn5_10serde_core2de11Deserialize11deserializeNtB8_9___VisitorNtB1m_7Visitor9visit_seqpEs_0Bf_
FN:298,_RINvMs5_NtCsid3wTlZBOIR_16rhizo_crypt_core6configNtB6_9RpcConfig9with_addrReECsPnv9z7ECKg_9e2e_tests
FN:298,_RINvMs5_NtCs7YQQ0vypdx3_16rhizo_crypt_core6configNtB6_9RpcConfig9with_addrpEB8_
FN:332,_RNvMs5_NtCs7YQQ0vypdx3_16rhizo_crypt_core6configNtB5_9RpcConfig10parse_addr
FN:323,_RNvMs5_NtCs7YQQ0vypdx3_16rhizo_crypt_core6configNtB5_9RpcConfig11socket_addrB7_
FN:311,_RNvMs5_NtCs7YQQ0vypdx3_16rhizo_crypt_core6configNtB5_9RpcConfig14localhost_auto
FN:338,_RNvMs5_NtCs7YQQ0vypdx3_16rhizo_crypt_core6configNtB5_9RpcConfig7ip_addr
FN:96,_RNvMs_NtCs7YQQ0vypdx3_16rhizo_crypt_core6configNtB4_16RhizoCryptConfig12with_storage
FN:355,_RINvNtNtCs7YQQ0vypdx3_16rhizo_crypt_core6config14duration_serde11deserializeQINtNtCsaMeVmPM2KXU_10serde_json2de12DeserializerNtNtB1i_4read7StrReadEEB6_
FN:348,_RINvNtNtCs7YQQ0vypdx3_16rhizo_crypt_core6config14duration_serde9serializeQINtNtCsaMeVmPM2KXU_10serde_json3ser10SerializerQINtNtCs6bBekJvxEMJ_5alloc3vec3VechEEEB6_
FN:274,_RNvMs5_NtCs7YQQ0vypdx3_16rhizo_crypt_core6configNtB5_9RpcConfig19from_env_or_default
FN:89,_RNvMs_NtCs7YQQ0vypdx3_16rhizo_crypt_core6configNtB4_16RhizoCryptConfig16with_gc_interval
FN:82,_RNvMs_NtCs7YQQ0vypdx3_16rhizo_crypt_core6configNtB4_16RhizoCryptConfig17with_max_sessions
FN:54,_RNvXNtCs7YQQ0vypdx3_16rhizo_crypt_core6configNtB2_16RhizoCryptConfigNtNtCs9sjCchOt1K7_4core7default7Default7default
FN:116,_RNvXs0_NtCs7YQQ0vypdx3_16rhizo_crypt_core6configNtB5_13StorageConfigNtNtCs9sjCchOt1K7_4core7default7Default7default
FN:153,_RNvXs1_NtCs7YQQ0vypdx3_16rhizo_crypt_core6configNtB5_13MetricsConfigNtNtCs9sjCchOt1K7_4core7default7Default7default
FN:184,_RNvXs2_NtCs7YQQ0vypdx3_16rhizo_crypt_core6configNtB5_23DehydrationClientConfigNtNtCs9sjCchOt1K7_4core7default7Default7default
FN:217,_RNvXs3_NtCs7YQQ0vypdx3_16rhizo_crypt_core6configNtB5_11SliceConfigNtNtCs9sjCchOt1K7_4core7default7Default7default
FN:256,_RNvXs4_NtCs7YQQ0vypdx3_16rhizo_crypt_core6configNtB5_9RpcConfigNtNtCs9sjCchOt1K7_4core7default7Default7default
FN:73,_RINvMs_NtCs7YQQ0vypdx3_16rhizo_crypt_core6configNtB5_16RhizoCryptConfig3newReEB7_
FN:163,_RNCINvXs0_NvXNvNtCs7YQQ0vypdx3_16rhizo_crypt_core6configs7_1__NtBd_23DehydrationClientConfigNtNtCs3wVxj8hVOn5_10serde_core2de11Deserialize11deserializeNtB8_9___VisitorNtB1u_7Visitor9visit_seqINtNtCsaMeVmPM2KXU_10serde_json2de9SeqAccessNtNtB38_4read7StrReadEE0Bf_
FN:163,_RNCINvXs0_NvXNvNtCs7YQQ0vypdx3_16rhizo_crypt_core6configs7_1__NtBd_23DehydrationClientConfigNtNtCs3wVxj8hVOn5_10serde_core2de11Deserialize11deserializeNtB8_9___VisitorNtB1u_7Visitor9visit_seqINtNtCsaMeVmPM2KXU_10serde_json2de9SeqAccessNtNtB38_4read7StrReadEEs_0Bf_
FN:196,_RNCINvXs0_NvXNvNtCs7YQQ0vypdx3_16rhizo_crypt_core6configs9_1__NtBd_11SliceConfigNtNtCs3wVxj8hVOn5_10serde_core2de11Deserialize11deserializeNtB8_9___VisitorNtB1i_7Visitor9visit_seqINtNtCsaMeVmPM2KXU_10serde_json2de9SeqAccessNtNtB2W_4read7StrReadEE0Bf_
FN:196,_RNCINvXs0_NvXNvNtCs7YQQ0vypdx3_16rhizo_crypt_core6configs9_1__NtBd_11SliceConfigNtNtCs3wVxj8hVOn5_10serde_core2de11Deserialize11deserializeNtB8_9___VisitorNtB1i_7Visitor9visit_seqINtNtCsaMeVmPM2KXU_10serde_json2de9SeqAccessNtNtB2W_4read7StrReadEEs_0Bf_
FN:18,_RNCINvXs0_NvXNvNtCs7YQQ0vypdx3_16rhizo_crypt_core6configs_1__NtBd_16RhizoCryptConfigNtNtCs3wVxj8hVOn5_10serde_core2de11Deserialize11deserializeNtB8_9___VisitorNtB1m_7Visitor9visit_seqINtNtCsaMeVmPM2KXU_10serde_json2de9SeqAccessNtNtB30_4read7StrReadEE0Bf_
FN:18,_RNCINvXs0_NvXNvNtCs7YQQ0vypdx3_16rhizo_crypt_core6configs_1__NtBd_16RhizoCryptConfigNtNtCs3wVxj8hVOn5_10serde_core2de11Deserialize11deserializeNtB8_9___VisitorNtB1m_7Visitor9visit_seqINtNtCsaMeVmPM2KXU_10serde_json2de9SeqAccessNtNtB30_4read7StrReadEEs_0Bf_
FN:281,_RNCNvMs5_NtCs7YQQ0vypdx3_16rhizo_crypt_core6configNtB7_9RpcConfig19from_env_or_default0B9_
FN:285,_RNCNvMs5_NtCs7YQQ0vypdx3_16rhizo_crypt_core6configNtB7_9RpcConfig19from_env_or_defaults_0B9_
FN:378,_RNvNtNtCs7YQQ0vypdx3_16rhizo_crypt_core6config5testss_19test_config_builder
FN:370,_RNvNtNtCs7YQQ0vypdx3_16rhizo_crypt_core6config5testss_19test_config_default
FN:389,_RNvNtNtCs7YQQ0vypdx3_16rhizo_crypt_core6config5testss_25test_config_serialization
FN:397,_RNvNtNtCs7YQQ0vypdx3_16rhizo_crypt_core6config5testss_28test_storage_backend_default
FNDA:1,_RINvMs5_NtCsid3wTlZBOIR_16rhizo_crypt_core6configNtB6_9RpcConfig9with_addrReECsdcY13n2UsKC_11chaos_tests
FNDA:0,_RNCNvMs5_NtCsid3wTlZBOIR_16rhizo_crypt_core6configNtB7_9RpcConfig19from_env_or_default0B9_
FNDA:0,_RNCNvMs5_NtCsid3wTlZBOIR_16rhizo_crypt_core6configNtB7_9RpcConfig19from_env_or_defaults_0B9_
FNDA:13,_RNvMs5_NtCsid3wTlZBOIR_16rhizo_crypt_core6configNtB5_9RpcConfig10parse_addr
FNDA:13,_RNvMs5_NtCsid3wTlZBOIR_16rhizo_crypt_core6configNtB5_9RpcConfig11socket_addrB7_
FNDA:0,_RNvMs5_NtCsid3wTlZBOIR_16rhizo_crypt_core6configNtB5_9RpcConfig14localhost_auto
FNDA:29,_RNvMs5_NtCsid3wTlZBOIR_16rhizo_crypt_core6configNtB5_9RpcConfig19from_env_or_default
FNDA:0,_RNvMs5_NtCsid3wTlZBOIR_16rhizo_crypt_core6configNtB5_9RpcConfig7ip_addr
FNDA:0,_RNvMs_NtCsid3wTlZBOIR_16rhizo_crypt_core6configNtB4_16RhizoCryptConfig12with_storage
FNDA:0,_RNvMs_NtCsid3wTlZBOIR_16rhizo_crypt_core6configNtB4_16RhizoCryptConfig16with_gc_interval
FNDA:0,_RNvMs_NtCsid3wTlZBOIR_16rhizo_crypt_core6configNtB4_16RhizoCryptConfig17with_max_sessions
FNDA:29,_RNvXNtCsid3wTlZBOIR_16rhizo_crypt_core6configNtB2_16RhizoCryptConfigNtNtCs9sjCchOt1K7_4core7default7Default7default
FNDA:29,_RNvXs0_NtCsid3wTlZBOIR_16rhizo_crypt_core6configNtB5_13StorageConfigNtNtCs9sjCchOt1K7_4core7default7Default7default
FNDA:29,_RNvXs1_NtCsid3wTlZBOIR_16rhizo_crypt_core6configNtB5_13MetricsConfigNtNtCs9sjCchOt1K7_4core7default7Default7default
FNDA:29,_RNvXs2_NtCsid3wTlZBOIR_16rhizo_crypt_core6configNtB5_23DehydrationClientConfigNtNtCs9sjCchOt1K7_4core7default7Default7default
FNDA:29,_RNvXs3_NtCsid3wTlZBOIR_16rhizo_crypt_core6configNtB5_11SliceConfigNtNtCs9sjCchOt1K7_4core7default7Default7default
FNDA:29,_RNvXs4_NtCsid3wTlZBOIR_16rhizo_crypt_core6configNtB5_9RpcConfigNtNtCs9sjCchOt1K7_4core7default7Default7default
FNDA:0,_RINvMs5_NtCsid3wTlZBOIR_16rhizo_crypt_core6configNtB6_9RpcConfig9with_addrpEB8_
FNDA:0,_RINvMs_NtCsid3wTlZBOIR_16rhizo_crypt_core6configNtB5_16RhizoCryptConfig3newpEB7_
FNDA:0,_RINvNtNtCsid3wTlZBOIR_16rhizo_crypt_core6config14duration_serde11deserializepEB6_
FNDA:0,_RINvNtNtCsid3wTlZBOIR_16rhizo_crypt_core6config14duration_serde9serializepEB6_
FNDA:0,_RNCINvXs0_NvXNvNtCsid3wTlZBOIR_16rhizo_crypt_core6configs7_1__NtBd_23DehydrationClientConfigNtNtCs3wVxj8hVOn5_10serde_core2de11Deserialize11deserializeNtB8_9___VisitorNtB1u_7Visitor9visit_seqpE0Bf_
FNDA:0,_RNCINvXs0_NvXNvNtCsid3wTlZBOIR_16rhizo_crypt_core6configs7_1__NtBd_23DehydrationClientConfigNtNtCs3wVxj8hVOn5_10serde_core2de11Deserialize11deserializeNtB8_9___VisitorNtB1u_7Visitor9visit_seqpEs_0Bf_
FNDA:0,_RNCINvXs0_NvXNvNtCsid3wTlZBOIR_16rhizo_crypt_core6configs9_1__NtBd_11SliceConfigNtNtCs3wVxj8hVOn5_10serde_core2de11Deserialize11deserializeNtB8_9___VisitorNtB1i_7Visitor9visit_seqpE0Bf_
FNDA:0,_RNCINvXs0_NvXNvNtCsid3wTlZBOIR_16rhizo_crypt_core6configs9_1__NtBd_11SliceConfigNtNtCs3wVxj8hVOn5_10serde_core2de11Deserialize11deserializeNtB8_9___VisitorNtB1i_7Visitor9visit_seqpEs_0Bf_
FNDA:0,_RNCINvXs0_NvXNvNtCsid3wTlZBOIR_16rhizo_crypt_core6configs_1__NtBd_16RhizoCryptConfigNtNtCs3wVxj8hVOn5_10serde_core2de11Deserialize11deserializeNtB8_9___VisitorNtB1m_7Visitor9visit_seqpE0Bf_
FNDA:0,_RNCINvXs0_NvXNvNtCsid3wTlZBOIR_16rhizo_crypt_core6configs_1__NtBd_16RhizoCryptConfigNtNtCs3wVxj8hVOn5_10serde_core2de11Deserialize11deserializeNtB8_9___VisitorNtB1m_7Visitor9visit_seqpEs_0Bf_
FNDA:1,_RINvMs5_NtCsid3wTlZBOIR_16rhizo_crypt_core6configNtB6_9RpcConfig9with_addrReECsPnv9z7ECKg_9e2e_tests
FNDA:0,_RINvMs5_NtCs7YQQ0vypdx3_16rhizo_crypt_core6configNtB6_9RpcConfig9with_addrpEB8_
FNDA:0,_RNvMs5_NtCs7YQQ0vypdx3_16rhizo_crypt_core6configNtB5_9RpcConfig10parse_addr
FNDA:0,_RNvMs5_NtCs7YQQ0vypdx3_16rhizo_crypt_core6configNtB5_9RpcConfig11socket_addrB7_
FNDA:0,_RNvMs5_NtCs7YQQ0vypdx3_16rhizo_crypt_core6configNtB5_9RpcConfig14localhost_auto
FNDA:0,_RNvMs5_NtCs7YQQ0vypdx3_16rhizo_crypt_core6configNtB5_9RpcConfig7ip_addr
FNDA:0,_RNvMs_NtCs7YQQ0vypdx3_16rhizo_crypt_core6configNtB4_16RhizoCryptConfig12with_storage
FNDA:6,_RINvNtNtCs7YQQ0vypdx3_16rhizo_crypt_core6config14duration_serde11deserializeQINtNtCsaMeVmPM2KXU_10serde_json2de12DeserializerNtNtB1i_4read7StrReadEEB6_
FNDA:6,_RINvNtNtCs7YQQ0vypdx3_16rhizo_crypt_core6config14duration_serde9serializeQINtNtCsaMeVmPM2KXU_10serde_json3ser10SerializerQINtNtCs6bBekJvxEMJ_5alloc3vec3VechEEEB6_
FNDA:6,_RNvMs5_NtCs7YQQ0vypdx3_16rhizo_crypt_core6configNtB5_9RpcConfig19from_env_or_default
FNDA:1,_RNvMs_NtCs7YQQ0vypdx3_16rhizo_crypt_core6configNtB4_16RhizoCryptConfig16with_gc_interval
FNDA:1,_RNvMs_NtCs7YQQ0vypdx3_16rhizo_crypt_core6configNtB4_16RhizoCryptConfig17with_max_sessions
FNDA:6,_RNvXNtCs7YQQ0vypdx3_16rhizo_crypt_core6configNtB2_16RhizoCryptConfigNtNtCs9sjCchOt1K7_4core7default7Default7default
FNDA:6,_RNvXs0_NtCs7YQQ0vypdx3_16rhizo_crypt_core6configNtB5_13StorageConfigNtNtCs9sjCchOt1K7_4core7default7Default7default
FNDA:6,_RNvXs1_NtCs7YQQ0vypdx3_16rhizo_crypt_core6configNtB5_13MetricsConfigNtNtCs9sjCchOt1K7_4core7default7Default7default
FNDA:6,_RNvXs2_NtCs7YQQ0vypdx3_16rhizo_crypt_core6configNtB5_23DehydrationClientConfigNtNtCs9sjCchOt1K7_4core7default7Default7default
FNDA:6,_RNvXs3_NtCs7YQQ0vypdx3_16rhizo_crypt_core6configNtB5_11SliceConfigNtNtCs9sjCchOt1K7_4core7default7Default7default
FNDA:6,_RNvXs4_NtCs7YQQ0vypdx3_16rhizo_crypt_core6configNtB5_9RpcConfigNtNtCs9sjCchOt1K7_4core7default7Default7default
FNDA:1,_RINvMs_NtCs7YQQ0vypdx3_16rhizo_crypt_core6configNtB5_16RhizoCryptConfig3newReEB7_
FNDA:0,_RNCINvXs0_NvXNvNtCs7YQQ0vypdx3_16rhizo_crypt_core6configs7_1__NtBd_23DehydrationClientConfigNtNtCs3wVxj8hVOn5_10serde_core2de11Deserialize11deserializeNtB8_9___VisitorNtB1u_7Visitor9visit_seqINtNtCsaMeVmPM2KXU_10serde_json2de9SeqAccessNtNtB38_4read7StrReadEE0Bf_
FNDA:0,_RNCINvXs0_NvXNvNtCs7YQQ0vypdx3_16rhizo_crypt_core6configs7_1__NtBd_23DehydrationClientConfigNtNtCs3wVxj8hVOn5_10serde_core2de11Deserialize11deserializeNtB8_9___VisitorNtB1u_7Visitor9visit_seqINtNtCsaMeVmPM2KXU_10serde_json2de9SeqAccessNtNtB38_4read7StrReadEEs_0Bf_
FNDA:0,_RNCINvXs0_NvXNvNtCs7YQQ0vypdx3_16rhizo_crypt_core6configs9_1__NtBd_11SliceConfigNtNtCs3wVxj8hVOn5_10serde_core2de11Deserialize11deserializeNtB8_9___VisitorNtB1i_7Visitor9visit_seqINtNtCsaMeVmPM2KXU_10serde_json2de9SeqAccessNtNtB2W_4read7StrReadEE0Bf_
FNDA:0,_RNCINvXs0_NvXNvNtCs7YQQ0vypdx3_16rhizo_crypt_core6configs9_1__NtBd_11SliceConfigNtNtCs3wVxj8hVOn5_10serde_core2de11Deserialize11deserializeNtB8_9___VisitorNtB1i_7Visitor9visit_seqINtNtCsaMeVmPM2KXU_10serde_json2de9SeqAccessNtNtB2W_4read7StrReadEEs_0Bf_
FNDA:0,_RNCINvXs0_NvXNvNtCs7YQQ0vypdx3_16rhizo_crypt_core6configs_1__NtBd_16RhizoCryptConfigNtNtCs3wVxj8hVOn5_10serde_core2de11Deserialize11deserializeNtB8_9___VisitorNtB1m_7Visitor9visit_seqINtNtCsaMeVmPM2KXU_10serde_json2de9SeqAccessNtNtB30_4read7StrReadEE0Bf_
FNDA:0,_RNCINvXs0_NvXNvNtCs7YQQ0vypdx3_16rhizo_crypt_core6configs_1__NtBd_16RhizoCryptConfigNtNtCs3wVxj8hVOn5_10serde_core2de11Deserialize11deserializeNtB8_9___VisitorNtB1m_7Visitor9visit_seqINtNtCsaMeVmPM2KXU_10serde_json2de9SeqAccessNtNtB30_4read7StrReadEEs_0Bf_
FNDA:0,_RNCNvMs5_NtCs7YQQ0vypdx3_16rhizo_crypt_core6configNtB7_9RpcConfig19from_env_or_default0B9_
FNDA:0,_RNCNvMs5_NtCs7YQQ0vypdx3_16rhizo_crypt_core6configNtB7_9RpcConfig19from_env_or_defaults_0B9_
FNDA:1,_RNvNtNtCs7YQQ0vypdx3_16rhizo_crypt_core6config5testss_19test_config_builder
FNDA:1,_RNvNtNtCs7YQQ0vypdx3_16rhizo_crypt_core6config5testss_19test_config_default
FNDA:1,_RNvNtNtCs7YQQ0vypdx3_16rhizo_crypt_core6config5testss_25test_config_serialization
FNDA:1,_RNvNtNtCs7YQQ0vypdx3_16rhizo_crypt_core6config5testss_28test_storage_backend_default
FNF:27
FNH:19
DA:18,0
DA:54,35
DA:55,35
DA:56,35
DA:57,35
DA:58,35
DA:59,35
DA:60,35
DA:61,35
DA:62,35
DA:63,35
DA:64,35
DA:65,35
DA:66,35
DA:67,35
DA:73,1
DA:74,1
DA:75,1
DA:76,1
DA:77,1
DA:78,1
DA:82,1
DA:83,1
DA:84,1
DA:85,1
DA:89,1
DA:90,1
DA:91,1
DA:92,1
DA:96,0
DA:97,0
DA:98,0
DA:99,0
DA:116,35
DA:117,35
DA:118,35
DA:119,35
DA:120,35
DA:121,35
DA:122,35
DA:153,35
DA:154,35
DA:155,35
DA:156,35
DA:157,35
DA:158,35
DA:159,35
DA:163,0
DA:184,35
DA:185,35
DA:186,35
DA:187,35
DA:188,35
DA:189,35
DA:190,35
DA:191,35
DA:192,35
DA:196,0
DA:217,35
DA:218,35
DA:219,35
DA:220,35
DA:221,35
DA:222,35
DA:223,35
DA:224,35
DA:225,35
DA:256,35
DA:257,35
DA:258,35
DA:274,35
DA:275,35
DA:276,35
DA:277,35
DA:278,35
DA:279,35
DA:280,35
DA:281,35
DA:282,35
DA:283,35
DA:284,35
DA:285,35
DA:286,35
DA:287,35
DA:288,35
DA:289,35
DA:290,35
DA:291,35
DA:292,35
DA:293,35
DA:294,35
DA:298,2
DA:299,2
DA:300,2
DA:301,2
DA:302,2
DA:303,2
DA:304,2
DA:305,2
DA:311,0
DA:312,0
DA:313,0
DA:314,0
DA:315,0
DA:316,0
DA:317,0
DA:318,0
DA:323,13
DA:324,13
DA:325,13
DA:332,13
DA:333,13
DA:334,13
DA:338,0
DA:339,0
DA:340,0
DA:348,6
DA:349,6
DA:350,6
DA:351,6
DA:352,6
DA:353,6
DA:355,6
DA:356,6
DA:357,6
DA:358,6
DA:359,6
DA:360,6
DA:361,6
DA:370,1
DA:371,1
DA:372,1
DA:373,1
DA:374,1
DA:375,1
DA:378,1
DA:379,1
DA:380,1
DA:381,1
DA:382,1
DA:383,1
DA:384,1
DA:385,1
DA:386,1
DA:389,1
DA:390,1
DA:391,1
DA:392,1
DA:393,1
DA:394,1
DA:397,1
DA:398,1
DA:399,1
BRF:0
BRH:0
LF:155
LH:135
end_of_record
SF:/home/strandgate/Development/ecoPrimals/phase2/rhizoCrypt/crates/rhizo-crypt-core/src/dehydration.rs
FN:57,_RNCNCNvMNtCsid3wTlZBOIR_16rhizo_crypt_core11dehydrationNtB6_18DehydrationSummary25has_required_attestations00B8_
FN:57,_RNCNvMNtCsid3wTlZBOIR_16rhizo_crypt_core11dehydrationNtB4_18DehydrationSummary25has_required_attestations0B6_
FN:287,_RINvMs1_NtCsid3wTlZBOIR_16rhizo_crypt_core11dehydrationNtB6_25DehydrationSummaryBuilder3newpEB8_
FN:62,_RNvMNtCs7YQQ0vypdx3_16rhizo_crypt_core11dehydrationNtB2_18DehydrationSummary12compute_hash
FN:338,_RNvMs1_NtCs7YQQ0vypdx3_16rhizo_crypt_core11dehydrationNtB5_25DehydrationSummaryBuilder10with_agent
FN:331,_RNvMs1_NtCs7YQQ0vypdx3_16rhizo_crypt_core11dehydrationNtB5_25DehydrationSummaryBuilder11with_result
FN:54,_RNvMNtCs7YQQ0vypdx3_16rhizo_crypt_core11dehydrationNtB2_18DehydrationSummary25has_required_attestations
FN:245,_RNvMs0_NtCs7YQQ0vypdx3_16rhizo_crypt_core11dehydrationNtB5_17DehydrationStatus11is_complete
FN:257,_RNvMs0_NtCs7YQQ0vypdx3_16rhizo_crypt_core11dehydrationNtB5_17DehydrationStatus14is_in_progress
FN:251,_RNvMs0_NtCs7YQQ0vypdx3_16rhizo_crypt_core11dehydrationNtB5_17DehydrationStatus9is_failed
FN:310,_RNvMs1_NtCs7YQQ0vypdx3_16rhizo_crypt_core11dehydrationNtB5_25DehydrationSummaryBuilder12with_outcome
FN:345,_RNvMs1_NtCs7YQQ0vypdx3_16rhizo_crypt_core11dehydrationNtB5_25DehydrationSummaryBuilder16with_attestation
FN:317,_RNvMs1_NtCs7YQQ0vypdx3_16rhizo_crypt_core11dehydrationNtB5_25DehydrationSummaryBuilder17with_vertex_count
FN:324,_RNvMs1_NtCs7YQQ0vypdx3_16rhizo_crypt_core11dehydrationNtB5_25DehydrationSummaryBuilder18with_payload_bytes
FN:352,_RNvMs1_NtCs7YQQ0vypdx3_16rhizo_crypt_core11dehydrationNtB5_25DehydrationSummaryBuilder5build
FN:195,_RNvMs_NtCs7YQQ0vypdx3_16rhizo_crypt_core11dehydrationNtB4_17DehydrationConfig4full
FN:183,_RNvMs_NtCs7YQQ0vypdx3_16rhizo_crypt_core11dehydrationNtB4_17DehydrationConfig7minimal
FN:415,_RNvNtNtCs7YQQ0vypdx3_16rhizo_crypt_core11dehydration5testss_23test_dehydration_config
FN:392,_RNvNtNtCs7YQQ0vypdx3_16rhizo_crypt_core11dehydration5testss_23test_dehydration_status
FN:426,_RNvNtNtCs7YQQ0vypdx3_16rhizo_crypt_core11dehydration5testss_26test_attestation_statement
FN:442,_RNvNtNtCs7YQQ0vypdx3_16rhizo_crypt_core11dehydration5testss_30test_has_required_attestations
FN:375,_RNvNtNtCs7YQQ0vypdx3_16rhizo_crypt_core11dehydration5testss_32test_dehydration_summary_builder
FN:287,_RINvMs1_NtCs7YQQ0vypdx3_16rhizo_crypt_core11dehydrationNtB6_25DehydrationSummaryBuilder3newReEB8_
FN:57,_RNCNCNvMNtCs7YQQ0vypdx3_16rhizo_crypt_core11dehydrationNtB6_18DehydrationSummary25has_required_attestations00B8_
FN:57,_RNCNvMNtCs7YQQ0vypdx3_16rhizo_crypt_core11dehydrationNtB4_18DehydrationSummary25has_required_attestations0B6_
FNDA:0,_RNCNCNvMNtCsid3wTlZBOIR_16rhizo_crypt_core11dehydrationNtB6_18DehydrationSummary25has_required_attestations00B8_
FNDA:0,_RNCNvMNtCsid3wTlZBOIR_16rhizo_crypt_core11dehydrationNtB4_18DehydrationSummary25has_required_attestations0B6_
FNDA:0,_RINvMs1_NtCsid3wTlZBOIR_16rhizo_crypt_core11dehydrationNtB6_25DehydrationSummaryBuilder3newpEB8_
FNDA:0,_RNvMNtCs7YQQ0vypdx3_16rhizo_crypt_core11dehydrationNtB2_18DehydrationSummary12compute_hash
FNDA:0,_RNvMs1_NtCs7YQQ0vypdx3_16rhizo_crypt_core11dehydrationNtB5_25DehydrationSummaryBuilder10with_agent
FNDA:0,_RNvMs1_NtCs7YQQ0vypdx3_16rhizo_crypt_core11dehydrationNtB5_25DehydrationSummaryBuilder11with_result
FNDA:2,_RNvMNtCs7YQQ0vypdx3_16rhizo_crypt_core11dehydrationNtB2_18DehydrationSummary25has_required_attestations
FNDA:2,_RNvMs0_NtCs7YQQ0vypdx3_16rhizo_crypt_core11dehydrationNtB5_17DehydrationStatus11is_complete
FNDA:2,_RNvMs0_NtCs7YQQ0vypdx3_16rhizo_crypt_core11dehydrationNtB5_17DehydrationStatus14is_in_progress
FNDA:1,_RNvMs0_NtCs7YQQ0vypdx3_16rhizo_crypt_core11dehydrationNtB5_17DehydrationStatus9is_failed
FNDA:1,_RNvMs1_NtCs7YQQ0vypdx3_16rhizo_crypt_core11dehydrationNtB5_25DehydrationSummaryBuilder12with_outcome
FNDA:1,_RNvMs1_NtCs7YQQ0vypdx3_16rhizo_crypt_core11dehydrationNtB5_25DehydrationSummaryBuilder16with_attestation
FNDA:1,_RNvMs1_NtCs7YQQ0vypdx3_16rhizo_crypt_core11dehydrationNtB5_25DehydrationSummaryBuilder17with_vertex_count
FNDA:1,_RNvMs1_NtCs7YQQ0vypdx3_16rhizo_crypt_core11dehydrationNtB5_25DehydrationSummaryBuilder18with_payload_bytes
FNDA:3,_RNvMs1_NtCs7YQQ0vypdx3_16rhizo_crypt_core11dehydrationNtB5_25DehydrationSummaryBuilder5build
FNDA:1,_RNvMs_NtCs7YQQ0vypdx3_16rhizo_crypt_core11dehydrationNtB4_17DehydrationConfig4full
FNDA:1,_RNvMs_NtCs7YQQ0vypdx3_16rhizo_crypt_core11dehydrationNtB4_17DehydrationConfig7minimal
FNDA:1,_RNvNtNtCs7YQQ0vypdx3_16rhizo_crypt_core11dehydration5testss_23test_dehydration_config
FNDA:1,_RNvNtNtCs7YQQ0vypdx3_16rhizo_crypt_core11dehydration5testss_23test_dehydration_status
FNDA:1,_RNvNtNtCs7YQQ0vypdx3_16rhizo_crypt_core11dehydration5testss_26test_attestation_statement
FNDA:1,_RNvNtNtCs7YQQ0vypdx3_16rhizo_crypt_core11dehydration5testss_30test_has_required_attestations
FNDA:1,_RNvNtNtCs7YQQ0vypdx3_16rhizo_crypt_core11dehydration5testss_32test_dehydration_summary_builder
FNDA:3,_RINvMs1_NtCs7YQQ0vypdx3_16rhizo_crypt_core11dehydrationNtB6_25DehydrationSummaryBuilder3newReEB8_
FNDA:2,_RNCNCNvMNtCs7YQQ0vypdx3_16rhizo_crypt_core11dehydrationNtB6_18DehydrationSummary25has_required_attestations00B8_
FNDA:2,_RNCNvMNtCs7YQQ0vypdx3_16rhizo_crypt_core11dehydrationNtB4_18DehydrationSummary25has_required_attestations0B6_
FNF:22
FNH:19
DA:54,2
DA:55,2
DA:56,2
DA:57,2
DA:58,2
DA:62,0
DA:63,0
DA:64,0
DA:65,0
DA:66,0
DA:67,0
DA:68,0
DA:69,0
DA:183,1
DA:184,1
DA:185,1
DA:186,1
DA:187,1
DA:188,1
DA:189,1
DA:190,1
DA:191,1
DA:195,1
DA:196,1
DA:197,1
DA:198,1
DA:199,1
DA:200,1
DA:201,1
DA:202,1
DA:203,1
DA:245,2
DA:246,2
DA:247,2
DA:251,1
DA:252,1
DA:253,1
DA:257,2
DA:258,1
DA:259,2
DA:265,2
DA:287,3
DA:288,3
DA:289,3
DA:290,3
DA:291,3
DA:292,3
DA:293,3
DA:294,3
DA:295,3
DA:296,3
DA:297,3
DA:298,3
DA:299,3
DA:300,3
DA:301,3
DA:302,3
DA:303,3
DA:304,3
DA:305,3
DA:306,3
DA:310,1
DA:311,1
DA:312,1
DA:313,1
DA:317,1
DA:318,1
DA:319,1
DA:320,1
DA:324,1
DA:325,1
DA:326,1
DA:327,1
DA:331,0
DA:332,0
DA:333,0
DA:334,0
DA:338,0
DA:339,0
DA:340,0
DA:341,0
DA:345,1
DA:346,1
DA:347,1
DA:348,1
DA:352,3
DA:353,3
DA:354,3
DA:355,3
DA:356,3
DA:357,3
DA:358,3
DA:359,3
DA:360,3
DA:361,3
DA:362,3
DA:363,3
DA:364,3
DA:365,3
DA:366,3
DA:375,1
DA:376,1
DA:377,1
DA:378,1
DA:379,1
DA:380,1
DA:381,1
DA:382,1
DA:383,1
DA:384,1
DA:385,1
DA:386,1
DA:387,1
DA:388,1
DA:389,1
DA:392,1
DA:393,1
DA:394,1
DA:396,1
DA:398,1
DA:399,1
DA:400,1
DA:401,1
DA:402,1
DA:403,1
DA:404,1
DA:405,1
DA:406,1
DA:408,1
DA:409,1
DA:410,1
DA:411,1
DA:412,1
DA:415,1
DA:416,1
DA:417,1
DA:418,1
DA:420,1
DA:421,1
DA:422,1
DA:423,1
DA:426,1
DA:427,1
DA:428,1
DA:429,1
DA:432,1
DA:433,1
DA:435,1
DA:437,0
DA:439,1
DA:442,1
DA:443,1
DA:444,1
DA:445,1
DA:446,1
DA:447,1
DA:448,1
DA:449,1
DA:450,1
DA:451,1
DA:452,1
DA:453,1
DA:454,1
DA:455,1
DA:456,1
DA:457,1
DA:458,1
DA:459,1
DA:460,1
DA:461,1
DA:462,1
DA:463,1
DA:464,1
BRF:0
BRH:0
LF:175
LH:158
end_of_record
SF:/home/strandgate/Development/ecoPrimals/phase2/rhizoCrypt/crates/rhizo-crypt-core/src/discovery.rs
FN:61,_RINvMNtCsid3wTlZBOIR_16rhizo_crypt_core9discoveryNtB3_10Capability6custompEB5_
FN:106,_RINvMs0_NtCsid3wTlZBOIR_16rhizo_crypt_core9discoveryNtB6_15ServiceEndpoint3newpEB8_
FN:187,_RINvMs2_NtCsid3wTlZBOIR_16rhizo_crypt_core9discoveryNtB6_17DiscoveryRegistry3newpEB8_
FN:221,_RNCNCNvMs2_NtCsid3wTlZBOIR_16rhizo_crypt_core9discoveryNtB9_17DiscoveryRegistry8discover00Bb_
FN:312,_RNCNCNvMs3_NtCsid3wTlZBOIR_16rhizo_crypt_core9discoveryNtB9_14ClientProvider16beardog_endpoint00Bb_
FN:336,_RNCNCNvMs3_NtCsid3wTlZBOIR_16rhizo_crypt_core9discoveryNtB9_14ClientProvider17nestgate_endpoint00Bb_
FN:324,_RNCNCNvMs3_NtCsid3wTlZBOIR_16rhizo_crypt_core9discoveryNtB9_14ClientProvider18loamspine_endpoint00Bb_
FN:258,_RNCNvMs2_NtCsid3wTlZBOIR_16rhizo_crypt_core9discoveryNtB7_17DiscoveryRegistry12get_endpoint0B9_
FN:253,_RNCNvMs2_NtCsid3wTlZBOIR_16rhizo_crypt_core9discoveryNtB7_17DiscoveryRegistry12is_available0B9_
FN:240,_RNCNvMs2_NtCsid3wTlZBOIR_16rhizo_crypt_core9discoveryNtB7_17DiscoveryRegistry13all_endpoints0B9_
FN:203,_RNCNvMs2_NtCsid3wTlZBOIR_16rhizo_crypt_core9discoveryNtB7_17DiscoveryRegistry17register_endpoint0B9_
FN:198,_RNCNvMs2_NtCsid3wTlZBOIR_16rhizo_crypt_core9discoveryNtB7_17DiscoveryRegistry20set_discovery_source0B9_
FN:216,_RNCNvMs2_NtCsid3wTlZBOIR_16rhizo_crypt_core9discoveryNtB7_17DiscoveryRegistry8discover0B9_
FN:288,_RNCNvMs3_NtCsid3wTlZBOIR_16rhizo_crypt_core9discoveryNtB7_14ClientProvider11has_beardog0B9_
FN:299,_RNCNvMs3_NtCsid3wTlZBOIR_16rhizo_crypt_core9discoveryNtB7_14ClientProvider12has_nestgate0B9_
FN:294,_RNCNvMs3_NtCsid3wTlZBOIR_16rhizo_crypt_core9discoveryNtB7_14ClientProvider13has_loamspine0B9_
FN:308,_RNCNvMs3_NtCsid3wTlZBOIR_16rhizo_crypt_core9discoveryNtB7_14ClientProvider16beardog_endpoint0B9_
FN:332,_RNCNvMs3_NtCsid3wTlZBOIR_16rhizo_crypt_core9discoveryNtB7_14ClientProvider17nestgate_endpoint0B9_
FN:320,_RNCNvMs3_NtCsid3wTlZBOIR_16rhizo_crypt_core9discoveryNtB7_14ClientProvider18loamspine_endpoint0B9_
FN:130,_RNvMs0_NtCsid3wTlZBOIR_16rhizo_crypt_core9discoveryNtB5_15ServiceEndpoint10is_healthyB7_
FN:123,_RNvMs0_NtCsid3wTlZBOIR_16rhizo_crypt_core9discoveryNtB5_15ServiceEndpoint14has_capabilityB7_
FN:156,_RNvMs1_NtCsid3wTlZBOIR_16rhizo_crypt_core9discoveryNtB5_15DiscoveryStatus12is_availableB7_
FN:248,_RNvMs2_NtCsid3wTlZBOIR_16rhizo_crypt_core9discoveryNtB5_17DiscoveryRegistry10local_nameB7_
FN:336,_RNCNCNvMs3_NtCs7YQQ0vypdx3_16rhizo_crypt_core9discoveryNtB9_14ClientProvider17nestgate_endpoint00Bb_
FN:324,_RNCNCNvMs3_NtCs7YQQ0vypdx3_16rhizo_crypt_core9discoveryNtB9_14ClientProvider18loamspine_endpoint00Bb_
FN:240,_RNCNvMs2_NtCs7YQQ0vypdx3_16rhizo_crypt_core9discoveryNtB7_17DiscoveryRegistry13all_endpoints0B9_
FN:198,_RNCNvMs2_NtCs7YQQ0vypdx3_16rhizo_crypt_core9discoveryNtB7_17DiscoveryRegistry20set_discovery_source0B9_
FN:299,_RNCNvMs3_NtCs7YQQ0vypdx3_16rhizo_crypt_core9discoveryNtB7_14ClientProvider12has_nestgate0B9_
FN:294,_RNCNvMs3_NtCs7YQQ0vypdx3_16rhizo_crypt_core9discoveryNtB7_14ClientProvider13has_loamspine0B9_
FN:332,_RNCNvMs3_NtCs7YQQ0vypdx3_16rhizo_crypt_core9discoveryNtB7_14ClientProvider17nestgate_endpoint0B9_
FN:320,_RNCNvMs3_NtCs7YQQ0vypdx3_16rhizo_crypt_core9discoveryNtB7_14ClientProvider18loamspine_endpoint0B9_
FN:123,_RNvMs0_NtCs7YQQ0vypdx3_16rhizo_crypt_core9discoveryNtB5_15ServiceEndpoint14has_capabilityB7_
FN:162,_RNvMs1_NtCs7YQQ0vypdx3_16rhizo_crypt_core9discoveryNtB5_15DiscoveryStatus14first_endpoint
FN:248,_RNvMs2_NtCs7YQQ0vypdx3_16rhizo_crypt_core9discoveryNtB5_17DiscoveryRegistry10local_nameB7_
FN:240,_RNvMs2_NtCs7YQQ0vypdx3_16rhizo_crypt_core9discoveryNtB5_17DiscoveryRegistry13all_endpoints
FN:198,_RNvMs2_NtCs7YQQ0vypdx3_16rhizo_crypt_core9discoveryNtB5_17DiscoveryRegistry20set_discovery_source
FN:299,_RNvMs3_NtCs7YQQ0vypdx3_16rhizo_crypt_core9discoveryNtB5_14ClientProvider12has_nestgate
FN:294,_RNvMs3_NtCs7YQQ0vypdx3_16rhizo_crypt_core9discoveryNtB5_14ClientProvider13has_loamspine
FN:332,_RNvMs3_NtCs7YQQ0vypdx3_16rhizo_crypt_core9discoveryNtB5_14ClientProvider17nestgate_endpoint
FN:320,_RNvMs3_NtCs7YQQ0vypdx3_16rhizo_crypt_core9discoveryNtB5_14ClientProvider18loamspine_endpoint
FN:130,_RNvMs0_NtCs7YQQ0vypdx3_16rhizo_crypt_core9discoveryNtB5_15ServiceEndpoint10is_healthyB7_
FN:156,_RNvMs1_NtCs7YQQ0vypdx3_16rhizo_crypt_core9discoveryNtB5_15DiscoveryStatus12is_availableB7_
FN:258,_RNvMs2_NtCs7YQQ0vypdx3_16rhizo_crypt_core9discoveryNtB5_17DiscoveryRegistry12get_endpoint
FN:253,_RNvMs2_NtCs7YQQ0vypdx3_16rhizo_crypt_core9discoveryNtB5_17DiscoveryRegistry12is_available
FN:203,_RNvMs2_NtCs7YQQ0vypdx3_16rhizo_crypt_core9discoveryNtB5_17DiscoveryRegistry17register_endpoint
FN:216,_RNvMs2_NtCs7YQQ0vypdx3_16rhizo_crypt_core9discoveryNtB5_17DiscoveryRegistry8discover
FN:288,_RNvMs3_NtCs7YQQ0vypdx3_16rhizo_crypt_core9discoveryNtB5_14ClientProvider11has_beardog
FN:308,_RNvMs3_NtCs7YQQ0vypdx3_16rhizo_crypt_core9discoveryNtB5_14ClientProvider16beardog_endpoint
FN:281,_RNvMs3_NtCs7YQQ0vypdx3_16rhizo_crypt_core9discoveryNtB5_14ClientProvider3new
FN:67,_RNvXs_NtCs7YQQ0vypdx3_16rhizo_crypt_core9discoveryNtB4_10CapabilityNtNtCs9sjCchOt1K7_4core3fmt7Display3fmt
FN:377,_RNCNvNtNtCs7YQQ0vypdx3_16rhizo_crypt_core9discovery5testss_20test_client_provider0B7_
FN:360,_RNCNvNtNtCs7YQQ0vypdx3_16rhizo_crypt_core9discovery5testss_26test_registry_registration0B7_
FN:352,_RNCNvNtNtCs7YQQ0vypdx3_16rhizo_crypt_core9discovery5testss_28test_registry_self_knowledge0B7_
FN:377,_RNvNtNtCs7YQQ0vypdx3_16rhizo_crypt_core9discovery5testss_20test_client_provider
FN:346,_RNvNtNtCs7YQQ0vypdx3_16rhizo_crypt_core9discovery5testss_23test_capability_display
FN:360,_RNvNtNtCs7YQQ0vypdx3_16rhizo_crypt_core9discovery5testss_26test_registry_registration
FN:352,_RNvNtNtCs7YQQ0vypdx3_16rhizo_crypt_core9discovery5testss_28test_registry_self_knowledge
FN:61,_RINvMNtCs7YQQ0vypdx3_16rhizo_crypt_core9discoveryNtB3_10Capability6customReEB5_
FN:106,_RINvMs0_NtCs7YQQ0vypdx3_16rhizo_crypt_core9discoveryNtB6_15ServiceEndpoint3newNtNtCs6bBekJvxEMJ_5alloc6string6StringEB8_
FN:106,_RINvMs0_NtCs7YQQ0vypdx3_16rhizo_crypt_core9discoveryNtB6_15ServiceEndpoint3newReEB8_
FN:187,_RINvMs2_NtCs7YQQ0vypdx3_16rhizo_crypt_core9discoveryNtB6_17DiscoveryRegistry3newReEB8_
FN:221,_RNCNCNvMs2_NtCs7YQQ0vypdx3_16rhizo_crypt_core9discoveryNtB9_17DiscoveryRegistry8discover00Bb_
FN:312,_RNCNCNvMs3_NtCs7YQQ0vypdx3_16rhizo_crypt_core9discoveryNtB9_14ClientProvider16beardog_endpoint00Bb_
FN:258,_RNCNvMs2_NtCs7YQQ0vypdx3_16rhizo_crypt_core9discoveryNtB7_17DiscoveryRegistry12get_endpoint0B9_
FN:253,_RNCNvMs2_NtCs7YQQ0vypdx3_16rhizo_crypt_core9discoveryNtB7_17DiscoveryRegistry12is_available0B9_
FN:203,_RNCNvMs2_NtCs7YQQ0vypdx3_16rhizo_crypt_core9discoveryNtB7_17DiscoveryRegistry17register_endpoint0B9_
FN:216,_RNCNvMs2_NtCs7YQQ0vypdx3_16rhizo_crypt_core9discoveryNtB7_17DiscoveryRegistry8discover0B9_
FN:288,_RNCNvMs3_NtCs7YQQ0vypdx3_16rhizo_crypt_core9discoveryNtB7_14ClientProvider11has_beardog0B9_
FN:308,_RNCNvMs3_NtCs7YQQ0vypdx3_16rhizo_crypt_core9discoveryNtB7_14ClientProvider16beardog_endpoint0B9_
FNDA:0,_RINvMNtCsid3wTlZBOIR_16rhizo_crypt_core9discoveryNtB3_10Capability6custompEB5_
FNDA:0,_RINvMs0_NtCsid3wTlZBOIR_16rhizo_crypt_core9discoveryNtB6_15ServiceEndpoint3newpEB8_
FNDA:0,_RINvMs2_NtCsid3wTlZBOIR_16rhizo_crypt_core9discoveryNtB6_17DiscoveryRegistry3newpEB8_
FNDA:0,_RNCNCNvMs2_NtCsid3wTlZBOIR_16rhizo_crypt_core9discoveryNtB9_17DiscoveryRegistry8discover00Bb_
FNDA:0,_RNCNCNvMs3_NtCsid3wTlZBOIR_16rhizo_crypt_core9discoveryNtB9_14ClientProvider16beardog_endpoint00Bb_
FNDA:0,_RNCNCNvMs3_NtCsid3wTlZBOIR_16rhizo_crypt_core9discoveryNtB9_14ClientProvider17nestgate_endpoint00Bb_
FNDA:0,_RNCNCNvMs3_NtCsid3wTlZBOIR_16rhizo_crypt_core9discoveryNtB9_14ClientProvider18loamspine_endpoint00Bb_
FNDA:0,_RNCNvMs2_NtCsid3wTlZBOIR_16rhizo_crypt_core9discoveryNtB7_17DiscoveryRegistry12get_endpoint0B9_
FNDA:0,_RNCNvMs2_NtCsid3wTlZBOIR_16rhizo_crypt_core9discoveryNtB7_17DiscoveryRegistry12is_available0B9_
FNDA:0,_RNCNvMs2_NtCsid3wTlZBOIR_16rhizo_crypt_core9discoveryNtB7_17DiscoveryRegistry13all_endpoints0B9_
FNDA:0,_RNCNvMs2_NtCsid3wTlZBOIR_16rhizo_crypt_core9discoveryNtB7_17DiscoveryRegistry17register_endpoint0B9_
FNDA:0,_RNCNvMs2_NtCsid3wTlZBOIR_16rhizo_crypt_core9discoveryNtB7_17DiscoveryRegistry20set_discovery_source0B9_
FNDA:0,_RNCNvMs2_NtCsid3wTlZBOIR_16rhizo_crypt_core9discoveryNtB7_17DiscoveryRegistry8discover0B9_
FNDA:0,_RNCNvMs3_NtCsid3wTlZBOIR_16rhizo_crypt_core9discoveryNtB7_14ClientProvider11has_beardog0B9_
FNDA:0,_RNCNvMs3_NtCsid3wTlZBOIR_16rhizo_crypt_core9discoveryNtB7_14ClientProvider12has_nestgate0B9_
FNDA:0,_RNCNvMs3_NtCsid3wTlZBOIR_16rhizo_crypt_core9discoveryNtB7_14ClientProvider13has_loamspine0B9_
FNDA:0,_RNCNvMs3_NtCsid3wTlZBOIR_16rhizo_crypt_core9discoveryNtB7_14ClientProvider16beardog_endpoint0B9_
FNDA:0,_RNCNvMs3_NtCsid3wTlZBOIR_16rhizo_crypt_core9discoveryNtB7_14ClientProvider17nestgate_endpoint0B9_
FNDA:0,_RNCNvMs3_NtCsid3wTlZBOIR_16rhizo_crypt_core9discoveryNtB7_14ClientProvider18loamspine_endpoint0B9_
FNDA:0,_RNvMs0_NtCsid3wTlZBOIR_16rhizo_crypt_core9discoveryNtB5_15ServiceEndpoint10is_healthyB7_
FNDA:0,_RNvMs0_NtCsid3wTlZBOIR_16rhizo_crypt_core9discoveryNtB5_15ServiceEndpoint14has_capabilityB7_
FNDA:0,_RNvMs1_NtCsid3wTlZBOIR_16rhizo_crypt_core9discoveryNtB5_15DiscoveryStatus12is_availableB7_
FNDA:0,_RNvMs2_NtCsid3wTlZBOIR_16rhizo_crypt_core9discoveryNtB5_17DiscoveryRegistry10local_nameB7_
FNDA:0,_RNCNCNvMs3_NtCs7YQQ0vypdx3_16rhizo_crypt_core9discoveryNtB9_14ClientProvider17nestgate_endpoint00Bb_
FNDA:0,_RNCNCNvMs3_NtCs7YQQ0vypdx3_16rhizo_crypt_core9discoveryNtB9_14ClientProvider18loamspine_endpoint00Bb_
FNDA:0,_RNCNvMs2_NtCs7YQQ0vypdx3_16rhizo_crypt_core9discoveryNtB7_17DiscoveryRegistry13all_endpoints0B9_
FNDA:0,_RNCNvMs2_NtCs7YQQ0vypdx3_16rhizo_crypt_core9discoveryNtB7_17DiscoveryRegistry20set_discovery_source0B9_
FNDA:0,_RNCNvMs3_NtCs7YQQ0vypdx3_16rhizo_crypt_core9discoveryNtB7_14ClientProvider12has_nestgate0B9_
FNDA:0,_RNCNvMs3_NtCs7YQQ0vypdx3_16rhizo_crypt_core9discoveryNtB7_14ClientProvider13has_loamspine0B9_
FNDA:0,_RNCNvMs3_NtCs7YQQ0vypdx3_16rhizo_crypt_core9discoveryNtB7_14ClientProvider17nestgate_endpoint0B9_
FNDA:0,_RNCNvMs3_NtCs7YQQ0vypdx3_16rhizo_crypt_core9discoveryNtB7_14ClientProvider18loamspine_endpoint0B9_
FNDA:0,_RNvMs0_NtCs7YQQ0vypdx3_16rhizo_crypt_core9discoveryNtB5_15ServiceEndpoint14has_capabilityB7_
FNDA:0,_RNvMs1_NtCs7YQQ0vypdx3_16rhizo_crypt_core9discoveryNtB5_15DiscoveryStatus14first_endpoint
FNDA:0,_RNvMs2_NtCs7YQQ0vypdx3_16rhizo_crypt_core9discoveryNtB5_17DiscoveryRegistry10local_nameB7_
FNDA:0,_RNvMs2_NtCs7YQQ0vypdx3_16rhizo_crypt_core9discoveryNtB5_17DiscoveryRegistry13all_endpoints
FNDA:0,_RNvMs2_NtCs7YQQ0vypdx3_16rhizo_crypt_core9discoveryNtB5_17DiscoveryRegistry20set_discovery_source
FNDA:0,_RNvMs3_NtCs7YQQ0vypdx3_16rhizo_crypt_core9discoveryNtB5_14ClientProvider12has_nestgate
FNDA:0,_RNvMs3_NtCs7YQQ0vypdx3_16rhizo_crypt_core9discoveryNtB5_14ClientProvider13has_loamspine
FNDA:0,_RNvMs3_NtCs7YQQ0vypdx3_16rhizo_crypt_core9discoveryNtB5_14ClientProvider17nestgate_endpoint
FNDA:0,_RNvMs3_NtCs7YQQ0vypdx3_16rhizo_crypt_core9discoveryNtB5_14ClientProvider18loamspine_endpoint
FNDA:6,_RNvMs0_NtCs7YQQ0vypdx3_16rhizo_crypt_core9discoveryNtB5_15ServiceEndpoint10is_healthyB7_
FNDA:8,_RNvMs1_NtCs7YQQ0vypdx3_16rhizo_crypt_core9discoveryNtB5_15DiscoveryStatus12is_availableB7_
FNDA:1,_RNvMs2_NtCs7YQQ0vypdx3_16rhizo_crypt_core9discoveryNtB5_17DiscoveryRegistry12get_endpoint
FNDA:8,_RNvMs2_NtCs7YQQ0vypdx3_16rhizo_crypt_core9discoveryNtB5_17DiscoveryRegistry12is_available
FNDA:3,_RNvMs2_NtCs7YQQ0vypdx3_16rhizo_crypt_core9discoveryNtB5_17DiscoveryRegistry17register_endpoint
FNDA:9,_RNvMs2_NtCs7YQQ0vypdx3_16rhizo_crypt_core9discoveryNtB5_17DiscoveryRegistry8discover
FNDA:2,_RNvMs3_NtCs7YQQ0vypdx3_16rhizo_crypt_core9discoveryNtB5_14ClientProvider11has_beardog
FNDA:1,_RNvMs3_NtCs7YQQ0vypdx3_16rhizo_crypt_core9discoveryNtB5_14ClientProvider16beardog_endpoint
FNDA:1,_RNvMs3_NtCs7YQQ0vypdx3_16rhizo_crypt_core9discoveryNtB5_14ClientProvider3new
FNDA:2,_RNvXs_NtCs7YQQ0vypdx3_16rhizo_crypt_core9discoveryNtB4_10CapabilityNtNtCs9sjCchOt1K7_4core3fmt7Display3fmt
FNDA:1,_RNCNvNtNtCs7YQQ0vypdx3_16rhizo_crypt_core9discovery5testss_20test_client_provider0B7_
FNDA:1,_RNCNvNtNtCs7YQQ0vypdx3_16rhizo_crypt_core9discovery5testss_26test_registry_registration0B7_
FNDA:1,_RNCNvNtNtCs7YQQ0vypdx3_16rhizo_crypt_core9discovery5testss_28test_registry_self_knowledge0B7_
FNDA:1,_RNvNtNtCs7YQQ0vypdx3_16rhizo_crypt_core9discovery5testss_20test_client_provider
FNDA:1,_RNvNtNtCs7YQQ0vypdx3_16rhizo_crypt_core9discovery5testss_23test_capability_display
FNDA:1,_RNvNtNtCs7YQQ0vypdx3_16rhizo_crypt_core9discovery5testss_26test_registry_registration
FNDA:1,_RNvNtNtCs7YQQ0vypdx3_16rhizo_crypt_core9discovery5testss_28test_registry_self_knowledge
FNDA:1,_RINvMNtCs7YQQ0vypdx3_16rhizo_crypt_core9discoveryNtB3_10Capability6customReEB5_
FNDA:1,_RINvMs0_NtCs7YQQ0vypdx3_16rhizo_crypt_core9discoveryNtB6_15ServiceEndpoint3newNtNtCs6bBekJvxEMJ_5alloc6string6StringEB8_
FNDA:2,_RINvMs0_NtCs7YQQ0vypdx3_16rhizo_crypt_core9discoveryNtB6_15ServiceEndpoint3newReEB8_
FNDA:7,_RINvMs2_NtCs7YQQ0vypdx3_16rhizo_crypt_core9discoveryNtB6_17DiscoveryRegistry3newReEB8_
FNDA:6,_RNCNCNvMs2_NtCs7YQQ0vypdx3_16rhizo_crypt_core9discoveryNtB9_17DiscoveryRegistry8discover00Bb_
FNDA:0,_RNCNCNvMs3_NtCs7YQQ0vypdx3_16rhizo_crypt_core9discoveryNtB9_14ClientProvider16beardog_endpoint00Bb_
FNDA:1,_RNCNvMs2_NtCs7YQQ0vypdx3_16rhizo_crypt_core9discoveryNtB7_17DiscoveryRegistry12get_endpoint0B9_
FNDA:8,_RNCNvMs2_NtCs7YQQ0vypdx3_16rhizo_crypt_core9discoveryNtB7_17DiscoveryRegistry12is_available0B9_
FNDA:3,_RNCNvMs2_NtCs7YQQ0vypdx3_16rhizo_crypt_core9discoveryNtB7_17DiscoveryRegistry17register_endpoint0B9_
FNDA:9,_RNCNvMs2_NtCs7YQQ0vypdx3_16rhizo_crypt_core9discoveryNtB7_17DiscoveryRegistry8discover0B9_
FNDA:2,_RNCNvMs3_NtCs7YQQ0vypdx3_16rhizo_crypt_core9discoveryNtB7_14ClientProvider11has_beardog0B9_
FNDA:1,_RNCNvMs3_NtCs7YQQ0vypdx3_16rhizo_crypt_core9discoveryNtB7_14ClientProvider16beardog_endpoint0B9_
FNF:45
FNH:27
DA:61,1
DA:62,1
DA:63,1
DA:67,2
DA:68,2
DA:69,1
DA:70,0
DA:71,0
DA:72,0
DA:73,0
DA:74,0
DA:75,0
DA:76,0
DA:77,0
DA:78,0
DA:79,1
DA:81,2
DA:106,3
DA:107,3
DA:108,3
DA:109,3
DA:110,3
DA:111,3
DA:112,3
DA:113,3
DA:114,3
DA:115,3
DA:116,3
DA:117,3
DA:118,3
DA:123,0
DA:124,0
DA:125,0
DA:130,6
DA:131,6
DA:132,6
DA:156,8
DA:157,8
DA:158,8
DA:162,0
DA:163,0
DA:164,0
DA:165,0
DA:167,0
DA:187,7
DA:188,7
DA:189,7
DA:190,7
DA:191,7
DA:192,7
DA:193,7
DA:198,0
DA:199,0
DA:200,0
DA:203,3
DA:204,3
DA:205,9
DA:206,6
DA:207,6
DA:208,3
DA:216,9
DA:219,9
DA:220,9
DA:221,6
DA:222,6
DA:223,6
DA:224,0
DA:225,3
DA:229,3
DA:230,3
DA:231,3
DA:232,0
DA:233,0
DA:234,0
DA:235,0
DA:236,0
DA:237,9
DA:240,0
DA:241,0
DA:242,0
DA:243,0
DA:248,0
DA:249,0
DA:250,0
DA:253,8
DA:254,8
DA:255,8
DA:258,1
DA:259,1
DA:260,1
DA:261,0
DA:263,1
DA:281,1
DA:282,1
DA:283,1
DA:284,1
DA:285,1
DA:288,2
DA:289,2
DA:290,1
DA:291,2
DA:294,0
DA:295,0
DA:296,0
DA:299,0
DA:300,0
DA:301,0
DA:308,1
DA:309,1
DA:310,1
DA:311,1
DA:312,1
DA:313,1
DA:320,0
DA:321,0
DA:322,0
DA:323,0
DA:324,0
DA:325,0
DA:332,0
DA:333,0
DA:334,0
DA:335,0
DA:336,0
DA:337,0
DA:346,1
DA:347,1
DA:348,1
DA:349,1
DA:352,1
DA:353,1
DA:354,1
DA:355,1
DA:356,1
DA:357,1
DA:360,1
DA:361,1
DA:362,1
DA:363,1
DA:364,1
DA:365,1
DA:366,1
DA:367,1
DA:368,1
DA:369,1
DA:370,1
DA:371,1
DA:372,1
DA:373,1
DA:374,1
DA:377,1
DA:378,1
DA:379,1
DA:380,1
DA:381,1
DA:382,1
DA:383,1
DA:384,1
DA:385,1
DA:386,1
DA:387,1
DA:388,1
DA:389,1
DA:390,1
DA:391,1
DA:392,1
DA:393,1
DA:394,1
DA:395,1
BRF:0
BRH:0
LF:218
LH:157
end_of_record
SF:/home/strandgate/Development/ecoPrimals/phase2/rhizoCrypt/crates/rhizo-crypt-core/src/error.rs
FN:214,_RINvMNtCsid3wTlZBOIR_16rhizo_crypt_core5errorNtB3_15RhizoCryptError8internalReECsdcY13n2UsKC_11chaos_tests
FN:256,_RNvMNtCsid3wTlZBOIR_16rhizo_crypt_core5errorNtB2_15RhizoCryptError12is_not_found
FN:250,_RNvMNtCsid3wTlZBOIR_16rhizo_crypt_core5errorNtB2_15RhizoCryptError14is_recoverable
FN:232,_RNvMNtCsid3wTlZBOIR_16rhizo_crypt_core5errorNtB2_15RhizoCryptError16vertex_not_found
FN:226,_RNvMNtCsid3wTlZBOIR_16rhizo_crypt_core5errorNtB2_15RhizoCryptError17session_not_found
FN:238,_RINvMNtCsid3wTlZBOIR_16rhizo_crypt_core5errorNtB3_15RhizoCryptError11integrationpEB5_
FN:244,_RINvMNtCsid3wTlZBOIR_16rhizo_crypt_core5errorNtB3_15RhizoCryptError13invalid_inputpEB5_
FN:205,_RINvMNtCsid3wTlZBOIR_16rhizo_crypt_core5errorNtB3_15RhizoCryptError14invalid_configppEB5_
FN:199,_RINvMNtCsid3wTlZBOIR_16rhizo_crypt_core5errorNtB3_15RhizoCryptError6configpEB5_
FN:220,_RINvMNtCsid3wTlZBOIR_16rhizo_crypt_core5errorNtB3_15RhizoCryptError7storagepEB5_
FN:214,_RINvMNtCsid3wTlZBOIR_16rhizo_crypt_core5errorNtB3_15RhizoCryptError8internalpEB5_
FN:214,_RINvMNtCsid3wTlZBOIR_16rhizo_crypt_core5errorNtB3_15RhizoCryptError8internalReECsPnv9z7ECKg_9e2e_tests
FN:232,_RNvMNtCs7YQQ0vypdx3_16rhizo_crypt_core5errorNtB2_15RhizoCryptError16vertex_not_found
FN:226,_RNvMNtCs7YQQ0vypdx3_16rhizo_crypt_core5errorNtB2_15RhizoCryptError17session_not_found
FN:296,_RNvNtNtCs7YQQ0vypdx3_16rhizo_crypt_core5error5testss_17test_is_not_found
FN:276,_RNvNtNtCs7YQQ0vypdx3_16rhizo_crypt_core5error5testss_18test_error_display
FN:282,_RNvNtNtCs7YQQ0vypdx3_16rhizo_crypt_core5error5testss_19test_invalid_config
FN:289,_RNvNtNtCs7YQQ0vypdx3_16rhizo_crypt_core5error5testss_19test_is_recoverable
FN:238,_RINvMNtCs7YQQ0vypdx3_16rhizo_crypt_core5errorNtB3_15RhizoCryptError11integrationNtNtCs6bBekJvxEMJ_5alloc6string6StringEB5_
FN:238,_RINvMNtCs7YQQ0vypdx3_16rhizo_crypt_core5errorNtB3_15RhizoCryptError11integrationReEB5_
FN:244,_RINvMNtCs7YQQ0vypdx3_16rhizo_crypt_core5errorNtB3_15RhizoCryptError13invalid_inputNtNtCs6bBekJvxEMJ_5alloc6string6StringEB5_
FN:205,_RINvMNtCs7YQQ0vypdx3_16rhizo_crypt_core5errorNtB3_15RhizoCryptError14invalid_configReB1j_EB5_
FN:199,_RINvMNtCs7YQQ0vypdx3_16rhizo_crypt_core5errorNtB3_15RhizoCryptError6configReEB5_
FN:220,_RINvMNtCs7YQQ0vypdx3_16rhizo_crypt_core5errorNtB3_15RhizoCryptError7storageReEB5_
FN:214,_RINvMNtCs7YQQ0vypdx3_16rhizo_crypt_core5errorNtB3_15RhizoCryptError8internalReEB5_
FN:256,_RNvMNtCs7YQQ0vypdx3_16rhizo_crypt_core5errorNtB2_15RhizoCryptError12is_not_found
FN:250,_RNvMNtCs7YQQ0vypdx3_16rhizo_crypt_core5errorNtB2_15RhizoCryptError14is_recoverable
FN:199,_RINvMNtCsid3wTlZBOIR_16rhizo_crypt_core5errorNtB3_15RhizoCryptError6configReECs4yQX48jEriP_15rhizo_crypt_rpc
FN:214,_RINvMNtCsid3wTlZBOIR_16rhizo_crypt_core5errorNtB3_15RhizoCryptError8internalReECscGNtvOf38BJ_15rpc_integration
FNDA:2,_RINvMNtCsid3wTlZBOIR_16rhizo_crypt_core5errorNtB3_15RhizoCryptError8internalReECsdcY13n2UsKC_11chaos_tests
FNDA:0,_RNvMNtCsid3wTlZBOIR_16rhizo_crypt_core5errorNtB2_15RhizoCryptError12is_not_found
FNDA:0,_RNvMNtCsid3wTlZBOIR_16rhizo_crypt_core5errorNtB2_15RhizoCryptError14is_recoverable
FNDA:0,_RNvMNtCsid3wTlZBOIR_16rhizo_crypt_core5errorNtB2_15RhizoCryptError16vertex_not_found
FNDA:3,_RNvMNtCsid3wTlZBOIR_16rhizo_crypt_core5errorNtB2_15RhizoCryptError17session_not_found
FNDA:0,_RINvMNtCsid3wTlZBOIR_16rhizo_crypt_core5errorNtB3_15RhizoCryptError11integrationpEB5_
FNDA:0,_RINvMNtCsid3wTlZBOIR_16rhizo_crypt_core5errorNtB3_15RhizoCryptError13invalid_inputpEB5_
FNDA:0,_RINvMNtCsid3wTlZBOIR_16rhizo_crypt_core5errorNtB3_15RhizoCryptError14invalid_configppEB5_
FNDA:0,_RINvMNtCsid3wTlZBOIR_16rhizo_crypt_core5errorNtB3_15RhizoCryptError6configpEB5_
FNDA:0,_RINvMNtCsid3wTlZBOIR_16rhizo_crypt_core5errorNtB3_15RhizoCryptError7storagepEB5_
FNDA:0,_RINvMNtCsid3wTlZBOIR_16rhizo_crypt_core5errorNtB3_15RhizoCryptError8internalpEB5_
FNDA:1,_RINvMNtCsid3wTlZBOIR_16rhizo_crypt_core5errorNtB3_15RhizoCryptError8internalReECsPnv9z7ECKg_9e2e_tests
FNDA:0,_RNvMNtCs7YQQ0vypdx3_16rhizo_crypt_core5errorNtB2_15RhizoCryptError16vertex_not_found
FNDA:0,_RNvMNtCs7YQQ0vypdx3_16rhizo_crypt_core5errorNtB2_15RhizoCryptError17session_not_found
FNDA:1,_RNvNtNtCs7YQQ0vypdx3_16rhizo_crypt_core5error5testss_17test_is_not_found
FNDA:1,_RNvNtNtCs7YQQ0vypdx3_16rhizo_crypt_core5error5testss_18test_error_display
FNDA:1,_RNvNtNtCs7YQQ0vypdx3_16rhizo_crypt_core5error5testss_19test_invalid_config
FNDA:1,_RNvNtNtCs7YQQ0vypdx3_16rhizo_crypt_core5error5testss_19test_is_recoverable
FNDA:2,_RINvMNtCs7YQQ0vypdx3_16rhizo_crypt_core5errorNtB3_15RhizoCryptError11integrationNtNtCs6bBekJvxEMJ_5alloc6string6StringEB5_
FNDA:14,_RINvMNtCs7YQQ0vypdx3_16rhizo_crypt_core5errorNtB3_15RhizoCryptError11integrationReEB5_
FNDA:1,_RINvMNtCs7YQQ0vypdx3_16rhizo_crypt_core5errorNtB3_15RhizoCryptError13invalid_inputNtNtCs6bBekJvxEMJ_5alloc6string6StringEB5_
FNDA:1,_RINvMNtCs7YQQ0vypdx3_16rhizo_crypt_core5errorNtB3_15RhizoCryptError14invalid_configReB1j_EB5_
FNDA:3,_RINvMNtCs7YQQ0vypdx3_16rhizo_crypt_core5errorNtB3_15RhizoCryptError6configReEB5_
FNDA:1,_RINvMNtCs7YQQ0vypdx3_16rhizo_crypt_core5errorNtB3_15RhizoCryptError7storageReEB5_
FNDA:1,_RINvMNtCs7YQQ0vypdx3_16rhizo_crypt_core5errorNtB3_15RhizoCryptError8internalReEB5_
FNDA:2,_RNvMNtCs7YQQ0vypdx3_16rhizo_crypt_core5errorNtB2_15RhizoCryptError12is_not_found
FNDA:3,_RNvMNtCs7YQQ0vypdx3_16rhizo_crypt_core5errorNtB2_15RhizoCryptError14is_recoverable
FNDA:1,_RINvMNtCsid3wTlZBOIR_16rhizo_crypt_core5errorNtB3_15RhizoCryptError6configReECs4yQX48jEriP_15rhizo_crypt_rpc
FNDA:0,_RINvMNtCsid3wTlZBOIR_16rhizo_crypt_core5errorNtB3_15RhizoCryptError8internalReECscGNtvOf38BJ_15rpc_integration
FNF:14
FNH:13
DA:199,4
DA:200,4
DA:201,4
DA:205,1
DA:206,1
DA:207,1
DA:208,1
DA:209,1
DA:210,1
DA:214,4
DA:215,4
DA:216,4
DA:220,1
DA:221,1
DA:222,1
DA:226,3
DA:227,3
DA:228,3
DA:232,0
DA:233,0
DA:234,0
DA:238,16
DA:239,16
DA:240,16
DA:244,1
DA:245,1
DA:246,1
DA:250,3
DA:251,3
DA:252,3
DA:256,2
DA:257,1
DA:258,2
DA:264,2
DA:276,1
DA:277,1
DA:278,1
DA:279,1
DA:282,1
DA:283,1
DA:284,1
DA:285,1
DA:286,1
DA:289,1
DA:290,1
DA:291,1
DA:292,1
DA:293,1
DA:296,1
DA:297,1
DA:298,1
DA:299,1
DA:300,1
BRF:0
BRH:0
LF:53
LH:50
end_of_record
SF:/home/strandgate/Development/ecoPrimals/phase2/rhizoCrypt/crates/rhizo-crypt-core/src/event.rs
FN:259,_RNvMNtCs7YQQ0vypdx3_16rhizo_crypt_core5eventNtB2_9EventType4name
FN:182,_RNvMNtCs7YQQ0vypdx3_16rhizo_crypt_core5eventNtB2_9EventType6domain
FN:478,_RNvNtNtCs7YQQ0vypdx3_16rhizo_crypt_core5event5testss_20test_event_type_name
FN:437,_RNvNtNtCs7YQQ0vypdx3_16rhizo_crypt_core5event5testss_22test_event_type_domain
FN:490,_RNvNtNtCs7YQQ0vypdx3_16rhizo_crypt_core5event5testss_34test_session_outcome_serialization
FNDA:2,_RNvMNtCs7YQQ0vypdx3_16rhizo_crypt_core5eventNtB2_9EventType4name
FNDA:6,_RNvMNtCs7YQQ0vypdx3_16rhizo_crypt_core5eventNtB2_9EventType6domain
FNDA:1,_RNvNtNtCs7YQQ0vypdx3_16rhizo_crypt_core5event5testss_20test_event_type_name
FNDA:1,_RNvNtNtCs7YQQ0vypdx3_16rhizo_crypt_core5event5testss_22test_event_type_domain
FNDA:1,_RNvNtNtCs7YQQ0vypdx3_16rhizo_crypt_core5event5testss_34test_session_outcome_serialization
FNF:5
FNH:5
DA:182,6
DA:183,6
DA:187,1
DA:196,1
DA:206,1
DA:215,0
DA:231,1
DA:243,1
DA:249,0
DA:251,1
DA:252,1
DA:253,1
DA:255,6
DA:259,2
DA:260,2
DA:261,1
DA:264,1
DA:267,0
DA:270,0
DA:273,0
DA:276,0
DA:279,0
DA:280,0
DA:283,0
DA:286,0
DA:289,0
DA:292,0
DA:294,0
DA:298,0
DA:300,0
DA:303,0
DA:304,0
DA:307,0
DA:310,0
DA:313,0
DA:316,0
DA:319,0
DA:322,0
DA:325,0
DA:328,0
DA:329,0
DA:330,0
DA:331,0
DA:333,2
DA:437,1
DA:438,1
DA:439,1
DA:440,1
DA:441,1
DA:442,1
DA:443,1
DA:444,1
DA:445,1
DA:446,1
DA:447,1
DA:448,1
DA:449,1
DA:450,1
DA:451,1
DA:452,1
DA:453,1
DA:454,1
DA:455,1
DA:456,1
DA:457,1
DA:458,1
DA:459,1
DA:460,1
DA:461,1
DA:462,1
DA:463,1
DA:464,1
DA:465,1
DA:466,1
DA:467,1
DA:468,1
DA:469,1
DA:470,1
DA:471,1
DA:472,1
DA:473,1
DA:474,1
DA:475,1
DA:478,1
DA:479,1
DA:480,1
DA:481,1
DA:482,1
DA:483,1
DA:484,1
DA:485,1
DA:486,1
DA:487,1
DA:490,1
DA:491,1
DA:492,1
DA:493,1
DA:494,1
DA:495,1
DA:496,1
DA:497,1
BRF:0
BRH:0
LF:101
LH:73
end_of_record
SF:/home/strandgate/Development/ecoPrimals/phase2/rhizoCrypt/crates/rhizo-crypt-core/src/integration.rs
FN:240,_RINvMNtCsid3wTlZBOIR_16rhizo_crypt_core11integrationNtB3_13ServiceStatus11unavailablepEB5_
FN:219,_RINvMNtCsid3wTlZBOIR_16rhizo_crypt_core11integrationNtB3_13ServiceStatus7healthypEB5_
FN:228,_RINvMNtCsid3wTlZBOIR_16rhizo_crypt_core11integrationNtB3_13ServiceStatus9unhealthyppEB5_
FN:655,_RNCNCNvMs0_NtCsid3wTlZBOIR_16rhizo_crypt_core11integrationNtB9_13ClientFactory15commit_endpoint00Bb_
FN:658,_RNCNCNvMs0_NtCsid3wTlZBOIR_16rhizo_crypt_core11integrationNtB9_13ClientFactory15commit_endpoint0s_0Bb_
FN:642,_RNCNCNvMs0_NtCsid3wTlZBOIR_16rhizo_crypt_core11integrationNtB9_13ClientFactory16signing_endpoint00Bb_
FN:643,_RNCNCNvMs0_NtCsid3wTlZBOIR_16rhizo_crypt_core11integrationNtB9_13ClientFactory16signing_endpoint0s_0Bb_
FN:670,_RNCNCNvMs0_NtCsid3wTlZBOIR_16rhizo_crypt_core11integrationNtB9_13ClientFactory16storage_endpoint00Bb_
FN:673,_RNCNCNvMs0_NtCsid3wTlZBOIR_16rhizo_crypt_core11integrationNtB9_13ClientFactory16storage_endpoint0s_0Bb_
FN:651,_RNCNvMs0_NtCsid3wTlZBOIR_16rhizo_crypt_core11integrationNtB7_13ClientFactory15commit_endpoint0B9_
FN:638,_RNCNvMs0_NtCsid3wTlZBOIR_16rhizo_crypt_core11integrationNtB7_13ClientFactory16signing_endpoint0B9_
FN:666,_RNCNvMs0_NtCsid3wTlZBOIR_16rhizo_crypt_core11integrationNtB7_13ClientFactory16storage_endpoint0B9_
FN:683,_RNCNvMs0_NtCsid3wTlZBOIR_16rhizo_crypt_core11integrationNtB7_13ClientFactory18integration_status0B9_
FN:624,_RNCNvMs0_NtCsid3wTlZBOIR_16rhizo_crypt_core11integrationNtB7_13ClientFactory21has_commit_capability0B9_
FN:619,_RNCNvMs0_NtCsid3wTlZBOIR_16rhizo_crypt_core11integrationNtB7_13ClientFactory22has_signing_capability0B9_
FN:629,_RNCNvMs0_NtCsid3wTlZBOIR_16rhizo_crypt_core11integrationNtB7_13ClientFactory22has_storage_capability0B9_
FN:228,_RINvMNtCs7YQQ0vypdx3_16rhizo_crypt_core11integrationNtB3_13ServiceStatus9unhealthyppEB5_
FN:655,_RNCNCNvMs7_NtCs7YQQ0vypdx3_16rhizo_crypt_core11integrationNtB9_13ClientFactory15commit_endpoint00Bb_
FN:658,_RNCNCNvMs7_NtCs7YQQ0vypdx3_16rhizo_crypt_core11integrationNtB9_13ClientFactory15commit_endpoint0s_0Bb_
FN:642,_RNCNCNvMs7_NtCs7YQQ0vypdx3_16rhizo_crypt_core11integrationNtB9_13ClientFactory16signing_endpoint00Bb_
FN:643,_RNCNCNvMs7_NtCs7YQQ0vypdx3_16rhizo_crypt_core11integrationNtB9_13ClientFactory16signing_endpoint0s_0Bb_
FN:670,_RNCNCNvMs7_NtCs7YQQ0vypdx3_16rhizo_crypt_core11integrationNtB9_13ClientFactory16storage_endpoint00Bb_
FN:673,_RNCNCNvMs7_NtCs7YQQ0vypdx3_16rhizo_crypt_core11integrationNtB9_13ClientFactory16storage_endpoint0s_0Bb_
FN:651,_RNCNvMs7_NtCs7YQQ0vypdx3_16rhizo_crypt_core11integrationNtB7_13ClientFactory15commit_endpoint0B9_
FN:638,_RNCNvMs7_NtCs7YQQ0vypdx3_16rhizo_crypt_core11integrationNtB7_13ClientFactory16signing_endpoint0B9_
FN:666,_RNCNvMs7_NtCs7YQQ0vypdx3_16rhizo_crypt_core11integrationNtB7_13ClientFactory16storage_endpoint0B9_
FN:683,_RNCNvMs7_NtCs7YQQ0vypdx3_16rhizo_crypt_core11integrationNtB7_13ClientFactory18integration_status0B9_
FN:624,_RNCNvMs7_NtCs7YQQ0vypdx3_16rhizo_crypt_core11integrationNtB7_13ClientFactory21has_commit_capability0B9_
FN:619,_RNCNvMs7_NtCs7YQQ0vypdx3_16rhizo_crypt_core11integrationNtB7_13ClientFactory22has_signing_capability0B9_
FN:629,_RNCNvMs7_NtCs7YQQ0vypdx3_16rhizo_crypt_core11integrationNtB7_13ClientFactory22has_storage_capability0B9_
FN:343,_RNCNvXs1_NtCs7YQQ0vypdx3_16rhizo_crypt_core11integrationNtB7_17MockBearDogClientNtB7_13BearDogClient11sign_vertex0B9_
FN:364,_RNCNvXs1_NtCs7YQQ0vypdx3_16rhizo_crypt_core11integrationNtB7_17MockBearDogClientNtB7_13BearDogClient19request_attestation0B9_
FN:356,_RNCNvXs1_NtCs7YQQ0vypdx3_16rhizo_crypt_core11integrationNtB7_17MockBearDogClientNtB7_13BearDogClient23verify_vertex_signature0B9_
FN:425,_RNCNvXs4_NtCs7YQQ0vypdx3_16rhizo_crypt_core11integrationNtB7_19MockLoamSpineClientNtB7_15LoamSpineClient10get_commit0B9_
FN:448,_RNCNvXs4_NtCs7YQQ0vypdx3_16rhizo_crypt_core11integrationNtB7_19MockLoamSpineClientNtB7_15LoamSpineClient13resolve_slice0B9_
FN:434,_RNCNvXs4_NtCs7YQQ0vypdx3_16rhizo_crypt_core11integrationNtB7_19MockLoamSpineClientNtB7_15LoamSpineClient14checkout_slice0B9_
FN:651,_RNvMs7_NtCs7YQQ0vypdx3_16rhizo_crypt_core11integrationNtB5_13ClientFactory15commit_endpoint
FN:638,_RNvMs7_NtCs7YQQ0vypdx3_16rhizo_crypt_core11integrationNtB5_13ClientFactory16signing_endpoint
FN:666,_RNvMs7_NtCs7YQQ0vypdx3_16rhizo_crypt_core11integrationNtB5_13ClientFactory16storage_endpoint
FN:683,_RNvMs7_NtCs7YQQ0vypdx3_16rhizo_crypt_core11integrationNtB5_13ClientFactory18integration_status
FN:624,_RNvMs7_NtCs7YQQ0vypdx3_16rhizo_crypt_core11integrationNtB5_13ClientFactory21has_commit_capability
FN:619,_RNvMs7_NtCs7YQQ0vypdx3_16rhizo_crypt_core11integrationNtB5_13ClientFactory22has_signing_capability
FN:629,_RNvMs7_NtCs7YQQ0vypdx3_16rhizo_crypt_core11integrationNtB5_13ClientFactory22has_storage_capability
FN:612,_RNvMs7_NtCs7YQQ0vypdx3_16rhizo_crypt_core11integrationNtB5_13ClientFactory3new
FN:678,_RNvMs7_NtCs7YQQ0vypdx3_16rhizo_crypt_core11integrationNtB5_13ClientFactory8registry
FN:270,_RNvMs_NtCs7YQQ0vypdx3_16rhizo_crypt_core11integrationNtB4_17IntegrationStatus7summary
FN:280,_RNvNtCs7YQQ0vypdx3_16rhizo_crypt_core11integration10status_str
FN:343,_RNvXs1_NtCs7YQQ0vypdx3_16rhizo_crypt_core11integrationNtB5_17MockBearDogClientNtB5_13BearDogClient11sign_vertex
FN:360,_RNvXs1_NtCs7YQQ0vypdx3_16rhizo_crypt_core11integrationNtB5_17MockBearDogClientNtB5_13BearDogClient19request_attestation
FN:356,_RNvXs1_NtCs7YQQ0vypdx3_16rhizo_crypt_core11integrationNtB5_17MockBearDogClientNtB5_13BearDogClient23verify_vertex_signature
FN:392,_RNvXs2_NtCs7YQQ0vypdx3_16rhizo_crypt_core11integrationNtB5_19MockLoamSpineClientNtNtCs9sjCchOt1K7_4core5clone5Clone5clone
FN:425,_RNvXs4_NtCs7YQQ0vypdx3_16rhizo_crypt_core11integrationNtB5_19MockLoamSpineClientNtB5_15LoamSpineClient10get_commit
FN:444,_RNvXs4_NtCs7YQQ0vypdx3_16rhizo_crypt_core11integrationNtB5_19MockLoamSpineClientNtB5_15LoamSpineClient13resolve_slice
FN:429,_RNvXs4_NtCs7YQQ0vypdx3_16rhizo_crypt_core11integrationNtB5_19MockLoamSpineClientNtB5_15LoamSpineClient14checkout_slice
FN:240,_RINvMNtCs7YQQ0vypdx3_16rhizo_crypt_core11integrationNtB3_13ServiceStatus11unavailableReEB5_
FN:219,_RINvMNtCs7YQQ0vypdx3_16rhizo_crypt_core11integrationNtB3_13ServiceStatus7healthyReEB5_
FN:335,_RNCNvXs1_NtCs7YQQ0vypdx3_16rhizo_crypt_core11integrationNtB7_17MockBearDogClientNtB7_13BearDogClient10verify_did0B9_
FN:352,_RNCNvXs1_NtCs7YQQ0vypdx3_16rhizo_crypt_core11integrationNtB7_17MockBearDogClientNtB7_13BearDogClient16verify_signature0B9_
FN:339,_RNCNvXs1_NtCs7YQQ0vypdx3_16rhizo_crypt_core11integrationNtB7_17MockBearDogClientNtB7_13BearDogClient4sign0B9_
FN:421,_RNCNvXs4_NtCs7YQQ0vypdx3_16rhizo_crypt_core11integrationNtB7_19MockLoamSpineClientNtB7_15LoamSpineClient13verify_commit0B9_
FN:412,_RNCNvXs4_NtCs7YQQ0vypdx3_16rhizo_crypt_core11integrationNtB7_19MockLoamSpineClientNtB7_15LoamSpineClient6commit0B9_
FN:481,_RNCNvXs6_NtCs7YQQ0vypdx3_16rhizo_crypt_core11integrationNtB7_18MockNestGateClientNtB7_14NestGateClient11get_payload0B9_
FN:475,_RNCNvXs6_NtCs7YQQ0vypdx3_16rhizo_crypt_core11integrationNtB7_18MockNestGateClientNtB7_14NestGateClient11put_payload0B9_
FN:486,_RNCNvXs6_NtCs7YQQ0vypdx3_16rhizo_crypt_core11integrationNtB7_18MockNestGateClientNtB7_14NestGateClient14payload_exists0B9_
FN:498,_RNCNvNtNtCs7YQQ0vypdx3_16rhizo_crypt_core11integration5testss_24test_mock_beardog_client0B7_
FN:511,_RNCNvNtNtCs7YQQ0vypdx3_16rhizo_crypt_core11integration5testss_24test_mock_beardog_strict0B7_
FN:543,_RNCNvNtNtCs7YQQ0vypdx3_16rhizo_crypt_core11integration5testss_25test_mock_nestgate_client0B7_
FN:519,_RNCNvNtNtCs7YQQ0vypdx3_16rhizo_crypt_core11integration5testss_26test_mock_loamspine_client0B7_
FN:556,_RNvNtNtCs7YQQ0vypdx3_16rhizo_crypt_core11integration5testss_19test_service_status
FN:567,_RNvNtNtCs7YQQ0vypdx3_16rhizo_crypt_core11integration5testss_23test_integration_status
FN:498,_RNvNtNtCs7YQQ0vypdx3_16rhizo_crypt_core11integration5testss_24test_mock_beardog_client
FN:511,_RNvNtNtCs7YQQ0vypdx3_16rhizo_crypt_core11integration5testss_24test_mock_beardog_strict
FN:543,_RNvNtNtCs7YQQ0vypdx3_16rhizo_crypt_core11integration5testss_25test_mock_nestgate_client
FN:519,_RNvNtNtCs7YQQ0vypdx3_16rhizo_crypt_core11integration5testss_26test_mock_loamspine_client
FN:206,_RNvMNtCs7YQQ0vypdx3_16rhizo_crypt_core11integrationNtB2_13ServiceStatus10is_healthyB4_
FN:213,_RNvMNtCs7YQQ0vypdx3_16rhizo_crypt_core11integrationNtB2_13ServiceStatus12is_availableB4_
FN:316,_RNvMs0_NtCs7YQQ0vypdx3_16rhizo_crypt_core11integrationNtB5_17MockBearDogClient10permissive
FN:325,_RNvMs0_NtCs7YQQ0vypdx3_16rhizo_crypt_core11integrationNtB5_17MockBearDogClient6strict
FN:405,_RNvMs3_NtCs7YQQ0vypdx3_16rhizo_crypt_core11integrationNtB5_19MockLoamSpineClient3new
FN:468,_RNvMs5_NtCs7YQQ0vypdx3_16rhizo_crypt_core11integrationNtB5_18MockNestGateClient3new
FN:256,_RNvMs_NtCs7YQQ0vypdx3_16rhizo_crypt_core11integrationNtB4_17IntegrationStatus11all_healthy
FN:262,_RNvMs_NtCs7YQQ0vypdx3_16rhizo_crypt_core11integrationNtB4_17IntegrationStatus15any_unavailable
FN:250,_RNvMs_NtCs7YQQ0vypdx3_16rhizo_crypt_core11integrationNtB4_17IntegrationStatus3new
FN:335,_RNvXs1_NtCs7YQQ0vypdx3_16rhizo_crypt_core11integrationNtB5_17MockBearDogClientNtB5_13BearDogClient10verify_did
FN:347,_RNvXs1_NtCs7YQQ0vypdx3_16rhizo_crypt_core11integrationNtB5_17MockBearDogClientNtB5_13BearDogClient16verify_signature
FN:339,_RNvXs1_NtCs7YQQ0vypdx3_16rhizo_crypt_core11integrationNtB5_17MockBearDogClientNtB5_13BearDogClient4sign
FN:421,_RNvXs4_NtCs7YQQ0vypdx3_16rhizo_crypt_core11integrationNtB5_19MockLoamSpineClientNtB5_15LoamSpineClient13verify_commit
FN:412,_RNvXs4_NtCs7YQQ0vypdx3_16rhizo_crypt_core11integrationNtB5_19MockLoamSpineClientNtB5_15LoamSpineClient6commit
FN:481,_RNvXs6_NtCs7YQQ0vypdx3_16rhizo_crypt_core11integrationNtB5_18MockNestGateClientNtB5_14NestGateClient11get_payload
FN:475,_RNvXs6_NtCs7YQQ0vypdx3_16rhizo_crypt_core11integrationNtB5_18MockNestGateClientNtB5_14NestGateClient11put_payload
FN:486,_RNvXs6_NtCs7YQQ0vypdx3_16rhizo_crypt_core11integrationNtB5_18MockNestGateClientNtB5_14NestGateClient14payload_exists
FNDA:0,_RINvMNtCsid3wTlZBOIR_16rhizo_crypt_core11integrationNtB3_13ServiceStatus11unavailablepEB5_
FNDA:0,_RINvMNtCsid3wTlZBOIR_16rhizo_crypt_core11integrationNtB3_13ServiceStatus7healthypEB5_
FNDA:0,_RINvMNtCsid3wTlZBOIR_16rhizo_crypt_core11integrationNtB3_13ServiceStatus9unhealthyppEB5_
FNDA:0,_RNCNCNvMs0_NtCsid3wTlZBOIR_16rhizo_crypt_core11integrationNtB9_13ClientFactory15commit_endpoint00Bb_
FNDA:0,_RNCNCNvMs0_NtCsid3wTlZBOIR_16rhizo_crypt_core11integrationNtB9_13ClientFactory15commit_endpoint0s_0Bb_
FNDA:0,_RNCNCNvMs0_NtCsid3wTlZBOIR_16rhizo_crypt_core11integrationNtB9_13ClientFactory16signing_endpoint00Bb_
FNDA:0,_RNCNCNvMs0_NtCsid3wTlZBOIR_16rhizo_crypt_core11integrationNtB9_13ClientFactory16signing_endpoint0s_0Bb_
FNDA:0,_RNCNCNvMs0_NtCsid3wTlZBOIR_16rhizo_crypt_core11integrationNtB9_13ClientFactory16storage_endpoint00Bb_
FNDA:0,_RNCNCNvMs0_NtCsid3wTlZBOIR_16rhizo_crypt_core11integrationNtB9_13ClientFactory16storage_endpoint0s_0Bb_
FNDA:0,_RNCNvMs0_NtCsid3wTlZBOIR_16rhizo_crypt_core11integrationNtB7_13ClientFactory15commit_endpoint0B9_
FNDA:0,_RNCNvMs0_NtCsid3wTlZBOIR_16rhizo_crypt_core11integrationNtB7_13ClientFactory16signing_endpoint0B9_
FNDA:0,_RNCNvMs0_NtCsid3wTlZBOIR_16rhizo_crypt_core11integrationNtB7_13ClientFactory16storage_endpoint0B9_
FNDA:0,_RNCNvMs0_NtCsid3wTlZBOIR_16rhizo_crypt_core11integrationNtB7_13ClientFactory18integration_status0B9_
FNDA:0,_RNCNvMs0_NtCsid3wTlZBOIR_16rhizo_crypt_core11integrationNtB7_13ClientFactory21has_commit_capability0B9_
FNDA:0,_RNCNvMs0_NtCsid3wTlZBOIR_16rhizo_crypt_core11integrationNtB7_13ClientFactory22has_signing_capability0B9_
FNDA:0,_RNCNvMs0_NtCsid3wTlZBOIR_16rhizo_crypt_core11integrationNtB7_13ClientFactory22has_storage_capability0B9_
FNDA:0,_RINvMNtCs7YQQ0vypdx3_16rhizo_crypt_core11integrationNtB3_13ServiceStatus9unhealthyppEB5_
FNDA:0,_RNCNCNvMs7_NtCs7YQQ0vypdx3_16rhizo_crypt_core11integrationNtB9_13ClientFactory15commit_endpoint00Bb_
FNDA:0,_RNCNCNvMs7_NtCs7YQQ0vypdx3_16rhizo_crypt_core11integrationNtB9_13ClientFactory15commit_endpoint0s_0Bb_
FNDA:0,_RNCNCNvMs7_NtCs7YQQ0vypdx3_16rhizo_crypt_core11integrationNtB9_13ClientFactory16signing_endpoint00Bb_
FNDA:0,_RNCNCNvMs7_NtCs7YQQ0vypdx3_16rhizo_crypt_core11integrationNtB9_13ClientFactory16signing_endpoint0s_0Bb_
FNDA:0,_RNCNCNvMs7_NtCs7YQQ0vypdx3_16rhizo_crypt_core11integrationNtB9_13ClientFactory16storage_endpoint00Bb_
FNDA:0,_RNCNCNvMs7_NtCs7YQQ0vypdx3_16rhizo_crypt_core11integrationNtB9_13ClientFactory16storage_endpoint0s_0Bb_
FNDA:0,_RNCNvMs7_NtCs7YQQ0vypdx3_16rhizo_crypt_core11integrationNtB7_13ClientFactory15commit_endpoint0B9_
FNDA:0,_RNCNvMs7_NtCs7YQQ0vypdx3_16rhizo_crypt_core11integrationNtB7_13ClientFactory16signing_endpoint0B9_
FNDA:0,_RNCNvMs7_NtCs7YQQ0vypdx3_16rhizo_crypt_core11integrationNtB7_13ClientFactory16storage_endpoint0B9_
FNDA:0,_RNCNvMs7_NtCs7YQQ0vypdx3_16rhizo_crypt_core11integrationNtB7_13ClientFactory18integration_status0B9_
FNDA:0,_RNCNvMs7_NtCs7YQQ0vypdx3_16rhizo_crypt_core11integrationNtB7_13ClientFactory21has_commit_capability0B9_
FNDA:0,_RNCNvMs7_NtCs7YQQ0vypdx3_16rhizo_crypt_core11integrationNtB7_13ClientFactory22has_signing_capability0B9_
FNDA:0,_RNCNvMs7_NtCs7YQQ0vypdx3_16rhizo_crypt_core11integrationNtB7_13ClientFactory22has_storage_capability0B9_
FNDA:0,_RNCNvXs1_NtCs7YQQ0vypdx3_16rhizo_crypt_core11integrationNtB7_17MockBearDogClientNtB7_13BearDogClient11sign_vertex0B9_
FNDA:0,_RNCNvXs1_NtCs7YQQ0vypdx3_16rhizo_crypt_core11integrationNtB7_17MockBearDogClientNtB7_13BearDogClient19request_attestation0B9_
FNDA:0,_RNCNvXs1_NtCs7YQQ0vypdx3_16rhizo_crypt_core11integrationNtB7_17MockBearDogClientNtB7_13BearDogClient23verify_vertex_signature0B9_
FNDA:0,_RNCNvXs4_NtCs7YQQ0vypdx3_16rhizo_crypt_core11integrationNtB7_19MockLoamSpineClientNtB7_15LoamSpineClient10get_commit0B9_
FNDA:0,_RNCNvXs4_NtCs7YQQ0vypdx3_16rhizo_crypt_core11integrationNtB7_19MockLoamSpineClientNtB7_15LoamSpineClient13resolve_slice0B9_
FNDA:0,_RNCNvXs4_NtCs7YQQ0vypdx3_16rhizo_crypt_core11integrationNtB7_19MockLoamSpineClientNtB7_15LoamSpineClient14checkout_slice0B9_
FNDA:0,_RNvMs7_NtCs7YQQ0vypdx3_16rhizo_crypt_core11integrationNtB5_13ClientFactory15commit_endpoint
FNDA:0,_RNvMs7_NtCs7YQQ0vypdx3_16rhizo_crypt_core11integrationNtB5_13ClientFactory16signing_endpoint
FNDA:0,_RNvMs7_NtCs7YQQ0vypdx3_16rhizo_crypt_core11integrationNtB5_13ClientFactory16storage_endpoint
FNDA:0,_RNvMs7_NtCs7YQQ0vypdx3_16rhizo_crypt_core11integrationNtB5_13ClientFactory18integration_status
FNDA:0,_RNvMs7_NtCs7YQQ0vypdx3_16rhizo_crypt_core11integrationNtB5_13ClientFactory21has_commit_capability
FNDA:0,_RNvMs7_NtCs7YQQ0vypdx3_16rhizo_crypt_core11integrationNtB5_13ClientFactory22has_signing_capability
FNDA:0,_RNvMs7_NtCs7YQQ0vypdx3_16rhizo_crypt_core11integrationNtB5_13ClientFactory22has_storage_capability
FNDA:0,_RNvMs7_NtCs7YQQ0vypdx3_16rhizo_crypt_core11integrationNtB5_13ClientFactory3new
FNDA:0,_RNvMs7_NtCs7YQQ0vypdx3_16rhizo_crypt_core11integrationNtB5_13ClientFactory8registry
FNDA:0,_RNvMs_NtCs7YQQ0vypdx3_16rhizo_crypt_core11integrationNtB4_17IntegrationStatus7summary
FNDA:0,_RNvNtCs7YQQ0vypdx3_16rhizo_crypt_core11integration10status_str
FNDA:0,_RNvXs1_NtCs7YQQ0vypdx3_16rhizo_crypt_core11integrationNtB5_17MockBearDogClientNtB5_13BearDogClient11sign_vertex
FNDA:0,_RNvXs1_NtCs7YQQ0vypdx3_16rhizo_crypt_core11integrationNtB5_17MockBearDogClientNtB5_13BearDogClient19request_attestation
FNDA:0,_RNvXs1_NtCs7YQQ0vypdx3_16rhizo_crypt_core11integrationNtB5_17MockBearDogClientNtB5_13BearDogClient23verify_vertex_signature
FNDA:0,_RNvXs2_NtCs7YQQ0vypdx3_16rhizo_crypt_core11integrationNtB5_19MockLoamSpineClientNtNtCs9sjCchOt1K7_4core5clone5Clone5clone
FNDA:0,_RNvXs4_NtCs7YQQ0vypdx3_16rhizo_crypt_core11integrationNtB5_19MockLoamSpineClientNtB5_15LoamSpineClient10get_commit
FNDA:0,_RNvXs4_NtCs7YQQ0vypdx3_16rhizo_crypt_core11integrationNtB5_19MockLoamSpineClientNtB5_15LoamSpineClient13resolve_slice
FNDA:0,_RNvXs4_NtCs7YQQ0vypdx3_16rhizo_crypt_core11integrationNtB5_19MockLoamSpineClientNtB5_15LoamSpineClient14checkout_slice
FNDA:1,_RINvMNtCs7YQQ0vypdx3_16rhizo_crypt_core11integrationNtB3_13ServiceStatus11unavailableReEB5_
FNDA:4,_RINvMNtCs7YQQ0vypdx3_16rhizo_crypt_core11integrationNtB3_13ServiceStatus7healthyReEB5_
FNDA:2,_RNCNvXs1_NtCs7YQQ0vypdx3_16rhizo_crypt_core11integrationNtB7_17MockBearDogClientNtB7_13BearDogClient10verify_did0B9_
FNDA:1,_RNCNvXs1_NtCs7YQQ0vypdx3_16rhizo_crypt_core11integrationNtB7_17MockBearDogClientNtB7_13BearDogClient16verify_signature0B9_
FNDA:1,_RNCNvXs1_NtCs7YQQ0vypdx3_16rhizo_crypt_core11integrationNtB7_17MockBearDogClientNtB7_13BearDogClient4sign0B9_
FNDA:1,_RNCNvXs4_NtCs7YQQ0vypdx3_16rhizo_crypt_core11integrationNtB7_19MockLoamSpineClientNtB7_15LoamSpineClient13verify_commit0B9_
FNDA:2,_RNCNvXs4_NtCs7YQQ0vypdx3_16rhizo_crypt_core11integrationNtB7_19MockLoamSpineClientNtB7_15LoamSpineClient6commit0B9_
FNDA:1,_RNCNvXs6_NtCs7YQQ0vypdx3_16rhizo_crypt_core11integrationNtB7_18MockNestGateClientNtB7_14NestGateClient11get_payload0B9_
FNDA:1,_RNCNvXs6_NtCs7YQQ0vypdx3_16rhizo_crypt_core11integrationNtB7_18MockNestGateClientNtB7_14NestGateClient11put_payload0B9_
FNDA:1,_RNCNvXs6_NtCs7YQQ0vypdx3_16rhizo_crypt_core11integrationNtB7_18MockNestGateClientNtB7_14NestGateClient14payload_exists0B9_
FNDA:1,_RNCNvNtNtCs7YQQ0vypdx3_16rhizo_crypt_core11integration5testss_24test_mock_beardog_client0B7_
FNDA:1,_RNCNvNtNtCs7YQQ0vypdx3_16rhizo_crypt_core11integration5testss_24test_mock_beardog_strict0B7_
FNDA:1,_RNCNvNtNtCs7YQQ0vypdx3_16rhizo_crypt_core11integration5testss_25test_mock_nestgate_client0B7_
FNDA:1,_RNCNvNtNtCs7YQQ0vypdx3_16rhizo_crypt_core11integration5testss_26test_mock_loamspine_client0B7_
FNDA:1,_RNvNtNtCs7YQQ0vypdx3_16rhizo_crypt_core11integration5testss_19test_service_status
FNDA:1,_RNvNtNtCs7YQQ0vypdx3_16rhizo_crypt_core11integration5testss_23test_integration_status
FNDA:1,_RNvNtNtCs7YQQ0vypdx3_16rhizo_crypt_core11integration5testss_24test_mock_beardog_client
FNDA:1,_RNvNtNtCs7YQQ0vypdx3_16rhizo_crypt_core11integration5testss_24test_mock_beardog_strict
FNDA:1,_RNvNtNtCs7YQQ0vypdx3_16rhizo_crypt_core11integration5testss_25test_mock_nestgate_client
FNDA:1,_RNvNtNtCs7YQQ0vypdx3_16rhizo_crypt_core11integration5testss_26test_mock_loamspine_client
FNDA:6,_RNvMNtCs7YQQ0vypdx3_16rhizo_crypt_core11integrationNtB2_13ServiceStatus10is_healthyB4_
FNDA:5,_RNvMNtCs7YQQ0vypdx3_16rhizo_crypt_core11integrationNtB2_13ServiceStatus12is_availableB4_
FNDA:1,_RNvMs0_NtCs7YQQ0vypdx3_16rhizo_crypt_core11integrationNtB5_17MockBearDogClient10permissive
FNDA:1,_RNvMs0_NtCs7YQQ0vypdx3_16rhizo_crypt_core11integrationNtB5_17MockBearDogClient6strict
FNDA:1,_RNvMs3_NtCs7YQQ0vypdx3_16rhizo_crypt_core11integrationNtB5_19MockLoamSpineClient3new
FNDA:1,_RNvMs5_NtCs7YQQ0vypdx3_16rhizo_crypt_core11integrationNtB5_18MockNestGateClient3new
FNDA:2,_RNvMs_NtCs7YQQ0vypdx3_16rhizo_crypt_core11integrationNtB4_17IntegrationStatus11all_healthy
FNDA:1,_RNvMs_NtCs7YQQ0vypdx3_16rhizo_crypt_core11integrationNtB4_17IntegrationStatus15any_unavailable
FNDA:1,_RNvMs_NtCs7YQQ0vypdx3_16rhizo_crypt_core11integrationNtB4_17IntegrationStatus3new
FNDA:2,_RNvXs1_NtCs7YQQ0vypdx3_16rhizo_crypt_core11integrationNtB5_17MockBearDogClientNtB5_13BearDogClient10verify_did
FNDA:1,_RNvXs1_NtCs7YQQ0vypdx3_16rhizo_crypt_core11integrationNtB5_17MockBearDogClientNtB5_13BearDogClient16verify_signature
FNDA:1,_RNvXs1_NtCs7YQQ0vypdx3_16rhizo_crypt_core11integrationNtB5_17MockBearDogClientNtB5_13BearDogClient4sign
FNDA:1,_RNvXs4_NtCs7YQQ0vypdx3_16rhizo_crypt_core11integrationNtB5_19MockLoamSpineClientNtB5_15LoamSpineClient13verify_commit
FNDA:2,_RNvXs4_NtCs7YQQ0vypdx3_16rhizo_crypt_core11integrationNtB5_19MockLoamSpineClientNtB5_15LoamSpineClient6commit
FNDA:1,_RNvXs6_NtCs7YQQ0vypdx3_16rhizo_crypt_core11integrationNtB5_18MockNestGateClientNtB5_14NestGateClient11get_payload
FNDA:1,_RNvXs6_NtCs7YQQ0vypdx3_16rhizo_crypt_core11integrationNtB5_18MockNestGateClientNtB5_14NestGateClient11put_payload
FNDA:1,_RNvXs6_NtCs7YQQ0vypdx3_16rhizo_crypt_core11integrationNtB5_18MockNestGateClientNtB5_14NestGateClient14payload_exists
FNF:75
FNH:37
DA:206,6
DA:207,6
DA:208,6
DA:213,5
DA:214,5
DA:215,5
DA:219,4
DA:220,4
DA:221,4
DA:222,4
DA:223,4
DA:224,4
DA:228,0
DA:229,0
DA:230,0
DA:231,0
DA:232,0
DA:233,0
DA:234,0
DA:235,0
DA:236,0
DA:240,1
DA:241,1
DA:242,1
DA:243,1
DA:244,1
DA:250,1
DA:251,1
DA:252,1
DA:256,2
DA:257,2
DA:258,2
DA:262,1
DA:263,1
DA:264,1
DA:265,1
DA:266,1
DA:270,0
DA:271,0
DA:272,0
DA:273,0
DA:274,0
DA:275,0
DA:276,0
DA:277,0
DA:280,0
DA:281,0
DA:282,0
DA:285,0
DA:288,0
DA:291,0
DA:293,0
DA:316,1
DA:317,1
DA:318,1
DA:319,1
DA:320,1
DA:321,1
DA:325,1
DA:326,1
DA:327,1
DA:328,1
DA:329,1
DA:330,1
DA:335,2
DA:336,2
DA:337,2
DA:339,1
DA:340,1
DA:341,1
DA:343,0
DA:344,0
DA:345,0
DA:347,1
DA:348,1
DA:349,1
DA:350,1
DA:351,1
DA:352,1
DA:353,1
DA:354,1
DA:356,0
DA:357,0
DA:358,0
DA:360,0
DA:361,0
DA:362,0
DA:363,0
DA:364,0
DA:368,0
DA:369,0
DA:370,0
DA:371,0
DA:372,0
DA:373,0
DA:374,0
DA:375,0
DA:376,0
DA:377,0
DA:392,0
DA:393,0
DA:394,0
DA:395,0
DA:396,0
DA:397,0
DA:398,0
DA:405,1
DA:406,1
DA:407,1
DA:412,2
DA:413,2
DA:414,2
DA:415,2
DA:416,2
DA:417,2
DA:418,2
DA:419,2
DA:421,1
DA:422,1
DA:423,1
DA:425,0
DA:426,0
DA:427,0
DA:429,0
DA:430,0
DA:431,0
DA:432,0
DA:433,0
DA:434,0
DA:435,0
DA:436,0
DA:437,0
DA:438,0
DA:439,0
DA:440,0
DA:441,0
DA:442,0
DA:444,0
DA:445,0
DA:446,0
DA:447,0
DA:448,0
DA:449,0
DA:450,0
DA:468,1
DA:469,1
DA:470,1
DA:475,1
DA:476,1
DA:477,1
DA:478,1
DA:479,1
DA:481,1
DA:482,1
DA:483,1
DA:484,1
DA:486,1
DA:487,1
DA:488,1
DA:489,1
DA:498,1
DA:499,1
DA:500,1
DA:501,1
DA:502,1
DA:503,1
DA:504,1
DA:505,1
DA:506,1
DA:507,1
DA:508,1
DA:511,1
DA:512,1
DA:513,1
DA:514,1
DA:515,1
DA:516,1
DA:519,1
DA:520,1
DA:521,1
DA:522,1
DA:523,1
DA:524,1
DA:525,1
DA:526,1
DA:527,1
DA:528,1
DA:529,1
DA:530,1
DA:531,1
DA:532,1
DA:533,1
DA:534,1
DA:535,1
DA:536,1
DA:537,1
DA:538,1
DA:539,1
DA:540,1
DA:543,1
DA:544,1
DA:545,1
DA:546,1
DA:547,1
DA:548,1
DA:549,1
DA:550,1
DA:551,1
DA:552,1
DA:553,1
DA:556,1
DA:557,1
DA:558,1
DA:559,1
DA:561,1
DA:562,1
DA:563,1
DA:564,1
DA:567,1
DA:568,1
DA:569,1
DA:570,1
DA:572,1
DA:573,1
DA:574,1
DA:575,1
DA:576,1
DA:612,0
DA:613,0
DA:614,0
DA:615,0
DA:616,0
DA:619,0
DA:620,0
DA:621,0
DA:624,0
DA:625,0
DA:626,0
DA:629,0
DA:630,0
DA:631,0
DA:638,0
DA:639,0
DA:640,0
DA:641,0
DA:642,0
DA:643,0
DA:644,0
DA:651,0
DA:652,0
DA:653,0
DA:654,0
DA:655,0
DA:656,0
DA:657,0
DA:658,0
DA:659,0
DA:666,0
DA:667,0
DA:668,0
DA:669,0
DA:670,0
DA:671,0
DA:672,0
DA:673,0
DA:674,0
DA:678,0
DA:679,0
DA:680,0
DA:683,0
DA:684,0
DA:686,0
DA:687,0
DA:688,0
DA:690,0
DA:691,0
DA:692,0
DA:694,0
DA:695,0
DA:696,0
DA:698,0
DA:699,0
BRF:0
BRH:0
LF:348
LH:196
end_of_record
SF:/home/strandgate/Development/ecoPrimals/phase2/rhizoCrypt/crates/rhizo-crypt-core/src/lib.rs
FN:322,_RNCNCNvMs_Csid3wTlZBOIR_16rhizo_crypt_coreNtB8_10RhizoCrypt11get_session00CsdcY13n2UsKC_11chaos_tests
FN:369,_RNCNCNvMs_Csid3wTlZBOIR_16rhizo_crypt_coreNtB8_10RhizoCrypt13append_vertex00CsdcY13n2UsKC_11chaos_tests
FN:418,_RNCNCNvMs_Csid3wTlZBOIR_16rhizo_crypt_coreNtB8_10RhizoCrypt18total_vertex_count00CsdcY13n2UsKC_11chaos_tests
FN:272,_RNCNCNvMs_Csid3wTlZBOIR_16rhizo_crypt_coreNtB8_10RhizoCrypt9dag_store00CsdcY13n2UsKC_11chaos_tests
FN:317,_RNCNvMs_Csid3wTlZBOIR_16rhizo_crypt_coreNtB6_10RhizoCrypt11get_session0CsdcY13n2UsKC_11chaos_tests
FN:359,_RNCNvMs_Csid3wTlZBOIR_16rhizo_crypt_coreNtB6_10RhizoCrypt13append_vertex0CsdcY13n2UsKC_11chaos_tests
FN:326,_RNCNvMs_Csid3wTlZBOIR_16rhizo_crypt_coreNtB6_10RhizoCrypt13list_sessions0CsdcY13n2UsKC_11chaos_tests
FN:411,_RNCNvMs_Csid3wTlZBOIR_16rhizo_crypt_coreNtB6_10RhizoCrypt13session_count0CsdcY13n2UsKC_11chaos_tests
FN:296,_RNCNvMs_Csid3wTlZBOIR_16rhizo_crypt_coreNtB6_10RhizoCrypt14create_session0CsdcY13n2UsKC_11chaos_tests
FN:336,_RNCNvMs_Csid3wTlZBOIR_16rhizo_crypt_coreNtB6_10RhizoCrypt15discard_session0CsdcY13n2UsKC_11chaos_tests
FN:416,_RNCNvMs_Csid3wTlZBOIR_16rhizo_crypt_coreNtB6_10RhizoCrypt18total_vertex_count0CsdcY13n2UsKC_11chaos_tests
FN:270,_RNCNvMs_Csid3wTlZBOIR_16rhizo_crypt_coreNtB6_10RhizoCrypt9dag_store0CsdcY13n2UsKC_11chaos_tests
FN:677,_RNCNvXs0_Csid3wTlZBOIR_16rhizo_crypt_coreNtB7_10RhizoCryptNtNtB7_6primal15PrimalLifecycle4stop0CsdcY13n2UsKC_11chaos_tests
FN:649,_RNCNvXs0_Csid3wTlZBOIR_16rhizo_crypt_coreNtB7_10RhizoCryptNtNtB7_6primal15PrimalLifecycle5start0CsdcY13n2UsKC_11chaos_tests
FN:158,_RNvMCsid3wTlZBOIR_16rhizo_crypt_coreNtB2_13PrimalMetrics20inc_sessions_createdCsdcY13n2UsKC_11chaos_tests
FN:170,_RNvMCsid3wTlZBOIR_16rhizo_crypt_coreNtB2_13PrimalMetrics21inc_vertices_appendedCsdcY13n2UsKC_11chaos_tests
FN:152,_RNvMCsid3wTlZBOIR_16rhizo_crypt_coreNtB2_13PrimalMetrics3new
FN:402,_RNvMs_Csid3wTlZBOIR_16rhizo_crypt_coreNtB4_10RhizoCrypt10get_vertex
FN:317,_RNvMs_Csid3wTlZBOIR_16rhizo_crypt_coreNtB4_10RhizoCrypt11get_session
FN:547,_RNvMs_Csid3wTlZBOIR_16rhizo_crypt_coreNtB4_10RhizoCrypt11list_slices
FN:287,_RNvMs_Csid3wTlZBOIR_16rhizo_crypt_coreNtB4_10RhizoCrypt11uptime_secs
FN:359,_RNvMs_Csid3wTlZBOIR_16rhizo_crypt_coreNtB4_10RhizoCrypt13append_vertex
FN:326,_RNvMs_Csid3wTlZBOIR_16rhizo_crypt_coreNtB4_10RhizoCrypt13list_sessions
FN:280,_RNvMs_Csid3wTlZBOIR_16rhizo_crypt_coreNtB4_10RhizoCrypt13payload_store
FN:556,_RNvMs_Csid3wTlZBOIR_16rhizo_crypt_coreNtB4_10RhizoCrypt13resolve_slice
FN:411,_RNvMs_Csid3wTlZBOIR_16rhizo_crypt_coreNtB4_10RhizoCrypt13session_count
FN:521,_RNvMs_Csid3wTlZBOIR_16rhizo_crypt_coreNtB4_10RhizoCrypt14checkout_slice
FN:296,_RNvMs_Csid3wTlZBOIR_16rhizo_crypt_coreNtB4_10RhizoCrypt14create_session
FN:479,_RNvMs_Csid3wTlZBOIR_16rhizo_crypt_coreNtB4_10RhizoCrypt14query_vertices
FN:336,_RNvMs_Csid3wTlZBOIR_16rhizo_crypt_coreNtB4_10RhizoCrypt15discard_session
FN:469,_RNvMs_Csid3wTlZBOIR_16rhizo_crypt_coreNtB4_10RhizoCrypt16get_all_vertices
FN:416,_RNvMs_Csid3wTlZBOIR_16rhizo_crypt_coreNtB4_10RhizoCrypt18total_vertex_count
FN:426,_RNvMs_Csid3wTlZBOIR_16rhizo_crypt_coreNtB4_10RhizoCrypt19compute_merkle_root
FN:441,_RNvMs_Csid3wTlZBOIR_16rhizo_crypt_coreNtB4_10RhizoCrypt21generate_merkle_proof
FN:631,_RNvMs_Csid3wTlZBOIR_16rhizo_crypt_coreNtB4_10RhizoCrypt22get_dehydration_status
FN:238,_RNvMs_Csid3wTlZBOIR_16rhizo_crypt_coreNtB4_10RhizoCrypt3new
FN:261,_RNvMs_Csid3wTlZBOIR_16rhizo_crypt_coreNtB4_10RhizoCrypt6config
FN:270,_RNvMs_Csid3wTlZBOIR_16rhizo_crypt_coreNtB4_10RhizoCrypt9dag_store
FN:587,_RNvMs_Csid3wTlZBOIR_16rhizo_crypt_coreNtB4_10RhizoCrypt9dehydrate
FN:537,_RNvMs_Csid3wTlZBOIR_16rhizo_crypt_coreNtB4_10RhizoCrypt9get_slice
FN:677,_RNvXs0_Csid3wTlZBOIR_16rhizo_crypt_coreNtB5_10RhizoCryptNtNtB5_6primal15PrimalLifecycle4stop
FN:649,_RNvXs0_Csid3wTlZBOIR_16rhizo_crypt_coreNtB5_10RhizoCryptNtNtB5_6primal15PrimalLifecycle5start
FN:645,_RNvXs0_Csid3wTlZBOIR_16rhizo_crypt_coreNtB5_10RhizoCryptNtNtB5_6primal15PrimalLifecycle5state
FN:717,_RNvXs1_Csid3wTlZBOIR_16rhizo_crypt_coreNtB5_10RhizoCryptNtNtB5_6primal12PrimalHealth12health_check
FN:707,_RNvXs1_Csid3wTlZBOIR_16rhizo_crypt_coreNtB5_10RhizoCryptNtNtB5_6primal12PrimalHealth13health_status
FN:288,_RNCNvMs_Csid3wTlZBOIR_16rhizo_crypt_coreNtB6_10RhizoCrypt11uptime_secs0B6_
FN:407,_RNCNCNvMs_Csid3wTlZBOIR_16rhizo_crypt_coreNtB8_10RhizoCrypt10get_vertex00B8_
FN:322,_RNCNCNvMs_Csid3wTlZBOIR_16rhizo_crypt_coreNtB8_10RhizoCrypt11get_session00B8_
FN:548,_RNCNCNvMs_Csid3wTlZBOIR_16rhizo_crypt_coreNtB8_10RhizoCrypt11list_slices00B8_
FN:369,_RNCNCNvMs_Csid3wTlZBOIR_16rhizo_crypt_coreNtB8_10RhizoCrypt13append_vertex00B8_
FN:282,_RNCNCNvMs_Csid3wTlZBOIR_16rhizo_crypt_coreNtB8_10RhizoCrypt13payload_store00B8_
FN:564,_RNCNCNvMs_Csid3wTlZBOIR_16rhizo_crypt_coreNtB8_10RhizoCrypt13resolve_slice00B8_
FN:490,_RNCNCNvMs_Csid3wTlZBOIR_16rhizo_crypt_coreNtB8_10RhizoCrypt14query_vertices00B8_
FN:418,_RNCNCNvMs_Csid3wTlZBOIR_16rhizo_crypt_coreNtB8_10RhizoCrypt18total_vertex_count00B8_
FN:458,_RNCNCNvMs_Csid3wTlZBOIR_16rhizo_crypt_coreNtB8_10RhizoCrypt21generate_merkle_proof00B8_
FN:459,_RNCNCNvMs_Csid3wTlZBOIR_16rhizo_crypt_coreNtB8_10RhizoCrypt21generate_merkle_proof0s_0B8_
FN:272,_RNCNCNvMs_Csid3wTlZBOIR_16rhizo_crypt_coreNtB8_10RhizoCrypt9dag_store00B8_
FN:543,_RNCNCNvMs_Csid3wTlZBOIR_16rhizo_crypt_coreNtB8_10RhizoCrypt9get_slice00B8_
FN:402,_RNCNvMs_Csid3wTlZBOIR_16rhizo_crypt_coreNtB6_10RhizoCrypt10get_vertex0B6_
FN:317,_RNCNvMs_Csid3wTlZBOIR_16rhizo_crypt_coreNtB6_10RhizoCrypt11get_session0B6_
FN:547,_RNCNvMs_Csid3wTlZBOIR_16rhizo_crypt_coreNtB6_10RhizoCrypt11list_slices0B6_
FN:359,_RNCNvMs_Csid3wTlZBOIR_16rhizo_crypt_coreNtB6_10RhizoCrypt13append_vertex0B6_
FN:326,_RNCNvMs_Csid3wTlZBOIR_16rhizo_crypt_coreNtB6_10RhizoCrypt13list_sessions0B6_
FN:280,_RNCNvMs_Csid3wTlZBOIR_16rhizo_crypt_coreNtB6_10RhizoCrypt13payload_store0B6_
FN:560,_RNCNvMs_Csid3wTlZBOIR_16rhizo_crypt_coreNtB6_10RhizoCrypt13resolve_slice0B6_
FN:411,_RNCNvMs_Csid3wTlZBOIR_16rhizo_crypt_coreNtB6_10RhizoCrypt13session_count0B6_
FN:521,_RNCNvMs_Csid3wTlZBOIR_16rhizo_crypt_coreNtB6_10RhizoCrypt14checkout_slice0B6_
FN:296,_RNCNvMs_Csid3wTlZBOIR_16rhizo_crypt_coreNtB6_10RhizoCrypt14create_session0B6_
FN:485,_RNCNvMs_Csid3wTlZBOIR_16rhizo_crypt_coreNtB6_10RhizoCrypt14query_vertices0B6_
FN:336,_RNCNvMs_Csid3wTlZBOIR_16rhizo_crypt_coreNtB6_10RhizoCrypt15discard_session0B6_
FN:469,_RNCNvMs_Csid3wTlZBOIR_16rhizo_crypt_coreNtB6_10RhizoCrypt16get_all_vertices0B6_
FN:416,_RNCNvMs_Csid3wTlZBOIR_16rhizo_crypt_coreNtB6_10RhizoCrypt18total_vertex_count0B6_
FN:426,_RNCNvMs_Csid3wTlZBOIR_16rhizo_crypt_coreNtB6_10RhizoCrypt19compute_merkle_root0B6_
FN:445,_RNCNvMs_Csid3wTlZBOIR_16rhizo_crypt_coreNtB6_10RhizoCrypt21generate_merkle_proof0B6_
FN:634,_RNCNvMs_Csid3wTlZBOIR_16rhizo_crypt_coreNtB6_10RhizoCrypt22get_dehydration_status0B6_
FN:270,_RNCNvMs_Csid3wTlZBOIR_16rhizo_crypt_coreNtB6_10RhizoCrypt9dag_store0B6_
FN:587,_RNCNvMs_Csid3wTlZBOIR_16rhizo_crypt_coreNtB6_10RhizoCrypt9dehydrate0B6_
FN:537,_RNCNvMs_Csid3wTlZBOIR_16rhizo_crypt_coreNtB6_10RhizoCrypt9get_slice0B6_
FN:677,_RNCNvXs0_Csid3wTlZBOIR_16rhizo_crypt_coreNtB7_10RhizoCryptNtNtB7_6primal15PrimalLifecycle4stop0B7_
FN:649,_RNCNvXs0_Csid3wTlZBOIR_16rhizo_crypt_coreNtB7_10RhizoCryptNtNtB7_6primal15PrimalLifecycle5start0B7_
FN:717,_RNCNvXs1_Csid3wTlZBOIR_16rhizo_crypt_coreNtB7_10RhizoCryptNtNtB7_6primal12PrimalHealth12health_check0B7_
FN:216,_RNvMCsid3wTlZBOIR_16rhizo_crypt_coreNtB2_13PrimalMetrics20get_queries_executedB2_
FN:195,_RNvMCsid3wTlZBOIR_16rhizo_crypt_coreNtB2_13PrimalMetrics20get_sessions_createdB2_
FN:176,_RNvMCsid3wTlZBOIR_16rhizo_crypt_coreNtB2_13PrimalMetrics20inc_queries_executedB2_
FN:158,_RNvMCsid3wTlZBOIR_16rhizo_crypt_coreNtB2_13PrimalMetrics20inc_sessions_createdB2_
FN:202,_RNvMCsid3wTlZBOIR_16rhizo_crypt_coreNtB2_13PrimalMetrics21get_sessions_resolvedB2_
FN:209,_RNvMCsid3wTlZBOIR_16rhizo_crypt_coreNtB2_13PrimalMetrics21get_vertices_appendedB2_
FN:164,_RNvMCsid3wTlZBOIR_16rhizo_crypt_coreNtB2_13PrimalMetrics21inc_sessions_resolvedB2_
FN:170,_RNvMCsid3wTlZBOIR_16rhizo_crypt_coreNtB2_13PrimalMetrics21inc_vertices_appendedB2_
FN:223,_RNvMCsid3wTlZBOIR_16rhizo_crypt_coreNtB2_13PrimalMetrics22get_slices_checked_outB2_
FN:182,_RNvMCsid3wTlZBOIR_16rhizo_crypt_coreNtB2_13PrimalMetrics22inc_slices_checked_outB2_
FN:230,_RNvMCsid3wTlZBOIR_16rhizo_crypt_coreNtB2_13PrimalMetrics26get_dehydrations_completedB2_
FN:188,_RNvMCsid3wTlZBOIR_16rhizo_crypt_coreNtB2_13PrimalMetrics26inc_dehydrations_completedB2_
FN:255,_RNvMs_Csid3wTlZBOIR_16rhizo_crypt_coreNtB4_10RhizoCrypt7metricsB4_
FN:407,_RNCNCNvMs_Csid3wTlZBOIR_16rhizo_crypt_coreNtB8_10RhizoCrypt10get_vertex00CsPnv9z7ECKg_9e2e_tests
FN:322,_RNCNCNvMs_Csid3wTlZBOIR_16rhizo_crypt_coreNtB8_10RhizoCrypt11get_session00CsPnv9z7ECKg_9e2e_tests
FN:369,_RNCNCNvMs_Csid3wTlZBOIR_16rhizo_crypt_coreNtB8_10RhizoCrypt13append_vertex00CsPnv9z7ECKg_9e2e_tests
FN:272,_RNCNCNvMs_Csid3wTlZBOIR_16rhizo_crypt_coreNtB8_10RhizoCrypt9dag_store00CsPnv9z7ECKg_9e2e_tests
FN:402,_RNCNvMs_Csid3wTlZBOIR_16rhizo_crypt_coreNtB6_10RhizoCrypt10get_vertex0CsPnv9z7ECKg_9e2e_tests
FN:317,_RNCNvMs_Csid3wTlZBOIR_16rhizo_crypt_coreNtB6_10RhizoCrypt11get_session0CsPnv9z7ECKg_9e2e_tests
FN:359,_RNCNvMs_Csid3wTlZBOIR_16rhizo_crypt_coreNtB6_10RhizoCrypt13append_vertex0CsPnv9z7ECKg_9e2e_tests
FN:326,_RNCNvMs_Csid3wTlZBOIR_16rhizo_crypt_coreNtB6_10RhizoCrypt13list_sessions0CsPnv9z7ECKg_9e2e_tests
FN:411,_RNCNvMs_Csid3wTlZBOIR_16rhizo_crypt_coreNtB6_10RhizoCrypt13session_count0CsPnv9z7ECKg_9e2e_tests
FN:296,_RNCNvMs_Csid3wTlZBOIR_16rhizo_crypt_coreNtB6_10RhizoCrypt14create_session0CsPnv9z7ECKg_9e2e_tests
FN:336,_RNCNvMs_Csid3wTlZBOIR_16rhizo_crypt_coreNtB6_10RhizoCrypt15discard_session0CsPnv9z7ECKg_9e2e_tests
FN:270,_RNCNvMs_Csid3wTlZBOIR_16rhizo_crypt_coreNtB6_10RhizoCrypt9dag_store0CsPnv9z7ECKg_9e2e_tests
FN:677,_RNCNvXs0_Csid3wTlZBOIR_16rhizo_crypt_coreNtB7_10RhizoCryptNtNtB7_6primal15PrimalLifecycle4stop0CsPnv9z7ECKg_9e2e_tests
FN:649,_RNCNvXs0_Csid3wTlZBOIR_16rhizo_crypt_coreNtB7_10RhizoCryptNtNtB7_6primal15PrimalLifecycle5start0CsPnv9z7ECKg_9e2e_tests
FN:158,_RNvMCsid3wTlZBOIR_16rhizo_crypt_coreNtB2_13PrimalMetrics20inc_sessions_createdCsPnv9z7ECKg_9e2e_tests
FN:170,_RNvMCsid3wTlZBOIR_16rhizo_crypt_coreNtB2_13PrimalMetrics21inc_vertices_appendedCsPnv9z7ECKg_9e2e_tests
FN:753,_RNvNtCs7YQQ0vypdx3_16rhizo_crypt_core5testss_22test_rhizocrypt_stores
FN:735,_RNvNtCs7YQQ0vypdx3_16rhizo_crypt_core5testss_25test_rhizocrypt_lifecycle
FN:771,_RNvNtCs7YQQ0vypdx3_16rhizo_crypt_core5testss_35test_rhizocrypt_invalid_transitions
FN:407,_RNCNCNvMs_Cs7YQQ0vypdx3_16rhizo_crypt_coreNtB8_10RhizoCrypt10get_vertex00B8_
FN:322,_RNCNCNvMs_Cs7YQQ0vypdx3_16rhizo_crypt_coreNtB8_10RhizoCrypt11get_session00B8_
FN:548,_RNCNCNvMs_Cs7YQQ0vypdx3_16rhizo_crypt_coreNtB8_10RhizoCrypt11list_slices00B8_
FN:369,_RNCNCNvMs_Cs7YQQ0vypdx3_16rhizo_crypt_coreNtB8_10RhizoCrypt13append_vertex00B8_
FN:564,_RNCNCNvMs_Cs7YQQ0vypdx3_16rhizo_crypt_coreNtB8_10RhizoCrypt13resolve_slice00B8_
FN:490,_RNCNCNvMs_Cs7YQQ0vypdx3_16rhizo_crypt_coreNtB8_10RhizoCrypt14query_vertices00B8_
FN:418,_RNCNCNvMs_Cs7YQQ0vypdx3_16rhizo_crypt_coreNtB8_10RhizoCrypt18total_vertex_count00B8_
FN:458,_RNCNCNvMs_Cs7YQQ0vypdx3_16rhizo_crypt_coreNtB8_10RhizoCrypt21generate_merkle_proof00B8_
FN:459,_RNCNCNvMs_Cs7YQQ0vypdx3_16rhizo_crypt_coreNtB8_10RhizoCrypt21generate_merkle_proof0s_0B8_
FN:543,_RNCNCNvMs_Cs7YQQ0vypdx3_16rhizo_crypt_coreNtB8_10RhizoCrypt9get_slice00B8_
FN:402,_RNCNvMs_Cs7YQQ0vypdx3_16rhizo_crypt_coreNtB6_10RhizoCrypt10get_vertex0B6_
FN:317,_RNCNvMs_Cs7YQQ0vypdx3_16rhizo_crypt_coreNtB6_10RhizoCrypt11get_session0B6_
FN:547,_RNCNvMs_Cs7YQQ0vypdx3_16rhizo_crypt_coreNtB6_10RhizoCrypt11list_slices0B6_
FN:359,_RNCNvMs_Cs7YQQ0vypdx3_16rhizo_crypt_coreNtB6_10RhizoCrypt13append_vertex0B6_
FN:326,_RNCNvMs_Cs7YQQ0vypdx3_16rhizo_crypt_coreNtB6_10RhizoCrypt13list_sessions0B6_
FN:560,_RNCNvMs_Cs7YQQ0vypdx3_16rhizo_crypt_coreNtB6_10RhizoCrypt13resolve_slice0B6_
FN:411,_RNCNvMs_Cs7YQQ0vypdx3_16rhizo_crypt_coreNtB6_10RhizoCrypt13session_count0B6_
FN:521,_RNCNvMs_Cs7YQQ0vypdx3_16rhizo_crypt_coreNtB6_10RhizoCrypt14checkout_slice0B6_
FN:296,_RNCNvMs_Cs7YQQ0vypdx3_16rhizo_crypt_coreNtB6_10RhizoCrypt14create_session0B6_
FN:485,_RNCNvMs_Cs7YQQ0vypdx3_16rhizo_crypt_coreNtB6_10RhizoCrypt14query_vertices0B6_
FN:336,_RNCNvMs_Cs7YQQ0vypdx3_16rhizo_crypt_coreNtB6_10RhizoCrypt15discard_session0B6_
FN:469,_RNCNvMs_Cs7YQQ0vypdx3_16rhizo_crypt_coreNtB6_10RhizoCrypt16get_all_vertices0B6_
FN:416,_RNCNvMs_Cs7YQQ0vypdx3_16rhizo_crypt_coreNtB6_10RhizoCrypt18total_vertex_count0B6_
FN:426,_RNCNvMs_Cs7YQQ0vypdx3_16rhizo_crypt_coreNtB6_10RhizoCrypt19compute_merkle_root0B6_
FN:445,_RNCNvMs_Cs7YQQ0vypdx3_16rhizo_crypt_coreNtB6_10RhizoCrypt21generate_merkle_proof0B6_
FN:634,_RNCNvMs_Cs7YQQ0vypdx3_16rhizo_crypt_coreNtB6_10RhizoCrypt22get_dehydration_status0B6_
FN:587,_RNCNvMs_Cs7YQQ0vypdx3_16rhizo_crypt_coreNtB6_10RhizoCrypt9dehydrate0B6_
FN:537,_RNCNvMs_Cs7YQQ0vypdx3_16rhizo_crypt_coreNtB6_10RhizoCrypt9get_slice0B6_
FN:216,_RNvMCs7YQQ0vypdx3_16rhizo_crypt_coreNtB2_13PrimalMetrics20get_queries_executedB2_
FN:195,_RNvMCs7YQQ0vypdx3_16rhizo_crypt_coreNtB2_13PrimalMetrics20get_sessions_createdB2_
FN:176,_RNvMCs7YQQ0vypdx3_16rhizo_crypt_coreNtB2_13PrimalMetrics20inc_queries_executedB2_
FN:158,_RNvMCs7YQQ0vypdx3_16rhizo_crypt_coreNtB2_13PrimalMetrics20inc_sessions_createdB2_
FN:202,_RNvMCs7YQQ0vypdx3_16rhizo_crypt_coreNtB2_13PrimalMetrics21get_sessions_resolvedB2_
FN:209,_RNvMCs7YQQ0vypdx3_16rhizo_crypt_coreNtB2_13PrimalMetrics21get_vertices_appendedB2_
FN:164,_RNvMCs7YQQ0vypdx3_16rhizo_crypt_coreNtB2_13PrimalMetrics21inc_sessions_resolvedB2_
FN:170,_RNvMCs7YQQ0vypdx3_16rhizo_crypt_coreNtB2_13PrimalMetrics21inc_vertices_appendedB2_
FN:223,_RNvMCs7YQQ0vypdx3_16rhizo_crypt_coreNtB2_13PrimalMetrics22get_slices_checked_outB2_
FN:182,_RNvMCs7YQQ0vypdx3_16rhizo_crypt_coreNtB2_13PrimalMetrics22inc_slices_checked_outB2_
FN:230,_RNvMCs7YQQ0vypdx3_16rhizo_crypt_coreNtB2_13PrimalMetrics26get_dehydrations_completedB2_
FN:188,_RNvMCs7YQQ0vypdx3_16rhizo_crypt_coreNtB2_13PrimalMetrics26inc_dehydrations_completedB2_
FN:402,_RNvMs_Cs7YQQ0vypdx3_16rhizo_crypt_coreNtB4_10RhizoCrypt10get_vertex
FN:317,_RNvMs_Cs7YQQ0vypdx3_16rhizo_crypt_coreNtB4_10RhizoCrypt11get_session
FN:547,_RNvMs_Cs7YQQ0vypdx3_16rhizo_crypt_coreNtB4_10RhizoCrypt11list_slices
FN:359,_RNvMs_Cs7YQQ0vypdx3_16rhizo_crypt_coreNtB4_10RhizoCrypt13append_vertex
FN:326,_RNvMs_Cs7YQQ0vypdx3_16rhizo_crypt_coreNtB4_10RhizoCrypt13list_sessions
FN:556,_RNvMs_Cs7YQQ0vypdx3_16rhizo_crypt_coreNtB4_10RhizoCrypt13resolve_slice
FN:411,_RNvMs_Cs7YQQ0vypdx3_16rhizo_crypt_coreNtB4_10RhizoCrypt13session_count
FN:521,_RNvMs_Cs7YQQ0vypdx3_16rhizo_crypt_coreNtB4_10RhizoCrypt14checkout_slice
FN:296,_RNvMs_Cs7YQQ0vypdx3_16rhizo_crypt_coreNtB4_10RhizoCrypt14create_session
FN:479,_RNvMs_Cs7YQQ0vypdx3_16rhizo_crypt_coreNtB4_10RhizoCrypt14query_vertices
FN:336,_RNvMs_Cs7YQQ0vypdx3_16rhizo_crypt_coreNtB4_10RhizoCrypt15discard_session
FN:469,_RNvMs_Cs7YQQ0vypdx3_16rhizo_crypt_coreNtB4_10RhizoCrypt16get_all_vertices
FN:416,_RNvMs_Cs7YQQ0vypdx3_16rhizo_crypt_coreNtB4_10RhizoCrypt18total_vertex_count
FN:426,_RNvMs_Cs7YQQ0vypdx3_16rhizo_crypt_coreNtB4_10RhizoCrypt19compute_merkle_root
FN:441,_RNvMs_Cs7YQQ0vypdx3_16rhizo_crypt_coreNtB4_10RhizoCrypt21generate_merkle_proof
FN:631,_RNvMs_Cs7YQQ0vypdx3_16rhizo_crypt_coreNtB4_10RhizoCrypt22get_dehydration_status
FN:261,_RNvMs_Cs7YQQ0vypdx3_16rhizo_crypt_coreNtB4_10RhizoCrypt6config
FN:255,_RNvMs_Cs7YQQ0vypdx3_16rhizo_crypt_coreNtB4_10RhizoCrypt7metricsB4_
FN:587,_RNvMs_Cs7YQQ0vypdx3_16rhizo_crypt_coreNtB4_10RhizoCrypt9dehydrate
FN:537,_RNvMs_Cs7YQQ0vypdx3_16rhizo_crypt_coreNtB4_10RhizoCrypt9get_slice
FN:152,_RNvMCs7YQQ0vypdx3_16rhizo_crypt_coreNtB2_13PrimalMetrics3new
FN:287,_RNvMs_Cs7YQQ0vypdx3_16rhizo_crypt_coreNtB4_10RhizoCrypt11uptime_secs
FN:280,_RNvMs_Cs7YQQ0vypdx3_16rhizo_crypt_coreNtB4_10RhizoCrypt13payload_store
FN:238,_RNvMs_Cs7YQQ0vypdx3_16rhizo_crypt_coreNtB4_10RhizoCrypt3new
FN:270,_RNvMs_Cs7YQQ0vypdx3_16rhizo_crypt_coreNtB4_10RhizoCrypt9dag_store
FN:677,_RNvXs0_Cs7YQQ0vypdx3_16rhizo_crypt_coreNtB5_10RhizoCryptNtNtB5_6primal15PrimalLifecycle4stop
FN:649,_RNvXs0_Cs7YQQ0vypdx3_16rhizo_crypt_coreNtB5_10RhizoCryptNtNtB5_6primal15PrimalLifecycle5start
FN:645,_RNvXs0_Cs7YQQ0vypdx3_16rhizo_crypt_coreNtB5_10RhizoCryptNtNtB5_6primal15PrimalLifecycle5state
FN:717,_RNvXs1_Cs7YQQ0vypdx3_16rhizo_crypt_coreNtB5_10RhizoCryptNtNtB5_6primal12PrimalHealth12health_check
FN:707,_RNvXs1_Cs7YQQ0vypdx3_16rhizo_crypt_coreNtB5_10RhizoCryptNtNtB5_6primal12PrimalHealth13health_status
FN:282,_RNCNCNvMs_Cs7YQQ0vypdx3_16rhizo_crypt_coreNtB8_10RhizoCrypt13payload_store00B8_
FN:272,_RNCNCNvMs_Cs7YQQ0vypdx3_16rhizo_crypt_coreNtB8_10RhizoCrypt9dag_store00B8_
FN:288,_RNCNvMs_Cs7YQQ0vypdx3_16rhizo_crypt_coreNtB6_10RhizoCrypt11uptime_secs0B6_
FN:280,_RNCNvMs_Cs7YQQ0vypdx3_16rhizo_crypt_coreNtB6_10RhizoCrypt13payload_store0B6_
FN:270,_RNCNvMs_Cs7YQQ0vypdx3_16rhizo_crypt_coreNtB6_10RhizoCrypt9dag_store0B6_
FN:677,_RNCNvXs0_Cs7YQQ0vypdx3_16rhizo_crypt_coreNtB7_10RhizoCryptNtNtB7_6primal15PrimalLifecycle4stop0B7_
FN:649,_RNCNvXs0_Cs7YQQ0vypdx3_16rhizo_crypt_coreNtB7_10RhizoCryptNtNtB7_6primal15PrimalLifecycle5start0B7_
FN:717,_RNCNvXs1_Cs7YQQ0vypdx3_16rhizo_crypt_coreNtB7_10RhizoCryptNtNtB7_6primal12PrimalHealth12health_check0B7_
FN:753,_RNCNvNtCs7YQQ0vypdx3_16rhizo_crypt_core5testss_22test_rhizocrypt_stores0B5_
FN:735,_RNCNvNtCs7YQQ0vypdx3_16rhizo_crypt_core5testss_25test_rhizocrypt_lifecycle0B5_
FN:771,_RNCNvNtCs7YQQ0vypdx3_16rhizo_crypt_core5testss_35test_rhizocrypt_invalid_transitions0B5_
FN:407,_RNCNCNvMs_Csid3wTlZBOIR_16rhizo_crypt_coreNtB8_10RhizoCrypt10get_vertex00CscGNtvOf38BJ_15rpc_integration
FN:322,_RNCNCNvMs_Csid3wTlZBOIR_16rhizo_crypt_coreNtB8_10RhizoCrypt11get_session00CscGNtvOf38BJ_15rpc_integration
FN:548,_RNCNCNvMs_Csid3wTlZBOIR_16rhizo_crypt_coreNtB8_10RhizoCrypt11list_slices00CscGNtvOf38BJ_15rpc_integration
FN:369,_RNCNCNvMs_Csid3wTlZBOIR_16rhizo_crypt_coreNtB8_10RhizoCrypt13append_vertex00CscGNtvOf38BJ_15rpc_integration
FN:564,_RNCNCNvMs_Csid3wTlZBOIR_16rhizo_crypt_coreNtB8_10RhizoCrypt13resolve_slice00CscGNtvOf38BJ_15rpc_integration
FN:490,_RNCNCNvMs_Csid3wTlZBOIR_16rhizo_crypt_coreNtB8_10RhizoCrypt14query_vertices00CscGNtvOf38BJ_15rpc_integration
FN:418,_RNCNCNvMs_Csid3wTlZBOIR_16rhizo_crypt_coreNtB8_10RhizoCrypt18total_vertex_count00CscGNtvOf38BJ_15rpc_integration
FN:458,_RNCNCNvMs_Csid3wTlZBOIR_16rhizo_crypt_coreNtB8_10RhizoCrypt21generate_merkle_proof00CscGNtvOf38BJ_15rpc_integration
FN:459,_RNCNCNvMs_Csid3wTlZBOIR_16rhizo_crypt_coreNtB8_10RhizoCrypt21generate_merkle_proof0s_0CscGNtvOf38BJ_15rpc_integration
FN:272,_RNCNCNvMs_Csid3wTlZBOIR_16rhizo_crypt_coreNtB8_10RhizoCrypt9dag_store00CscGNtvOf38BJ_15rpc_integration
FN:543,_RNCNCNvMs_Csid3wTlZBOIR_16rhizo_crypt_coreNtB8_10RhizoCrypt9get_slice00CscGNtvOf38BJ_15rpc_integration
FN:402,_RNCNvMs_Csid3wTlZBOIR_16rhizo_crypt_coreNtB6_10RhizoCrypt10get_vertex0CscGNtvOf38BJ_15rpc_integration
FN:317,_RNCNvMs_Csid3wTlZBOIR_16rhizo_crypt_coreNtB6_10RhizoCrypt11get_session0CscGNtvOf38BJ_15rpc_integration
FN:547,_RNCNvMs_Csid3wTlZBOIR_16rhizo_crypt_coreNtB6_10RhizoCrypt11list_slices0CscGNtvOf38BJ_15rpc_integration
FN:359,_RNCNvMs_Csid3wTlZBOIR_16rhizo_crypt_coreNtB6_10RhizoCrypt13append_vertex0CscGNtvOf38BJ_15rpc_integration
FN:326,_RNCNvMs_Csid3wTlZBOIR_16rhizo_crypt_coreNtB6_10RhizoCrypt13list_sessions0CscGNtvOf38BJ_15rpc_integration
FN:560,_RNCNvMs_Csid3wTlZBOIR_16rhizo_crypt_coreNtB6_10RhizoCrypt13resolve_slice0CscGNtvOf38BJ_15rpc_integration
FN:411,_RNCNvMs_Csid3wTlZBOIR_16rhizo_crypt_coreNtB6_10RhizoCrypt13session_count0CscGNtvOf38BJ_15rpc_integration
FN:521,_RNCNvMs_Csid3wTlZBOIR_16rhizo_crypt_coreNtB6_10RhizoCrypt14checkout_slice0CscGNtvOf38BJ_15rpc_integration
FN:296,_RNCNvMs_Csid3wTlZBOIR_16rhizo_crypt_coreNtB6_10RhizoCrypt14create_session0CscGNtvOf38BJ_15rpc_integration
FN:485,_RNCNvMs_Csid3wTlZBOIR_16rhizo_crypt_coreNtB6_10RhizoCrypt14query_vertices0CscGNtvOf38BJ_15rpc_integration
FN:336,_RNCNvMs_Csid3wTlZBOIR_16rhizo_crypt_coreNtB6_10RhizoCrypt15discard_session0CscGNtvOf38BJ_15rpc_integration
FN:469,_RNCNvMs_Csid3wTlZBOIR_16rhizo_crypt_coreNtB6_10RhizoCrypt16get_all_vertices0CscGNtvOf38BJ_15rpc_integration
FN:416,_RNCNvMs_Csid3wTlZBOIR_16rhizo_crypt_coreNtB6_10RhizoCrypt18total_vertex_count0CscGNtvOf38BJ_15rpc_integration
FN:426,_RNCNvMs_Csid3wTlZBOIR_16rhizo_crypt_coreNtB6_10RhizoCrypt19compute_merkle_root0CscGNtvOf38BJ_15rpc_integration
FN:445,_RNCNvMs_Csid3wTlZBOIR_16rhizo_crypt_coreNtB6_10RhizoCrypt21generate_merkle_proof0CscGNtvOf38BJ_15rpc_integration
FN:634,_RNCNvMs_Csid3wTlZBOIR_16rhizo_crypt_coreNtB6_10RhizoCrypt22get_dehydration_status0CscGNtvOf38BJ_15rpc_integration
FN:270,_RNCNvMs_Csid3wTlZBOIR_16rhizo_crypt_coreNtB6_10RhizoCrypt9dag_store0CscGNtvOf38BJ_15rpc_integration
FN:587,_RNCNvMs_Csid3wTlZBOIR_16rhizo_crypt_coreNtB6_10RhizoCrypt9dehydrate0CscGNtvOf38BJ_15rpc_integration
FN:537,_RNCNvMs_Csid3wTlZBOIR_16rhizo_crypt_coreNtB6_10RhizoCrypt9get_slice0CscGNtvOf38BJ_15rpc_integration
FN:649,_RNCNvXs0_Csid3wTlZBOIR_16rhizo_crypt_coreNtB7_10RhizoCryptNtNtB7_6primal15PrimalLifecycle5start0CscGNtvOf38BJ_15rpc_integration
FN:216,_RNvMCsid3wTlZBOIR_16rhizo_crypt_coreNtB2_13PrimalMetrics20get_queries_executedCscGNtvOf38BJ_15rpc_integration
FN:195,_RNvMCsid3wTlZBOIR_16rhizo_crypt_coreNtB2_13PrimalMetrics20get_sessions_createdCscGNtvOf38BJ_15rpc_integration
FN:176,_RNvMCsid3wTlZBOIR_16rhizo_crypt_coreNtB2_13PrimalMetrics20inc_queries_executedCscGNtvOf38BJ_15rpc_integration
FN:158,_RNvMCsid3wTlZBOIR_16rhizo_crypt_coreNtB2_13PrimalMetrics20inc_sessions_createdCscGNtvOf38BJ_15rpc_integration
FN:202,_RNvMCsid3wTlZBOIR_16rhizo_crypt_coreNtB2_13PrimalMetrics21get_sessions_resolvedCscGNtvOf38BJ_15rpc_integration
FN:209,_RNvMCsid3wTlZBOIR_16rhizo_crypt_coreNtB2_13PrimalMetrics21get_vertices_appendedCscGNtvOf38BJ_15rpc_integration
FN:170,_RNvMCsid3wTlZBOIR_16rhizo_crypt_coreNtB2_13PrimalMetrics21inc_vertices_appendedCscGNtvOf38BJ_15rpc_integration
FN:223,_RNvMCsid3wTlZBOIR_16rhizo_crypt_coreNtB2_13PrimalMetrics22get_slices_checked_outCscGNtvOf38BJ_15rpc_integration
FN:182,_RNvMCsid3wTlZBOIR_16rhizo_crypt_coreNtB2_13PrimalMetrics22inc_slices_checked_outCscGNtvOf38BJ_15rpc_integration
FN:230,_RNvMCsid3wTlZBOIR_16rhizo_crypt_coreNtB2_13PrimalMetrics26get_dehydrations_completedCscGNtvOf38BJ_15rpc_integration
FN:188,_RNvMCsid3wTlZBOIR_16rhizo_crypt_coreNtB2_13PrimalMetrics26inc_dehydrations_completedCscGNtvOf38BJ_15rpc_integration
FN:255,_RNvMs_Csid3wTlZBOIR_16rhizo_crypt_coreNtB4_10RhizoCrypt7metricsCscGNtvOf38BJ_15rpc_integration
FNDA:1,_RNCNCNvMs_Csid3wTlZBOIR_16rhizo_crypt_coreNtB8_10RhizoCrypt11get_session00CsdcY13n2UsKC_11chaos_tests
FNDA:0,_RNCNCNvMs_Csid3wTlZBOIR_16rhizo_crypt_coreNtB8_10RhizoCrypt13append_vertex00CsdcY13n2UsKC_11chaos_tests
FNDA:2,_RNCNCNvMs_Csid3wTlZBOIR_16rhizo_crypt_coreNtB8_10RhizoCrypt18total_vertex_count00CsdcY13n2UsKC_11chaos_tests
FNDA:0,_RNCNCNvMs_Csid3wTlZBOIR_16rhizo_crypt_coreNtB8_10RhizoCrypt9dag_store00CsdcY13n2UsKC_11chaos_tests
FNDA:1,_RNCNvMs_Csid3wTlZBOIR_16rhizo_crypt_coreNtB6_10RhizoCrypt11get_session0CsdcY13n2UsKC_11chaos_tests
FNDA:1020,_RNCNvMs_Csid3wTlZBOIR_16rhizo_crypt_coreNtB6_10RhizoCrypt13append_vertex0CsdcY13n2UsKC_11chaos_tests
FNDA:1,_RNCNvMs_Csid3wTlZBOIR_16rhizo_crypt_coreNtB6_10RhizoCrypt13list_sessions0CsdcY13n2UsKC_11chaos_tests
FNDA:1,_RNCNvMs_Csid3wTlZBOIR_16rhizo_crypt_coreNtB6_10RhizoCrypt13session_count0CsdcY13n2UsKC_11chaos_tests
FNDA:21,_RNCNvMs_Csid3wTlZBOIR_16rhizo_crypt_coreNtB6_10RhizoCrypt14create_session0CsdcY13n2UsKC_11chaos_tests
FNDA:2,_RNCNvMs_Csid3wTlZBOIR_16rhizo_crypt_coreNtB6_10RhizoCrypt15discard_session0CsdcY13n2UsKC_11chaos_tests
FNDA:2,_RNCNvMs_Csid3wTlZBOIR_16rhizo_crypt_coreNtB6_10RhizoCrypt18total_vertex_count0CsdcY13n2UsKC_11chaos_tests
FNDA:1021,_RNCNvMs_Csid3wTlZBOIR_16rhizo_crypt_coreNtB6_10RhizoCrypt9dag_store0CsdcY13n2UsKC_11chaos_tests
FNDA:9,_RNCNvXs0_Csid3wTlZBOIR_16rhizo_crypt_coreNtB7_10RhizoCryptNtNtB7_6primal15PrimalLifecycle4stop0CsdcY13n2UsKC_11chaos_tests
FNDA:9,_RNCNvXs0_Csid3wTlZBOIR_16rhizo_crypt_coreNtB7_10RhizoCryptNtNtB7_6primal15PrimalLifecycle5start0CsdcY13n2UsKC_11chaos_tests
FNDA:19,_RNvMCsid3wTlZBOIR_16rhizo_crypt_coreNtB2_13PrimalMetrics20inc_sessions_createdCsdcY13n2UsKC_11chaos_tests
FNDA:1020,_RNvMCsid3wTlZBOIR_16rhizo_crypt_coreNtB2_13PrimalMetrics21inc_vertices_appendedCsdcY13n2UsKC_11chaos_tests
FNDA:28,_RNvMCsid3wTlZBOIR_16rhizo_crypt_coreNtB2_13PrimalMetrics3new
FNDA:3,_RNvMs_Csid3wTlZBOIR_16rhizo_crypt_coreNtB4_10RhizoCrypt10get_vertex
FNDA:14,_RNvMs_Csid3wTlZBOIR_16rhizo_crypt_coreNtB4_10RhizoCrypt11get_session
FNDA:1,_RNvMs_Csid3wTlZBOIR_16rhizo_crypt_coreNtB4_10RhizoCrypt11list_slices
FNDA:0,_RNvMs_Csid3wTlZBOIR_16rhizo_crypt_coreNtB4_10RhizoCrypt11uptime_secs
FNDA:1047,_RNvMs_Csid3wTlZBOIR_16rhizo_crypt_coreNtB4_10RhizoCrypt13append_vertex
FNDA:6,_RNvMs_Csid3wTlZBOIR_16rhizo_crypt_coreNtB4_10RhizoCrypt13list_sessions
FNDA:0,_RNvMs_Csid3wTlZBOIR_16rhizo_crypt_coreNtB4_10RhizoCrypt13payload_store
FNDA:0,_RNvMs_Csid3wTlZBOIR_16rhizo_crypt_coreNtB4_10RhizoCrypt13resolve_slice
FNDA:4,_RNvMs_Csid3wTlZBOIR_16rhizo_crypt_coreNtB4_10RhizoCrypt13session_count
FNDA:1,_RNvMs_Csid3wTlZBOIR_16rhizo_crypt_coreNtB4_10RhizoCrypt14checkout_slice
FNDA:43,_RNvMs_Csid3wTlZBOIR_16rhizo_crypt_coreNtB4_10RhizoCrypt14create_session
FNDA:2,_RNvMs_Csid3wTlZBOIR_16rhizo_crypt_coreNtB4_10RhizoCrypt14query_vertices
FNDA:4,_RNvMs_Csid3wTlZBOIR_16rhizo_crypt_coreNtB4_10RhizoCrypt15discard_session
FNDA:2,_RNvMs_Csid3wTlZBOIR_16rhizo_crypt_coreNtB4_10RhizoCrypt16get_all_vertices
FNDA:4,_RNvMs_Csid3wTlZBOIR_16rhizo_crypt_coreNtB4_10RhizoCrypt18total_vertex_count
FNDA:2,_RNvMs_Csid3wTlZBOIR_16rhizo_crypt_coreNtB4_10RhizoCrypt19compute_merkle_root
FNDA:1,_RNvMs_Csid3wTlZBOIR_16rhizo_crypt_coreNtB4_10RhizoCrypt21generate_merkle_proof
FNDA:2,_RNvMs_Csid3wTlZBOIR_16rhizo_crypt_coreNtB4_10RhizoCrypt22get_dehydration_status
FNDA:28,_RNvMs_Csid3wTlZBOIR_16rhizo_crypt_coreNtB4_10RhizoCrypt3new
FNDA:0,_RNvMs_Csid3wTlZBOIR_16rhizo_crypt_coreNtB4_10RhizoCrypt6config
FNDA:1060,_RNvMs_Csid3wTlZBOIR_16rhizo_crypt_coreNtB4_10RhizoCrypt9dag_store
FNDA:1,_RNvMs_Csid3wTlZBOIR_16rhizo_crypt_coreNtB4_10RhizoCrypt9dehydrate
FNDA:1,_RNvMs_Csid3wTlZBOIR_16rhizo_crypt_coreNtB4_10RhizoCrypt9get_slice
FNDA:17,_RNvXs0_Csid3wTlZBOIR_16rhizo_crypt_coreNtB5_10RhizoCryptNtNtB5_6primal15PrimalLifecycle4stop
FNDA:27,_RNvXs0_Csid3wTlZBOIR_16rhizo_crypt_coreNtB5_10RhizoCryptNtNtB5_6primal15PrimalLifecycle5start
FNDA:2,_RNvXs0_Csid3wTlZBOIR_16rhizo_crypt_coreNtB5_10RhizoCryptNtNtB5_6primal15PrimalLifecycle5state
FNDA:0,_RNvXs1_Csid3wTlZBOIR_16rhizo_crypt_coreNtB5_10RhizoCryptNtNtB5_6primal12PrimalHealth12health_check
FNDA:0,_RNvXs1_Csid3wTlZBOIR_16rhizo_crypt_coreNtB5_10RhizoCryptNtNtB5_6primal12PrimalHealth13health_status
FNDA:0,_RNCNvMs_Csid3wTlZBOIR_16rhizo_crypt_coreNtB6_10RhizoCrypt11uptime_secs0B6_
FNDA:0,_RNCNCNvMs_Csid3wTlZBOIR_16rhizo_crypt_coreNtB8_10RhizoCrypt10get_vertex00B8_
FNDA:0,_RNCNCNvMs_Csid3wTlZBOIR_16rhizo_crypt_coreNtB8_10RhizoCrypt11get_session00B8_
FNDA:0,_RNCNCNvMs_Csid3wTlZBOIR_16rhizo_crypt_coreNtB8_10RhizoCrypt11list_slices00B8_
FNDA:0,_RNCNCNvMs_Csid3wTlZBOIR_16rhizo_crypt_coreNtB8_10RhizoCrypt13append_vertex00B8_
FNDA:0,_RNCNCNvMs_Csid3wTlZBOIR_16rhizo_crypt_coreNtB8_10RhizoCrypt13payload_store00B8_
FNDA:0,_RNCNCNvMs_Csid3wTlZBOIR_16rhizo_crypt_coreNtB8_10RhizoCrypt13resolve_slice00B8_
FNDA:0,_RNCNCNvMs_Csid3wTlZBOIR_16rhizo_crypt_coreNtB8_10RhizoCrypt14query_vertices00B8_
FNDA:0,_RNCNCNvMs_Csid3wTlZBOIR_16rhizo_crypt_coreNtB8_10RhizoCrypt18total_vertex_count00B8_
FNDA:0,_RNCNCNvMs_Csid3wTlZBOIR_16rhizo_crypt_coreNtB8_10RhizoCrypt21generate_merkle_proof00B8_
FNDA:0,_RNCNCNvMs_Csid3wTlZBOIR_16rhizo_crypt_coreNtB8_10RhizoCrypt21generate_merkle_proof0s_0B8_
FNDA:0,_RNCNCNvMs_Csid3wTlZBOIR_16rhizo_crypt_coreNtB8_10RhizoCrypt9dag_store00B8_
FNDA:0,_RNCNCNvMs_Csid3wTlZBOIR_16rhizo_crypt_coreNtB8_10RhizoCrypt9get_slice00B8_
FNDA:0,_RNCNvMs_Csid3wTlZBOIR_16rhizo_crypt_coreNtB6_10RhizoCrypt10get_vertex0B6_
FNDA:0,_RNCNvMs_Csid3wTlZBOIR_16rhizo_crypt_coreNtB6_10RhizoCrypt11get_session0B6_
FNDA:0,_RNCNvMs_Csid3wTlZBOIR_16rhizo_crypt_coreNtB6_10RhizoCrypt11list_slices0B6_
FNDA:0,_RNCNvMs_Csid3wTlZBOIR_16rhizo_crypt_coreNtB6_10RhizoCrypt13append_vertex0B6_
FNDA:0,_RNCNvMs_Csid3wTlZBOIR_16rhizo_crypt_coreNtB6_10RhizoCrypt13list_sessions0B6_
FNDA:0,_RNCNvMs_Csid3wTlZBOIR_16rhizo_crypt_coreNtB6_10RhizoCrypt13payload_store0B6_
FNDA:0,_RNCNvMs_Csid3wTlZBOIR_16rhizo_crypt_coreNtB6_10RhizoCrypt13resolve_slice0B6_
FNDA:0,_RNCNvMs_Csid3wTlZBOIR_16rhizo_crypt_coreNtB6_10RhizoCrypt13session_count0B6_
FNDA:0,_RNCNvMs_Csid3wTlZBOIR_16rhizo_crypt_coreNtB6_10RhizoCrypt14checkout_slice0B6_
FNDA:0,_RNCNvMs_Csid3wTlZBOIR_16rhizo_crypt_coreNtB6_10RhizoCrypt14create_session0B6_
FNDA:0,_RNCNvMs_Csid3wTlZBOIR_16rhizo_crypt_coreNtB6_10RhizoCrypt14query_vertices0B6_
FNDA:0,_RNCNvMs_Csid3wTlZBOIR_16rhizo_crypt_coreNtB6_10RhizoCrypt15discard_session0B6_
FNDA:0,_RNCNvMs_Csid3wTlZBOIR_16rhizo_crypt_coreNtB6_10RhizoCrypt16get_all_vertices0B6_
FNDA:0,_RNCNvMs_Csid3wTlZBOIR_16rhizo_crypt_coreNtB6_10RhizoCrypt18total_vertex_count0B6_
FNDA:0,_RNCNvMs_Csid3wTlZBOIR_16rhizo_crypt_coreNtB6_10RhizoCrypt19compute_merkle_root0B6_
FNDA:0,_RNCNvMs_Csid3wTlZBOIR_16rhizo_crypt_coreNtB6_10RhizoCrypt21generate_merkle_proof0B6_
FNDA:0,_RNCNvMs_Csid3wTlZBOIR_16rhizo_crypt_coreNtB6_10RhizoCrypt22get_dehydration_status0B6_
FNDA:0,_RNCNvMs_Csid3wTlZBOIR_16rhizo_crypt_coreNtB6_10RhizoCrypt9dag_store0B6_
FNDA:0,_RNCNvMs_Csid3wTlZBOIR_16rhizo_crypt_coreNtB6_10RhizoCrypt9dehydrate0B6_
FNDA:0,_RNCNvMs_Csid3wTlZBOIR_16rhizo_crypt_coreNtB6_10RhizoCrypt9get_slice0B6_
FNDA:0,_RNCNvXs0_Csid3wTlZBOIR_16rhizo_crypt_coreNtB7_10RhizoCryptNtNtB7_6primal15PrimalLifecycle4stop0B7_
FNDA:0,_RNCNvXs0_Csid3wTlZBOIR_16rhizo_crypt_coreNtB7_10RhizoCryptNtNtB7_6primal15PrimalLifecycle5start0B7_
FNDA:0,_RNCNvXs1_Csid3wTlZBOIR_16rhizo_crypt_coreNtB7_10RhizoCryptNtNtB7_6primal12PrimalHealth12health_check0B7_
FNDA:0,_RNvMCsid3wTlZBOIR_16rhizo_crypt_coreNtB2_13PrimalMetrics20get_queries_executedB2_
FNDA:0,_RNvMCsid3wTlZBOIR_16rhizo_crypt_coreNtB2_13PrimalMetrics20get_sessions_createdB2_
FNDA:0,_RNvMCsid3wTlZBOIR_16rhizo_crypt_coreNtB2_13PrimalMetrics20inc_queries_executedB2_
FNDA:0,_RNvMCsid3wTlZBOIR_16rhizo_crypt_coreNtB2_13PrimalMetrics20inc_sessions_createdB2_
FNDA:0,_RNvMCsid3wTlZBOIR_16rhizo_crypt_coreNtB2_13PrimalMetrics21get_sessions_resolvedB2_
FNDA:0,_RNvMCsid3wTlZBOIR_16rhizo_crypt_coreNtB2_13PrimalMetrics21get_vertices_appendedB2_
FNDA:0,_RNvMCsid3wTlZBOIR_16rhizo_crypt_coreNtB2_13PrimalMetrics21inc_sessions_resolvedB2_
FNDA:0,_RNvMCsid3wTlZBOIR_16rhizo_crypt_coreNtB2_13PrimalMetrics21inc_vertices_appendedB2_
FNDA:0,_RNvMCsid3wTlZBOIR_16rhizo_crypt_coreNtB2_13PrimalMetrics22get_slices_checked_outB2_
FNDA:0,_RNvMCsid3wTlZBOIR_16rhizo_crypt_coreNtB2_13PrimalMetrics22inc_slices_checked_outB2_
FNDA:0,_RNvMCsid3wTlZBOIR_16rhizo_crypt_coreNtB2_13PrimalMetrics26get_dehydrations_completedB2_
FNDA:0,_RNvMCsid3wTlZBOIR_16rhizo_crypt_coreNtB2_13PrimalMetrics26inc_dehydrations_completedB2_
FNDA:0,_RNvMs_Csid3wTlZBOIR_16rhizo_crypt_coreNtB4_10RhizoCrypt7metricsB4_
FNDA:0,_RNCNCNvMs_Csid3wTlZBOIR_16rhizo_crypt_coreNtB8_10RhizoCrypt10get_vertex00CsPnv9z7ECKg_9e2e_tests
FNDA:1,_RNCNCNvMs_Csid3wTlZBOIR_16rhizo_crypt_coreNtB8_10RhizoCrypt11get_session00CsPnv9z7ECKg_9e2e_tests
FNDA:0,_RNCNCNvMs_Csid3wTlZBOIR_16rhizo_crypt_coreNtB8_10RhizoCrypt13append_vertex00CsPnv9z7ECKg_9e2e_tests
FNDA:0,_RNCNCNvMs_Csid3wTlZBOIR_16rhizo_crypt_coreNtB8_10RhizoCrypt9dag_store00CsPnv9z7ECKg_9e2e_tests
FNDA:1,_RNCNvMs_Csid3wTlZBOIR_16rhizo_crypt_coreNtB6_10RhizoCrypt10get_vertex0CsPnv9z7ECKg_9e2e_tests
FNDA:7,_RNCNvMs_Csid3wTlZBOIR_16rhizo_crypt_coreNtB6_10RhizoCrypt11get_session0CsPnv9z7ECKg_9e2e_tests
FNDA:11,_RNCNvMs_Csid3wTlZBOIR_16rhizo_crypt_coreNtB6_10RhizoCrypt13append_vertex0CsPnv9z7ECKg_9e2e_tests
FNDA:1,_RNCNvMs_Csid3wTlZBOIR_16rhizo_crypt_coreNtB6_10RhizoCrypt13list_sessions0CsPnv9z7ECKg_9e2e_tests
FNDA:1,_RNCNvMs_Csid3wTlZBOIR_16rhizo_crypt_coreNtB6_10RhizoCrypt13session_count0CsPnv9z7ECKg_9e2e_tests
FNDA:13,_RNCNvMs_Csid3wTlZBOIR_16rhizo_crypt_coreNtB6_10RhizoCrypt14create_session0CsPnv9z7ECKg_9e2e_tests
FNDA:1,_RNCNvMs_Csid3wTlZBOIR_16rhizo_crypt_coreNtB6_10RhizoCrypt15discard_session0CsPnv9z7ECKg_9e2e_tests
FNDA:14,_RNCNvMs_Csid3wTlZBOIR_16rhizo_crypt_coreNtB6_10RhizoCrypt9dag_store0CsPnv9z7ECKg_9e2e_tests
FNDA:8,_RNCNvXs0_Csid3wTlZBOIR_16rhizo_crypt_coreNtB7_10RhizoCryptNtNtB7_6primal15PrimalLifecycle4stop0CsPnv9z7ECKg_9e2e_tests
FNDA:8,_RNCNvXs0_Csid3wTlZBOIR_16rhizo_crypt_coreNtB7_10RhizoCryptNtNtB7_6primal15PrimalLifecycle5start0CsPnv9z7ECKg_9e2e_tests
FNDA:12,_RNvMCsid3wTlZBOIR_16rhizo_crypt_coreNtB2_13PrimalMetrics20inc_sessions_createdCsPnv9z7ECKg_9e2e_tests
FNDA:11,_RNvMCsid3wTlZBOIR_16rhizo_crypt_coreNtB2_13PrimalMetrics21inc_vertices_appendedCsPnv9z7ECKg_9e2e_tests
FNDA:1,_RNvNtCs7YQQ0vypdx3_16rhizo_crypt_core5testss_22test_rhizocrypt_stores
FNDA:1,_RNvNtCs7YQQ0vypdx3_16rhizo_crypt_core5testss_25test_rhizocrypt_lifecycle
FNDA:1,_RNvNtCs7YQQ0vypdx3_16rhizo_crypt_core5testss_35test_rhizocrypt_invalid_transitions
FNDA:0,_RNCNCNvMs_Cs7YQQ0vypdx3_16rhizo_crypt_coreNtB8_10RhizoCrypt10get_vertex00B8_
FNDA:0,_RNCNCNvMs_Cs7YQQ0vypdx3_16rhizo_crypt_coreNtB8_10RhizoCrypt11get_session00B8_
FNDA:0,_RNCNCNvMs_Cs7YQQ0vypdx3_16rhizo_crypt_coreNtB8_10RhizoCrypt11list_slices00B8_
FNDA:0,_RNCNCNvMs_Cs7YQQ0vypdx3_16rhizo_crypt_coreNtB8_10RhizoCrypt13append_vertex00B8_
FNDA:0,_RNCNCNvMs_Cs7YQQ0vypdx3_16rhizo_crypt_coreNtB8_10RhizoCrypt13resolve_slice00B8_
FNDA:0,_RNCNCNvMs_Cs7YQQ0vypdx3_16rhizo_crypt_coreNtB8_10RhizoCrypt14query_vertices00B8_
FNDA:0,_RNCNCNvMs_Cs7YQQ0vypdx3_16rhizo_crypt_coreNtB8_10RhizoCrypt18total_vertex_count00B8_
FNDA:0,_RNCNCNvMs_Cs7YQQ0vypdx3_16rhizo_crypt_coreNtB8_10RhizoCrypt21generate_merkle_proof00B8_
FNDA:0,_RNCNCNvMs_Cs7YQQ0vypdx3_16rhizo_crypt_coreNtB8_10RhizoCrypt21generate_merkle_proof0s_0B8_
FNDA:0,_RNCNCNvMs_Cs7YQQ0vypdx3_16rhizo_crypt_coreNtB8_10RhizoCrypt9get_slice00B8_
FNDA:0,_RNCNvMs_Cs7YQQ0vypdx3_16rhizo_crypt_coreNtB6_10RhizoCrypt10get_vertex0B6_
FNDA:0,_RNCNvMs_Cs7YQQ0vypdx3_16rhizo_crypt_coreNtB6_10RhizoCrypt11get_session0B6_
FNDA:0,_RNCNvMs_Cs7YQQ0vypdx3_16rhizo_crypt_coreNtB6_10RhizoCrypt11list_slices0B6_
FNDA:0,_RNCNvMs_Cs7YQQ0vypdx3_16rhizo_crypt_coreNtB6_10RhizoCrypt13append_vertex0B6_
FNDA:0,_RNCNvMs_Cs7YQQ0vypdx3_16rhizo_crypt_coreNtB6_10RhizoCrypt13list_sessions0B6_
FNDA:0,_RNCNvMs_Cs7YQQ0vypdx3_16rhizo_crypt_coreNtB6_10RhizoCrypt13resolve_slice0B6_
FNDA:0,_RNCNvMs_Cs7YQQ0vypdx3_16rhizo_crypt_coreNtB6_10RhizoCrypt13session_count0B6_
FNDA:0,_RNCNvMs_Cs7YQQ0vypdx3_16rhizo_crypt_coreNtB6_10RhizoCrypt14checkout_slice0B6_
FNDA:0,_RNCNvMs_Cs7YQQ0vypdx3_16rhizo_crypt_coreNtB6_10RhizoCrypt14create_session0B6_
FNDA:0,_RNCNvMs_Cs7YQQ0vypdx3_16rhizo_crypt_coreNtB6_10RhizoCrypt14query_vertices0B6_
FNDA:0,_RNCNvMs_Cs7YQQ0vypdx3_16rhizo_crypt_coreNtB6_10RhizoCrypt15discard_session0B6_
FNDA:0,_RNCNvMs_Cs7YQQ0vypdx3_16rhizo_crypt_coreNtB6_10RhizoCrypt16get_all_vertices0B6_
FNDA:0,_RNCNvMs_Cs7YQQ0vypdx3_16rhizo_crypt_coreNtB6_10RhizoCrypt18total_vertex_count0B6_
FNDA:0,_RNCNvMs_Cs7YQQ0vypdx3_16rhizo_crypt_coreNtB6_10RhizoCrypt19compute_merkle_root0B6_
FNDA:0,_RNCNvMs_Cs7YQQ0vypdx3_16rhizo_crypt_coreNtB6_10RhizoCrypt21generate_merkle_proof0B6_
FNDA:0,_RNCNvMs_Cs7YQQ0vypdx3_16rhizo_crypt_coreNtB6_10RhizoCrypt22get_dehydration_status0B6_
FNDA:0,_RNCNvMs_Cs7YQQ0vypdx3_16rhizo_crypt_coreNtB6_10RhizoCrypt9dehydrate0B6_
FNDA:0,_RNCNvMs_Cs7YQQ0vypdx3_16rhizo_crypt_coreNtB6_10RhizoCrypt9get_slice0B6_
FNDA:0,_RNvMCs7YQQ0vypdx3_16rhizo_crypt_coreNtB2_13PrimalMetrics20get_queries_executedB2_
FNDA:0,_RNvMCs7YQQ0vypdx3_16rhizo_crypt_coreNtB2_13PrimalMetrics20get_sessions_createdB2_
FNDA:0,_RNvMCs7YQQ0vypdx3_16rhizo_crypt_coreNtB2_13PrimalMetrics20inc_queries_executedB2_
FNDA:0,_RNvMCs7YQQ0vypdx3_16rhizo_crypt_coreNtB2_13PrimalMetrics20inc_sessions_createdB2_
FNDA:0,_RNvMCs7YQQ0vypdx3_16rhizo_crypt_coreNtB2_13PrimalMetrics21get_sessions_resolvedB2_
FNDA:0,_RNvMCs7YQQ0vypdx3_16rhizo_crypt_coreNtB2_13PrimalMetrics21get_vertices_appendedB2_
FNDA:0,_RNvMCs7YQQ0vypdx3_16rhizo_crypt_coreNtB2_13PrimalMetrics21inc_sessions_resolvedB2_
FNDA:0,_RNvMCs7YQQ0vypdx3_16rhizo_crypt_coreNtB2_13PrimalMetrics21inc_vertices_appendedB2_
FNDA:0,_RNvMCs7YQQ0vypdx3_16rhizo_crypt_coreNtB2_13PrimalMetrics22get_slices_checked_outB2_
FNDA:0,_RNvMCs7YQQ0vypdx3_16rhizo_crypt_coreNtB2_13PrimalMetrics22inc_slices_checked_outB2_
FNDA:0,_RNvMCs7YQQ0vypdx3_16rhizo_crypt_coreNtB2_13PrimalMetrics26get_dehydrations_completedB2_
FNDA:0,_RNvMCs7YQQ0vypdx3_16rhizo_crypt_coreNtB2_13PrimalMetrics26inc_dehydrations_completedB2_
FNDA:0,_RNvMs_Cs7YQQ0vypdx3_16rhizo_crypt_coreNtB4_10RhizoCrypt10get_vertex
FNDA:0,_RNvMs_Cs7YQQ0vypdx3_16rhizo_crypt_coreNtB4_10RhizoCrypt11get_session
FNDA:0,_RNvMs_Cs7YQQ0vypdx3_16rhizo_crypt_coreNtB4_10RhizoCrypt11list_slices
FNDA:0,_RNvMs_Cs7YQQ0vypdx3_16rhizo_crypt_coreNtB4_10RhizoCrypt13append_vertex
FNDA:0,_RNvMs_Cs7YQQ0vypdx3_16rhizo_crypt_coreNtB4_10RhizoCrypt13list_sessions
FNDA:0,_RNvMs_Cs7YQQ0vypdx3_16rhizo_crypt_coreNtB4_10RhizoCrypt13resolve_slice
FNDA:0,_RNvMs_Cs7YQQ0vypdx3_16rhizo_crypt_coreNtB4_10RhizoCrypt13session_count
FNDA:0,_RNvMs_Cs7YQQ0vypdx3_16rhizo_crypt_coreNtB4_10RhizoCrypt14checkout_slice
FNDA:0,_RNvMs_Cs7YQQ0vypdx3_16rhizo_crypt_coreNtB4_10RhizoCrypt14create_session
FNDA:0,_RNvMs_Cs7YQQ0vypdx3_16rhizo_crypt_coreNtB4_10RhizoCrypt14query_vertices
FNDA:0,_RNvMs_Cs7YQQ0vypdx3_16rhizo_crypt_coreNtB4_10RhizoCrypt15discard_session
FNDA:0,_RNvMs_Cs7YQQ0vypdx3_16rhizo_crypt_coreNtB4_10RhizoCrypt16get_all_vertices
FNDA:0,_RNvMs_Cs7YQQ0vypdx3_16rhizo_crypt_coreNtB4_10RhizoCrypt18total_vertex_count
FNDA:0,_RNvMs_Cs7YQQ0vypdx3_16rhizo_crypt_coreNtB4_10RhizoCrypt19compute_merkle_root
FNDA:0,_RNvMs_Cs7YQQ0vypdx3_16rhizo_crypt_coreNtB4_10RhizoCrypt21generate_merkle_proof
FNDA:0,_RNvMs_Cs7YQQ0vypdx3_16rhizo_crypt_coreNtB4_10RhizoCrypt22get_dehydration_status
FNDA:0,_RNvMs_Cs7YQQ0vypdx3_16rhizo_crypt_coreNtB4_10RhizoCrypt6config
FNDA:0,_RNvMs_Cs7YQQ0vypdx3_16rhizo_crypt_coreNtB4_10RhizoCrypt7metricsB4_
FNDA:0,_RNvMs_Cs7YQQ0vypdx3_16rhizo_crypt_coreNtB4_10RhizoCrypt9dehydrate
FNDA:0,_RNvMs_Cs7YQQ0vypdx3_16rhizo_crypt_coreNtB4_10RhizoCrypt9get_slice
FNDA:3,_RNvMCs7YQQ0vypdx3_16rhizo_crypt_coreNtB2_13PrimalMetrics3new
FNDA:2,_RNvMs_Cs7YQQ0vypdx3_16rhizo_crypt_coreNtB4_10RhizoCrypt11uptime_secs
FNDA:1,_RNvMs_Cs7YQQ0vypdx3_16rhizo_crypt_coreNtB4_10RhizoCrypt13payload_store
FNDA:3,_RNvMs_Cs7YQQ0vypdx3_16rhizo_crypt_coreNtB4_10RhizoCrypt3new
FNDA:2,_RNvMs_Cs7YQQ0vypdx3_16rhizo_crypt_coreNtB4_10RhizoCrypt9dag_store
FNDA:2,_RNvXs0_Cs7YQQ0vypdx3_16rhizo_crypt_coreNtB5_10RhizoCryptNtNtB5_6primal15PrimalLifecycle4stop
FNDA:4,_RNvXs0_Cs7YQQ0vypdx3_16rhizo_crypt_coreNtB5_10RhizoCryptNtNtB5_6primal15PrimalLifecycle5start
FNDA:3,_RNvXs0_Cs7YQQ0vypdx3_16rhizo_crypt_coreNtB5_10RhizoCryptNtNtB5_6primal15PrimalLifecycle5state
FNDA:1,_RNvXs1_Cs7YQQ0vypdx3_16rhizo_crypt_coreNtB5_10RhizoCryptNtNtB5_6primal12PrimalHealth12health_check
FNDA:1,_RNvXs1_Cs7YQQ0vypdx3_16rhizo_crypt_coreNtB5_10RhizoCryptNtNtB5_6primal12PrimalHealth13health_status
FNDA:0,_RNCNCNvMs_Cs7YQQ0vypdx3_16rhizo_crypt_coreNtB8_10RhizoCrypt13payload_store00B8_
FNDA:1,_RNCNCNvMs_Cs7YQQ0vypdx3_16rhizo_crypt_coreNtB8_10RhizoCrypt9dag_store00B8_
FNDA:2,_RNCNvMs_Cs7YQQ0vypdx3_16rhizo_crypt_coreNtB6_10RhizoCrypt11uptime_secs0B6_
FNDA:1,_RNCNvMs_Cs7YQQ0vypdx3_16rhizo_crypt_coreNtB6_10RhizoCrypt13payload_store0B6_
FNDA:2,_RNCNvMs_Cs7YQQ0vypdx3_16rhizo_crypt_coreNtB6_10RhizoCrypt9dag_store0B6_
FNDA:2,_RNCNvXs0_Cs7YQQ0vypdx3_16rhizo_crypt_coreNtB7_10RhizoCryptNtNtB7_6primal15PrimalLifecycle4stop0B7_
FNDA:4,_RNCNvXs0_Cs7YQQ0vypdx3_16rhizo_crypt_coreNtB7_10RhizoCryptNtNtB7_6primal15PrimalLifecycle5start0B7_
FNDA:1,_RNCNvXs1_Cs7YQQ0vypdx3_16rhizo_crypt_coreNtB7_10RhizoCryptNtNtB7_6primal12PrimalHealth12health_check0B7_
FNDA:1,_RNCNvNtCs7YQQ0vypdx3_16rhizo_crypt_core5testss_22test_rhizocrypt_stores0B5_
FNDA:1,_RNCNvNtCs7YQQ0vypdx3_16rhizo_crypt_core5testss_25test_rhizocrypt_lifecycle0B5_
FNDA:1,_RNCNvNtCs7YQQ0vypdx3_16rhizo_crypt_core5testss_35test_rhizocrypt_invalid_transitions0B5_
FNDA:0,_RNCNCNvMs_Csid3wTlZBOIR_16rhizo_crypt_coreNtB8_10RhizoCrypt10get_vertex00CscGNtvOf38BJ_15rpc_integration
FNDA:0,_RNCNCNvMs_Csid3wTlZBOIR_16rhizo_crypt_coreNtB8_10RhizoCrypt11get_session00CscGNtvOf38BJ_15rpc_integration
FNDA:1,_RNCNCNvMs_Csid3wTlZBOIR_16rhizo_crypt_coreNtB8_10RhizoCrypt11list_slices00CscGNtvOf38BJ_15rpc_integration
FNDA:0,_RNCNCNvMs_Csid3wTlZBOIR_16rhizo_crypt_coreNtB8_10RhizoCrypt13append_vertex00CscGNtvOf38BJ_15rpc_integration
FNDA:0,_RNCNCNvMs_Csid3wTlZBOIR_16rhizo_crypt_coreNtB8_10RhizoCrypt13resolve_slice00CscGNtvOf38BJ_15rpc_integration
FNDA:6,_RNCNCNvMs_Csid3wTlZBOIR_16rhizo_crypt_coreNtB8_10RhizoCrypt14query_vertices00CscGNtvOf38BJ_15rpc_integration
FNDA:0,_RNCNCNvMs_Csid3wTlZBOIR_16rhizo_crypt_coreNtB8_10RhizoCrypt18total_vertex_count00CscGNtvOf38BJ_15rpc_integration
FNDA:1,_RNCNCNvMs_Csid3wTlZBOIR_16rhizo_crypt_coreNtB8_10RhizoCrypt21generate_merkle_proof00CscGNtvOf38BJ_15rpc_integration
FNDA:0,_RNCNCNvMs_Csid3wTlZBOIR_16rhizo_crypt_coreNtB8_10RhizoCrypt21generate_merkle_proof0s_0CscGNtvOf38BJ_15rpc_integration
FNDA:0,_RNCNCNvMs_Csid3wTlZBOIR_16rhizo_crypt_coreNtB8_10RhizoCrypt9dag_store00CscGNtvOf38BJ_15rpc_integration
FNDA:0,_RNCNCNvMs_Csid3wTlZBOIR_16rhizo_crypt_coreNtB8_10RhizoCrypt9get_slice00CscGNtvOf38BJ_15rpc_integration
FNDA:2,_RNCNvMs_Csid3wTlZBOIR_16rhizo_crypt_coreNtB6_10RhizoCrypt10get_vertex0CscGNtvOf38BJ_15rpc_integration
FNDA:6,_RNCNvMs_Csid3wTlZBOIR_16rhizo_crypt_coreNtB6_10RhizoCrypt11get_session0CscGNtvOf38BJ_15rpc_integration
FNDA:1,_RNCNvMs_Csid3wTlZBOIR_16rhizo_crypt_coreNtB6_10RhizoCrypt11list_slices0CscGNtvOf38BJ_15rpc_integration
FNDA:16,_RNCNvMs_Csid3wTlZBOIR_16rhizo_crypt_coreNtB6_10RhizoCrypt13append_vertex0CscGNtvOf38BJ_15rpc_integration
FNDA:4,_RNCNvMs_Csid3wTlZBOIR_16rhizo_crypt_coreNtB6_10RhizoCrypt13list_sessions0CscGNtvOf38BJ_15rpc_integration
FNDA:0,_RNCNvMs_Csid3wTlZBOIR_16rhizo_crypt_coreNtB6_10RhizoCrypt13resolve_slice0CscGNtvOf38BJ_15rpc_integration
FNDA:2,_RNCNvMs_Csid3wTlZBOIR_16rhizo_crypt_coreNtB6_10RhizoCrypt13session_count0CscGNtvOf38BJ_15rpc_integration
FNDA:1,_RNCNvMs_Csid3wTlZBOIR_16rhizo_crypt_coreNtB6_10RhizoCrypt14checkout_slice0CscGNtvOf38BJ_15rpc_integration
FNDA:9,_RNCNvMs_Csid3wTlZBOIR_16rhizo_crypt_coreNtB6_10RhizoCrypt14create_session0CscGNtvOf38BJ_15rpc_integration
FNDA:2,_RNCNvMs_Csid3wTlZBOIR_16rhizo_crypt_coreNtB6_10RhizoCrypt14query_vertices0CscGNtvOf38BJ_15rpc_integration
FNDA:1,_RNCNvMs_Csid3wTlZBOIR_16rhizo_crypt_coreNtB6_10RhizoCrypt15discard_session0CscGNtvOf38BJ_15rpc_integration
FNDA:2,_RNCNvMs_Csid3wTlZBOIR_16rhizo_crypt_coreNtB6_10RhizoCrypt16get_all_vertices0CscGNtvOf38BJ_15rpc_integration
FNDA:2,_RNCNvMs_Csid3wTlZBOIR_16rhizo_crypt_coreNtB6_10RhizoCrypt18total_vertex_count0CscGNtvOf38BJ_15rpc_integration
FNDA:2,_RNCNvMs_Csid3wTlZBOIR_16rhizo_crypt_coreNtB6_10RhizoCrypt19compute_merkle_root0CscGNtvOf38BJ_15rpc_integration
FNDA:1,_RNCNvMs_Csid3wTlZBOIR_16rhizo_crypt_coreNtB6_10RhizoCrypt21generate_merkle_proof0CscGNtvOf38BJ_15rpc_integration
FNDA:2,_RNCNvMs_Csid3wTlZBOIR_16rhizo_crypt_coreNtB6_10RhizoCrypt22get_dehydration_status0CscGNtvOf38BJ_15rpc_integration
FNDA:25,_RNCNvMs_Csid3wTlZBOIR_16rhizo_crypt_coreNtB6_10RhizoCrypt9dag_store0CscGNtvOf38BJ_15rpc_integration
FNDA:1,_RNCNvMs_Csid3wTlZBOIR_16rhizo_crypt_coreNtB6_10RhizoCrypt9dehydrate0CscGNtvOf38BJ_15rpc_integration
FNDA:1,_RNCNvMs_Csid3wTlZBOIR_16rhizo_crypt_coreNtB6_10RhizoCrypt9get_slice0CscGNtvOf38BJ_15rpc_integration
FNDA:10,_RNCNvXs0_Csid3wTlZBOIR_16rhizo_crypt_coreNtB7_10RhizoCryptNtNtB7_6primal15PrimalLifecycle5start0CscGNtvOf38BJ_15rpc_integration
FNDA:2,_RNvMCsid3wTlZBOIR_16rhizo_crypt_coreNtB2_13PrimalMetrics20get_queries_executedCscGNtvOf38BJ_15rpc_integration
FNDA:2,_RNvMCsid3wTlZBOIR_16rhizo_crypt_coreNtB2_13PrimalMetrics20get_sessions_createdCscGNtvOf38BJ_15rpc_integration
FNDA:2,_RNvMCsid3wTlZBOIR_16rhizo_crypt_coreNtB2_13PrimalMetrics20inc_queries_executedCscGNtvOf38BJ_15rpc_integration
FNDA:9,_RNvMCsid3wTlZBOIR_16rhizo_crypt_coreNtB2_13PrimalMetrics20inc_sessions_createdCscGNtvOf38BJ_15rpc_integration
FNDA:2,_RNvMCsid3wTlZBOIR_16rhizo_crypt_coreNtB2_13PrimalMetrics21get_sessions_resolvedCscGNtvOf38BJ_15rpc_integration
FNDA:2,_RNvMCsid3wTlZBOIR_16rhizo_crypt_coreNtB2_13PrimalMetrics21get_vertices_appendedCscGNtvOf38BJ_15rpc_integration
FNDA:16,_RNvMCsid3wTlZBOIR_16rhizo_crypt_coreNtB2_13PrimalMetrics21inc_vertices_appendedCscGNtvOf38BJ_15rpc_integration
FNDA:2,_RNvMCsid3wTlZBOIR_16rhizo_crypt_coreNtB2_13PrimalMetrics22get_slices_checked_outCscGNtvOf38BJ_15rpc_integration
FNDA:1,_RNvMCsid3wTlZBOIR_16rhizo_crypt_coreNtB2_13PrimalMetrics22inc_slices_checked_outCscGNtvOf38BJ_15rpc_integration
FNDA:2,_RNvMCsid3wTlZBOIR_16rhizo_crypt_coreNtB2_13PrimalMetrics26get_dehydrations_completedCscGNtvOf38BJ_15rpc_integration
FNDA:1,_RNvMCsid3wTlZBOIR_16rhizo_crypt_coreNtB2_13PrimalMetrics26inc_dehydrations_completedCscGNtvOf38BJ_15rpc_integration
FNDA:2,_RNvMs_Csid3wTlZBOIR_16rhizo_crypt_coreNtB4_10RhizoCrypt7metricsCscGNtvOf38BJ_15rpc_integration
FNF:84
FNH:74
DA:152,31
DA:153,31
DA:154,31
DA:158,40
DA:159,40
DA:160,40
DA:164,0
DA:165,0
DA:166,0
DA:170,1047
DA:171,1047
DA:172,1047
DA:176,2
DA:177,2
DA:178,2
DA:182,1
DA:183,1
DA:184,1
DA:188,1
DA:189,1
DA:190,1
DA:195,2
DA:196,2
DA:197,2
DA:202,2
DA:203,2
DA:204,2
DA:209,2
DA:210,2
DA:211,2
DA:216,2
DA:217,2
DA:218,2
DA:223,2
DA:224,2
DA:225,2
DA:230,2
DA:231,2
DA:232,2
DA:238,31
DA:239,31
DA:240,31
DA:241,31
DA:242,31
DA:243,31
DA:244,31
DA:245,31
DA:246,31
DA:247,31
DA:248,31
DA:249,31
DA:250,31
DA:255,2
DA:256,2
DA:257,2
DA:261,0
DA:262,0
DA:263,0
DA:270,1062
DA:271,1062
DA:272,1062
DA:273,1062
DA:280,1
DA:281,1
DA:282,1
DA:283,1
DA:287,2
DA:288,2
DA:289,2
DA:296,43
DA:297,43
DA:298,1
DA:299,42
DA:301,42
DA:302,42
DA:303,2
DA:304,40
DA:305,40
DA:306,40
DA:307,40
DA:308,40
DA:309,40
DA:310,43
DA:317,14
DA:318,14
DA:319,14
DA:320,14
DA:321,14
DA:322,14
DA:323,14
DA:326,6
DA:327,6
DA:328,6
DA:329,6
DA:336,4
DA:337,4
DA:338,0
DA:339,4
DA:342,4
DA:343,4
DA:344,1
DA:345,3
DA:348,3
DA:349,3
DA:351,3
DA:352,4
DA:359,1047
DA:360,1047
DA:361,0
DA:362,1047
DA:366,1047
DA:367,1047
DA:368,1047
DA:369,1047
DA:371,1047
DA:372,0
DA:373,1047
DA:376,1047
DA:377,0
DA:378,1047
DA:381,1047
DA:382,1047
DA:383,1047
DA:384,1047
DA:388,1047
DA:389,1047
DA:390,1047
DA:391,1047
DA:392,1047
DA:393,1047
DA:394,1047
DA:395,1047
DA:402,3
DA:403,3
DA:404,3
DA:405,3
DA:406,3
DA:407,3
DA:408,3
DA:411,4
DA:412,4
DA:413,4
DA:416,4
DA:417,4
DA:418,4
DA:419,4
DA:426,2
DA:427,2
DA:428,2
DA:430,2
DA:431,2
DA:433,2
DA:434,2
DA:441,1
DA:442,1
DA:443,1
DA:444,1
DA:445,1
DA:446,1
DA:447,1
DA:449,1
DA:450,0
DA:451,1
DA:452,1
DA:453,1
DA:456,1
DA:457,1
DA:458,1
DA:459,1
DA:461,1
DA:462,1
DA:469,2
DA:470,2
DA:471,2
DA:472,2
DA:479,2
DA:480,2
DA:481,2
DA:482,2
DA:483,2
DA:484,2
DA:485,2
DA:486,2
DA:488,2
DA:489,2
DA:490,6
DA:492,6
DA:493,4
DA:494,2
DA:495,2
DA:496,2
DA:498,4
DA:499,0
DA:500,0
DA:501,0
DA:502,4
DA:503,4
DA:504,6
DA:505,2
DA:506,2
DA:507,2
DA:508,2
DA:509,2
DA:510,2
DA:521,1
DA:522,1
DA:523,0
DA:524,1
DA:525,1
DA:526,1
DA:527,1
DA:528,1
DA:529,1
DA:530,1
DA:537,1
DA:538,1
DA:539,1
DA:540,1
DA:541,1
DA:542,1
DA:543,1
DA:544,1
DA:547,1
DA:548,1
DA:549,1
DA:556,0
DA:557,0
DA:558,0
DA:559,0
DA:560,0
DA:561,0
DA:562,0
DA:563,0
DA:564,0
DA:566,0
DA:567,0
DA:568,0
DA:569,0
DA:570,0
DA:571,0
DA:572,0
DA:573,0
DA:574,0
DA:575,0
DA:576,0
DA:587,1
DA:590,1
DA:591,1
DA:595,1
DA:599,1
DA:600,1
DA:601,1
DA:602,1
DA:603,1
DA:604,1
DA:605,1
DA:606,1
DA:607,1
DA:608,1
DA:609,1
DA:610,1
DA:611,1
DA:612,1
DA:613,1
DA:617,1
DA:618,1
DA:619,1
DA:620,1
DA:621,1
DA:622,1
DA:623,1
DA:624,1
DA:625,1
DA:626,1
DA:627,1
DA:628,1
DA:631,2
DA:632,2
DA:633,2
DA:634,2
DA:635,2
DA:636,2
DA:637,2
DA:638,2
DA:639,2
DA:640,2
DA:641,2
DA:645,5
DA:646,5
DA:647,5
DA:649,31
DA:650,31
DA:651,2
DA:652,2
DA:653,2
DA:654,2
DA:655,29
DA:656,29
DA:657,29
DA:658,29
DA:662,29
DA:663,29
DA:666,29
DA:667,29
DA:668,29
DA:669,29
DA:670,29
DA:671,29
DA:672,29
DA:674,29
DA:675,31
DA:677,19
DA:678,19
DA:679,2
DA:680,2
DA:681,2
DA:682,2
DA:683,17
DA:684,17
DA:685,17
DA:686,17
DA:690,17
DA:691,17
DA:694,17
DA:695,17
DA:696,17
DA:697,17
DA:698,17
DA:699,17
DA:700,17
DA:702,17
DA:703,19
DA:707,1
DA:708,1
DA:709,1
DA:711,0
DA:712,0
DA:713,0
DA:715,1
DA:717,1
DA:718,1
DA:719,1
DA:721,1
DA:722,1
DA:723,1
DA:725,1
DA:726,1
DA:735,1
DA:736,1
DA:737,1
DA:738,1
DA:739,1
DA:740,1
DA:741,1
DA:742,1
DA:743,1
DA:744,1
DA:745,1
DA:746,1
DA:747,1
DA:748,1
DA:749,1
DA:750,1
DA:753,1
DA:754,1
DA:755,1
DA:756,1
DA:757,1
DA:758,1
DA:759,1
DA:760,1
DA:761,1
DA:762,1
DA:763,1
DA:764,1
DA:765,1
DA:766,1
DA:767,1
DA:768,1
DA:771,1
DA:772,1
DA:773,1
DA:774,1
DA:775,1
DA:776,1
DA:777,1
DA:778,1
DA:779,1
DA:780,1
DA:781,1
DA:782,1
BRF:0
BRH:0
LF:461
LH:416
end_of_record
SF:/home/strandgate/Development/ecoPrimals/phase2/rhizoCrypt/crates/rhizo-crypt-core/src/merkle.rs
FN:212,_RINvMs2_NtCsid3wTlZBOIR_16rhizo_crypt_core6merkleNtB6_17MerkleTreeBuilder12add_verticespEB8_
FN:61,_RNCNvMNtCsid3wTlZBOIR_16rhizo_crypt_core6merkleNtB4_10MerkleRoot6to_hex0B6_
FN:35,_RNCNvMNtCsid3wTlZBOIR_16rhizo_crypt_core6merkleNtB4_10MerkleRoot7compute0B6_
FN:45,_RNCNvMNtCsid3wTlZBOIR_16rhizo_crypt_core6merkleNtB4_10MerkleRoot7computes_0B6_
FN:149,_RNCNvMs1_NtCsid3wTlZBOIR_16rhizo_crypt_core6merkleNtB7_11MerkleProof8generate0B9_
FN:178,_RNCNvMs1_NtCsid3wTlZBOIR_16rhizo_crypt_core6merkleNtB7_11MerkleProof8generates_0B9_
FN:212,_RINvMs2_NtCsid3wTlZBOIR_16rhizo_crypt_core6merkleNtB6_17MerkleTreeBuilder12add_verticesINtNtCs6bBekJvxEMJ_5alloc3vec3VecNtNtB8_6vertex6VertexEECs6Xsx8PfdSt5_14property_tests
FN:20,_RNvMNtCsid3wTlZBOIR_16rhizo_crypt_core6merkleNtB2_10MerkleRoot3new
FN:59,_RNvMNtCsid3wTlZBOIR_16rhizo_crypt_core6merkleNtB2_10MerkleRoot6to_hex
FN:28,_RNvMNtCsid3wTlZBOIR_16rhizo_crypt_core6merkleNtB2_10MerkleRoot7compute
FN:53,_RNvMNtCsid3wTlZBOIR_16rhizo_crypt_core6merkleNtB2_10MerkleRoot8as_bytes
FN:113,_RNvMs1_NtCsid3wTlZBOIR_16rhizo_crypt_core6merkleNtB5_11MerkleProof6verify
FN:136,_RNvMs1_NtCsid3wTlZBOIR_16rhizo_crypt_core6merkleNtB5_11MerkleProof8generate
FN:207,_RNvMs2_NtCsid3wTlZBOIR_16rhizo_crypt_core6merkleNtB5_17MerkleTreeBuilder10add_vertex
FN:218,_RNvMs2_NtCsid3wTlZBOIR_16rhizo_crypt_core6merkleNtB5_17MerkleTreeBuilder12compute_root
FN:227,_RNvMs2_NtCsid3wTlZBOIR_16rhizo_crypt_core6merkleNtB5_17MerkleTreeBuilder14generate_proof
FN:234,_RNvMs2_NtCsid3wTlZBOIR_16rhizo_crypt_core6merkleNtB5_17MerkleTreeBuilder3len
FN:202,_RNvMs2_NtCsid3wTlZBOIR_16rhizo_crypt_core6merkleNtB5_17MerkleTreeBuilder3new
FN:240,_RNvMs2_NtCsid3wTlZBOIR_16rhizo_crypt_core6merkleNtB5_17MerkleTreeBuilder8is_empty
FN:75,_RNvXs0_NtCsid3wTlZBOIR_16rhizo_crypt_core6merkleNtB5_10MerkleRootNtNtCs9sjCchOt1K7_4core3fmt7Display3fmt
FN:69,_RNvXs_NtCsid3wTlZBOIR_16rhizo_crypt_core6merkleNtB4_10MerkleRootNtNtCs9sjCchOt1K7_4core3fmt5Debug3fmt
FN:61,_RNCNvMNtCs7YQQ0vypdx3_16rhizo_crypt_core6merkleNtB4_10MerkleRoot6to_hex0B6_
FN:35,_RNCNvMNtCs7YQQ0vypdx3_16rhizo_crypt_core6merkleNtB4_10MerkleRoot7compute0B6_
FN:45,_RNCNvMNtCs7YQQ0vypdx3_16rhizo_crypt_core6merkleNtB4_10MerkleRoot7computes_0B6_
FN:149,_RNCNvMs1_NtCs7YQQ0vypdx3_16rhizo_crypt_core6merkleNtB7_11MerkleProof8generate0B9_
FN:178,_RNCNvMs1_NtCs7YQQ0vypdx3_16rhizo_crypt_core6merkleNtB7_11MerkleProof8generates_0B9_
FN:212,_RINvMs2_NtCs7YQQ0vypdx3_16rhizo_crypt_core6merkleNtB6_17MerkleTreeBuilder12add_verticespEB8_
FN:53,_RNvMNtCs7YQQ0vypdx3_16rhizo_crypt_core6merkleNtB2_10MerkleRoot8as_bytes
FN:75,_RNvXs0_NtCs7YQQ0vypdx3_16rhizo_crypt_core6merkleNtB5_10MerkleRootNtNtCs9sjCchOt1K7_4core3fmt7Display3fmt
FN:253,_RNvNtNtCs7YQQ0vypdx3_16rhizo_crypt_core6merkle5tests11make_vertex
FN:346,_RNvNtNtCs7YQQ0vypdx3_16rhizo_crypt_core6merkle5testss_20test_merkle_root_hex
FN:262,_RNvNtNtCs7YQQ0vypdx3_16rhizo_crypt_core6merkle5testss_22test_merkle_root_empty
FN:268,_RNvNtNtCs7YQQ0vypdx3_16rhizo_crypt_core6merkle5testss_23test_merkle_root_single
FN:328,_RNvNtNtCs7YQQ0vypdx3_16rhizo_crypt_core6merkle5testss_24test_merkle_tree_builder
FN:316,_RNvNtNtCs7YQQ0vypdx3_16rhizo_crypt_core6merkle5testss_30test_merkle_proof_wrong_vertex
FN:275,_RNvNtNtCs7YQQ0vypdx3_16rhizo_crypt_core6merkle5testss_30test_merkle_root_deterministic
FN:283,_RNvNtNtCs7YQQ0vypdx3_16rhizo_crypt_core6merkle5testss_30test_merkle_root_order_matters
FN:307,_RNvNtNtCs7YQQ0vypdx3_16rhizo_crypt_core6merkle5testss_34test_merkle_proof_invalid_position
FN:294,_RNvNtNtCs7YQQ0vypdx3_16rhizo_crypt_core6merkle5testss_37test_merkle_proof_generate_and_verify
FN:20,_RNvMNtCs7YQQ0vypdx3_16rhizo_crypt_core6merkleNtB2_10MerkleRoot3new
FN:59,_RNvMNtCs7YQQ0vypdx3_16rhizo_crypt_core6merkleNtB2_10MerkleRoot6to_hex
FN:28,_RNvMNtCs7YQQ0vypdx3_16rhizo_crypt_core6merkleNtB2_10MerkleRoot7compute
FN:113,_RNvMs1_NtCs7YQQ0vypdx3_16rhizo_crypt_core6merkleNtB5_11MerkleProof6verify
FN:136,_RNvMs1_NtCs7YQQ0vypdx3_16rhizo_crypt_core6merkleNtB5_11MerkleProof8generate
FN:207,_RNvMs2_NtCs7YQQ0vypdx3_16rhizo_crypt_core6merkleNtB5_17MerkleTreeBuilder10add_vertex
FN:218,_RNvMs2_NtCs7YQQ0vypdx3_16rhizo_crypt_core6merkleNtB5_17MerkleTreeBuilder12compute_root
FN:227,_RNvMs2_NtCs7YQQ0vypdx3_16rhizo_crypt_core6merkleNtB5_17MerkleTreeBuilder14generate_proof
FN:234,_RNvMs2_NtCs7YQQ0vypdx3_16rhizo_crypt_core6merkleNtB5_17MerkleTreeBuilder3len
FN:202,_RNvMs2_NtCs7YQQ0vypdx3_16rhizo_crypt_core6merkleNtB5_17MerkleTreeBuilder3new
FN:240,_RNvMs2_NtCs7YQQ0vypdx3_16rhizo_crypt_core6merkleNtB5_17MerkleTreeBuilder8is_empty
FN:69,_RNvXs_NtCs7YQQ0vypdx3_16rhizo_crypt_core6merkleNtB4_10MerkleRootNtNtCs9sjCchOt1K7_4core3fmt5Debug3fmt
FNDA:0,_RINvMs2_NtCsid3wTlZBOIR_16rhizo_crypt_core6merkleNtB6_17MerkleTreeBuilder12add_verticespEB8_
FNDA:0,_RNCNvMNtCsid3wTlZBOIR_16rhizo_crypt_core6merkleNtB4_10MerkleRoot6to_hex0B6_
FNDA:6660,_RNCNvMNtCsid3wTlZBOIR_16rhizo_crypt_core6merkleNtB4_10MerkleRoot7compute0B6_
FNDA:8035,_RNCNvMNtCsid3wTlZBOIR_16rhizo_crypt_core6merkleNtB4_10MerkleRoot7computes_0B6_
FNDA:1319,_RNCNvMs1_NtCsid3wTlZBOIR_16rhizo_crypt_core6merkleNtB7_11MerkleProof8generate0B9_
FNDA:1483,_RNCNvMs1_NtCsid3wTlZBOIR_16rhizo_crypt_core6merkleNtB7_11MerkleProof8generates_0B9_
FNDA:257,_RINvMs2_NtCsid3wTlZBOIR_16rhizo_crypt_core6merkleNtB6_17MerkleTreeBuilder12add_verticesINtNtCs6bBekJvxEMJ_5alloc3vec3VecNtNtB8_6vertex6VertexEECs6Xsx8PfdSt5_14property_tests
FNDA:0,_RNvMNtCsid3wTlZBOIR_16rhizo_crypt_core6merkleNtB2_10MerkleRoot3new
FNDA:0,_RNvMNtCsid3wTlZBOIR_16rhizo_crypt_core6merkleNtB2_10MerkleRoot6to_hex
FNDA:1031,_RNvMNtCsid3wTlZBOIR_16rhizo_crypt_core6merkleNtB2_10MerkleRoot7compute
FNDA:260,_RNvMNtCsid3wTlZBOIR_16rhizo_crypt_core6merkleNtB2_10MerkleRoot8as_bytes
FNDA:258,_RNvMs1_NtCsid3wTlZBOIR_16rhizo_crypt_core6merkleNtB5_11MerkleProof6verify
FNDA:258,_RNvMs1_NtCsid3wTlZBOIR_16rhizo_crypt_core6merkleNtB5_11MerkleProof8generate
FNDA:2637,_RNvMs2_NtCsid3wTlZBOIR_16rhizo_crypt_core6merkleNtB5_17MerkleTreeBuilder10add_vertex
FNDA:514,_RNvMs2_NtCsid3wTlZBOIR_16rhizo_crypt_core6merkleNtB5_17MerkleTreeBuilder12compute_root
FNDA:257,_RNvMs2_NtCsid3wTlZBOIR_16rhizo_crypt_core6merkleNtB5_17MerkleTreeBuilder14generate_proof
FNDA:0,_RNvMs2_NtCsid3wTlZBOIR_16rhizo_crypt_core6merkleNtB5_17MerkleTreeBuilder3len
FNDA:514,_RNvMs2_NtCsid3wTlZBOIR_16rhizo_crypt_core6merkleNtB5_17MerkleTreeBuilder3new
FNDA:0,_RNvMs2_NtCsid3wTlZBOIR_16rhizo_crypt_core6merkleNtB5_17MerkleTreeBuilder8is_empty
FNDA:0,_RNvXs0_NtCsid3wTlZBOIR_16rhizo_crypt_core6merkleNtB5_10MerkleRootNtNtCs9sjCchOt1K7_4core3fmt7Display3fmt
FNDA:0,_RNvXs_NtCsid3wTlZBOIR_16rhizo_crypt_core6merkleNtB4_10MerkleRootNtNtCs9sjCchOt1K7_4core3fmt5Debug3fmt
FNDA:32,_RNCNvMNtCs7YQQ0vypdx3_16rhizo_crypt_core6merkleNtB4_10MerkleRoot6to_hex0B6_
FNDA:42,_RNCNvMNtCs7YQQ0vypdx3_16rhizo_crypt_core6merkleNtB4_10MerkleRoot7compute0B6_
FNDA:31,_RNCNvMNtCs7YQQ0vypdx3_16rhizo_crypt_core6merkleNtB4_10MerkleRoot7computes_0B6_
FNDA:28,_RNCNvMs1_NtCs7YQQ0vypdx3_16rhizo_crypt_core6merkleNtB7_11MerkleProof8generate0B9_
FNDA:22,_RNCNvMs1_NtCs7YQQ0vypdx3_16rhizo_crypt_core6merkleNtB7_11MerkleProof8generates_0B9_
FNDA:0,_RINvMs2_NtCs7YQQ0vypdx3_16rhizo_crypt_core6merkleNtB6_17MerkleTreeBuilder12add_verticespEB8_
FNDA:0,_RNvMNtCs7YQQ0vypdx3_16rhizo_crypt_core6merkleNtB2_10MerkleRoot8as_bytes
FNDA:0,_RNvXs0_NtCs7YQQ0vypdx3_16rhizo_crypt_core6merkleNtB5_10MerkleRootNtNtCs9sjCchOt1K7_4core3fmt7Display3fmt
FNDA:30,_RNvNtNtCs7YQQ0vypdx3_16rhizo_crypt_core6merkle5tests11make_vertex
FNDA:1,_RNvNtNtCs7YQQ0vypdx3_16rhizo_crypt_core6merkle5testss_20test_merkle_root_hex
FNDA:1,_RNvNtNtCs7YQQ0vypdx3_16rhizo_crypt_core6merkle5testss_22test_merkle_root_empty
FNDA:1,_RNvNtNtCs7YQQ0vypdx3_16rhizo_crypt_core6merkle5testss_23test_merkle_root_single
FNDA:1,_RNvNtNtCs7YQQ0vypdx3_16rhizo_crypt_core6merkle5testss_24test_merkle_tree_builder
FNDA:1,_RNvNtNtCs7YQQ0vypdx3_16rhizo_crypt_core6merkle5testss_30test_merkle_proof_wrong_vertex
FNDA:1,_RNvNtNtCs7YQQ0vypdx3_16rhizo_crypt_core6merkle5testss_30test_merkle_root_deterministic
FNDA:1,_RNvNtNtCs7YQQ0vypdx3_16rhizo_crypt_core6merkle5testss_30test_merkle_root_order_matters
FNDA:1,_RNvNtNtCs7YQQ0vypdx3_16rhizo_crypt_core6merkle5testss_34test_merkle_proof_invalid_position
FNDA:1,_RNvNtNtCs7YQQ0vypdx3_16rhizo_crypt_core6merkle5testss_37test_merkle_proof_generate_and_verify
FNDA:4,_RNvMNtCs7YQQ0vypdx3_16rhizo_crypt_core6merkleNtB2_10MerkleRoot3new
FNDA:1,_RNvMNtCs7YQQ0vypdx3_16rhizo_crypt_core6merkleNtB2_10MerkleRoot6to_hex
FNDA:12,_RNvMNtCs7YQQ0vypdx3_16rhizo_crypt_core6merkleNtB2_10MerkleRoot7compute
FNDA:6,_RNvMs1_NtCs7YQQ0vypdx3_16rhizo_crypt_core6merkleNtB5_11MerkleProof6verify
FNDA:7,_RNvMs1_NtCs7YQQ0vypdx3_16rhizo_crypt_core6merkleNtB5_11MerkleProof8generate
FNDA:8,_RNvMs2_NtCs7YQQ0vypdx3_16rhizo_crypt_core6merkleNtB5_17MerkleTreeBuilder10add_vertex
FNDA:2,_RNvMs2_NtCs7YQQ0vypdx3_16rhizo_crypt_core6merkleNtB5_17MerkleTreeBuilder12compute_root
FNDA:1,_RNvMs2_NtCs7YQQ0vypdx3_16rhizo_crypt_core6merkleNtB5_17MerkleTreeBuilder14generate_proof
FNDA:1,_RNvMs2_NtCs7YQQ0vypdx3_16rhizo_crypt_core6merkleNtB5_17MerkleTreeBuilder3len
FNDA:1,_RNvMs2_NtCs7YQQ0vypdx3_16rhizo_crypt_core6merkleNtB5_17MerkleTreeBuilder3new
FNDA:1,_RNvMs2_NtCs7YQQ0vypdx3_16rhizo_crypt_core6merkleNtB5_17MerkleTreeBuilder8is_empty
FNDA:0,_RNvXs_NtCs7YQQ0vypdx3_16rhizo_crypt_core6merkleNtB4_10MerkleRootNtNtCs9sjCchOt1K7_4core3fmt5Debug3fmt
FNF:30
FNH:28
DA:20,4
DA:21,4
DA:22,4
DA:28,1043
DA:29,1043
DA:30,1
DA:31,1042
DA:32,1042
DA:33,1042
DA:34,1042
DA:35,6702
DA:36,1042
DA:37,1042
DA:38,1042
DA:39,3448
DA:40,2406
DA:41,2406
DA:44,3813
DA:45,8066
DA:46,2771
DA:48,1042
DA:49,1043
DA:53,260
DA:54,260
DA:55,260
DA:59,1
DA:61,32
DA:62,32
DA:63,32
DA:64,32
DA:65,1
DA:69,0
DA:70,0
DA:71,0
DA:75,0
DA:76,0
DA:77,0
DA:113,264
DA:114,264
DA:115,264
DA:116,1
DA:117,263
DA:118,263
DA:119,263
DA:121,893
DA:122,630
DA:123,229
DA:124,401
DA:128,263
DA:129,264
DA:136,265
DA:137,265
DA:138,1
DA:139,1
DA:140,1
DA:141,1
DA:142,264
DA:143,264
DA:144,264
DA:145,264
DA:146,264
DA:147,264
DA:148,264
DA:149,1347
DA:150,264
DA:151,264
DA:152,264
DA:153,264
DA:154,264
DA:155,686
DA:156,422
DA:157,422
DA:160,264
DA:161,264
DA:163,896
DA:164,632
DA:165,403
DA:167,229
DA:169,632
DA:170,403
DA:172,229
DA:175,632
DA:176,632
DA:177,632
DA:178,1505
DA:179,632
DA:180,632
DA:181,632
DA:183,264
DA:184,264
DA:185,264
DA:186,264
DA:187,264
DA:188,264
DA:189,264
DA:190,265
DA:202,515
DA:203,515
DA:204,515
DA:207,2645
DA:208,2645
DA:209,2645
DA:212,257
DA:213,257
DA:214,257
DA:218,516
DA:219,516
DA:220,516
DA:227,258
DA:228,258
DA:229,258
DA:230,258
DA:234,1
DA:235,1
DA:236,1
DA:240,1
DA:241,1
DA:242,1
DA:253,30
DA:254,30
DA:255,30
DA:256,30
DA:257,30
DA:258,30
DA:259,30
DA:262,1
DA:263,1
DA:264,1
DA:265,1
DA:268,1
DA:269,1
DA:270,1
DA:271,1
DA:272,1
DA:275,1
DA:276,1
DA:277,1
DA:278,1
DA:279,1
DA:280,1
DA:283,1
DA:284,1
DA:285,1
DA:286,1
DA:287,1
DA:288,1
DA:289,1
DA:290,1
DA:291,1
DA:294,1
DA:295,1
DA:296,1
DA:298,4
DA:299,4
DA:300,4
DA:301,4
DA:302,4
DA:304,1
DA:307,1
DA:308,1
DA:309,1
DA:310,1
DA:311,1
DA:312,1
DA:313,1
DA:316,1
DA:317,1
DA:318,1
DA:319,1
DA:320,1
DA:321,1
DA:322,1
DA:323,1
DA:324,1
DA:325,1
DA:328,1
DA:329,1
DA:330,1
DA:332,9
DA:333,8
DA:334,8
DA:336,1
DA:338,1
DA:339,1
DA:341,1
DA:342,1
DA:343,1
DA:346,1
DA:347,1
DA:348,1
DA:349,1
DA:350,1
DA:351,1
BRF:0
BRH:0
LF:199
LH:190
end_of_record
SF:/home/strandgate/Development/ecoPrimals/phase2/rhizoCrypt/crates/rhizo-crypt-core/src/primal.rs
FN:29,_RNvMNtCsid3wTlZBOIR_16rhizo_crypt_core6primalNtB2_11PrimalState10is_running
FN:35,_RNvMNtCsid3wTlZBOIR_16rhizo_crypt_core6primalNtB2_11PrimalState11is_terminal
FN:118,_RNvMs0_NtCsid3wTlZBOIR_16rhizo_crypt_core6primalNtB5_12HealthStatus10is_healthy
FN:150,_RNvMs1_NtCsid3wTlZBOIR_16rhizo_crypt_core6primalNtB5_12HealthReport11with_status
FN:157,_RNvMs1_NtCsid3wTlZBOIR_16rhizo_crypt_core6primalNtB5_12HealthReport11with_uptime
FN:41,_RNvXs_NtCsid3wTlZBOIR_16rhizo_crypt_core6primalNtB4_11PrimalStateNtNtCs9sjCchOt1K7_4core3fmt7Display3fmt
FN:139,_RINvMs1_NtCsid3wTlZBOIR_16rhizo_crypt_core6primalNtB6_12HealthReport3newppEB8_
FN:29,_RNvMNtCs7YQQ0vypdx3_16rhizo_crypt_core6primalNtB2_11PrimalState10is_running
FN:35,_RNvMNtCs7YQQ0vypdx3_16rhizo_crypt_core6primalNtB2_11PrimalState11is_terminal
FN:118,_RNvMs0_NtCs7YQQ0vypdx3_16rhizo_crypt_core6primalNtB5_12HealthStatus10is_healthy
FN:150,_RNvMs1_NtCs7YQQ0vypdx3_16rhizo_crypt_core6primalNtB5_12HealthReport11with_status
FN:157,_RNvMs1_NtCs7YQQ0vypdx3_16rhizo_crypt_core6primalNtB5_12HealthReport11with_uptime
FN:41,_RNvXs_NtCs7YQQ0vypdx3_16rhizo_crypt_core6primalNtB4_11PrimalStateNtNtCs9sjCchOt1K7_4core3fmt7Display3fmt
FN:202,_RNvNtNtCs7YQQ0vypdx3_16rhizo_crypt_core6primal5testss_18test_health_status
FN:184,_RNvNtNtCs7YQQ0vypdx3_16rhizo_crypt_core6primal5testss_25test_primal_state_display
FN:215,_RNvNtNtCs7YQQ0vypdx3_16rhizo_crypt_core6primal5testss_26test_health_report_builder
FN:191,_RNvNtNtCs7YQQ0vypdx3_16rhizo_crypt_core6primal5testss_28test_primal_state_predicates
FN:139,_RINvMs1_NtCs7YQQ0vypdx3_16rhizo_crypt_core6primalNtB6_12HealthReport3newRNtNtCs6bBekJvxEMJ_5alloc6string6StringReEB8_
FN:139,_RINvMs1_NtCs7YQQ0vypdx3_16rhizo_crypt_core6primalNtB6_12HealthReport3newReB18_EB8_
FNDA:1097,_RNvMNtCsid3wTlZBOIR_16rhizo_crypt_core6primalNtB2_11PrimalState10is_running
FNDA:0,_RNvMNtCsid3wTlZBOIR_16rhizo_crypt_core6primalNtB2_11PrimalState11is_terminal
FNDA:0,_RNvMs0_NtCsid3wTlZBOIR_16rhizo_crypt_core6primalNtB5_12HealthStatus10is_healthy
FNDA:0,_RNvMs1_NtCsid3wTlZBOIR_16rhizo_crypt_core6primalNtB5_12HealthReport11with_status
FNDA:0,_RNvMs1_NtCsid3wTlZBOIR_16rhizo_crypt_core6primalNtB5_12HealthReport11with_uptime
FNDA:2,_RNvXs_NtCsid3wTlZBOIR_16rhizo_crypt_core6primalNtB4_11PrimalStateNtNtCs9sjCchOt1K7_4core3fmt7Display3fmt
FNDA:0,_RINvMs1_NtCsid3wTlZBOIR_16rhizo_crypt_core6primalNtB6_12HealthReport3newppEB8_
FNDA:4,_RNvMNtCs7YQQ0vypdx3_16rhizo_crypt_core6primalNtB2_11PrimalState10is_running
FNDA:3,_RNvMNtCs7YQQ0vypdx3_16rhizo_crypt_core6primalNtB2_11PrimalState11is_terminal
FNDA:5,_RNvMs0_NtCs7YQQ0vypdx3_16rhizo_crypt_core6primalNtB5_12HealthStatus10is_healthy
FNDA:2,_RNvMs1_NtCs7YQQ0vypdx3_16rhizo_crypt_core6primalNtB5_12HealthReport11with_status
FNDA:2,_RNvMs1_NtCs7YQQ0vypdx3_16rhizo_crypt_core6primalNtB5_12HealthReport11with_uptime
FNDA:3,_RNvXs_NtCs7YQQ0vypdx3_16rhizo_crypt_core6primalNtB4_11PrimalStateNtNtCs9sjCchOt1K7_4core3fmt7Display3fmt
FNDA:1,_RNvNtNtCs7YQQ0vypdx3_16rhizo_crypt_core6primal5testss_18test_health_status
FNDA:1,_RNvNtNtCs7YQQ0vypdx3_16rhizo_crypt_core6primal5testss_25test_primal_state_display
FNDA:1,_RNvNtNtCs7YQQ0vypdx3_16rhizo_crypt_core6primal5testss_26test_health_report_builder
FNDA:1,_RNvNtNtCs7YQQ0vypdx3_16rhizo_crypt_core6primal5testss_28test_primal_state_predicates
FNDA:1,_RINvMs1_NtCs7YQQ0vypdx3_16rhizo_crypt_core6primalNtB6_12HealthReport3newRNtNtCs6bBekJvxEMJ_5alloc6string6StringReEB8_
FNDA:1,_RINvMs1_NtCs7YQQ0vypdx3_16rhizo_crypt_core6primalNtB6_12HealthReport3newReB18_EB8_
FNF:11
FNH:11
DA:29,1101
DA:30,1101
DA:31,1101
DA:35,3
DA:36,3
DA:37,3
DA:41,5
DA:42,5
DA:43,1
DA:44,0
DA:45,3
DA:46,0
DA:47,1
DA:48,0
DA:50,5
DA:118,5
DA:119,5
DA:120,5
DA:139,2
DA:140,2
DA:141,2
DA:142,2
DA:143,2
DA:144,2
DA:145,2
DA:146,2
DA:150,2
DA:151,2
DA:152,2
DA:153,2
DA:157,2
DA:158,2
DA:159,2
DA:160,2
DA:184,1
DA:185,1
DA:186,1
DA:187,1
DA:188,1
DA:191,1
DA:192,1
DA:193,1
DA:194,1
DA:196,1
DA:197,1
DA:198,1
DA:199,1
DA:202,1
DA:203,1
DA:204,1
DA:205,1
DA:206,1
DA:207,1
DA:208,1
DA:209,1
DA:210,1
DA:211,1
DA:212,1
DA:215,1
DA:216,1
DA:217,1
DA:218,1
DA:219,1
DA:220,1
DA:221,1
DA:222,1
DA:223,1
DA:224,1
BRF:0
BRH:0
LF:68
LH:65
end_of_record
SF:/home/strandgate/Development/ecoPrimals/phase2/rhizoCrypt/crates/rhizo-crypt-core/src/session.rs
FN:370,_RINvMs2_NtCsid3wTlZBOIR_16rhizo_crypt_core7sessionNtB6_14SessionBuilder9with_nameNtNtCs6bBekJvxEMJ_5alloc6string6StringECsdcY13n2UsKC_11chaos_tests
FN:370,_RINvMs2_NtCsid3wTlZBOIR_16rhizo_crypt_core7sessionNtB6_14SessionBuilder9with_nameReECsdcY13n2UsKC_11chaos_tests
FN:56,_RNvMNtCsid3wTlZBOIR_16rhizo_crypt_core7sessionNtB2_7Session11is_terminal
FN:91,_RNvMNtCsid3wTlZBOIR_16rhizo_crypt_core7sessionNtB2_7Session13begin_resolve
FN:61,_RNvMNtCsid3wTlZBOIR_16rhizo_crypt_core7sessionNtB2_7Session15update_frontier
FN:108,_RNvMNtCsid3wTlZBOIR_16rhizo_crypt_core7sessionNtB2_7Session6commit
FN:123,_RNvMNtCsid3wTlZBOIR_16rhizo_crypt_core7sessionNtB2_7Session7discard
FN:77,_RNvMNtCsid3wTlZBOIR_16rhizo_crypt_core7sessionNtB2_7Session9add_agent
FN:82,_RNvMNtCsid3wTlZBOIR_16rhizo_crypt_core7sessionNtB2_7Session9add_slice
FN:50,_RNvMNtCsid3wTlZBOIR_16rhizo_crypt_core7sessionNtB2_7Session9is_active
FN:377,_RNvMs2_NtCsid3wTlZBOIR_16rhizo_crypt_core7sessionNtB5_14SessionBuilder10with_owner
FN:384,_RNvMs2_NtCsid3wTlZBOIR_16rhizo_crypt_core7sessionNtB5_14SessionBuilder17with_max_duration
FN:391,_RNvMs2_NtCsid3wTlZBOIR_16rhizo_crypt_core7sessionNtB5_14SessionBuilder17with_max_vertices
FN:405,_RNvMs2_NtCsid3wTlZBOIR_16rhizo_crypt_core7sessionNtB5_14SessionBuilder19with_auto_dehydrate
FN:398,_RNvMs2_NtCsid3wTlZBOIR_16rhizo_crypt_core7sessionNtB5_14SessionBuilder22require_all_signatures
FN:360,_RNvMs2_NtCsid3wTlZBOIR_16rhizo_crypt_core7sessionNtB5_14SessionBuilder3new
FN:412,_RNvMs2_NtCsid3wTlZBOIR_16rhizo_crypt_core7sessionNtB5_14SessionBuilder5build
FN:181,_RNvMs_NtCsid3wTlZBOIR_16rhizo_crypt_core7sessionNtB4_12SessionState11is_terminal
FN:187,_RNvMs_NtCsid3wTlZBOIR_16rhizo_crypt_core7sessionNtB4_12SessionState4name
FN:175,_RNvMs_NtCsid3wTlZBOIR_16rhizo_crypt_core7sessionNtB4_12SessionState9is_active
FN:301,_RNvXs0_NtCsid3wTlZBOIR_16rhizo_crypt_core7sessionNtB5_11SessionTypeNtNtCs9sjCchOt1K7_4core7default7Default7default
FN:335,_RNvXs1_NtCsid3wTlZBOIR_16rhizo_crypt_core7sessionNtB5_13SessionConfigNtNtCs9sjCchOt1K7_4core7default7Default7default
FN:370,_RINvMs2_NtCsid3wTlZBOIR_16rhizo_crypt_core7sessionNtB6_14SessionBuilder9with_namepEB8_
FN:370,_RINvMs2_NtCsid3wTlZBOIR_16rhizo_crypt_core7sessionNtB6_14SessionBuilder9with_nameNtNtCs6bBekJvxEMJ_5alloc6string6StringECsPnv9z7ECKg_9e2e_tests
FN:370,_RINvMs2_NtCsid3wTlZBOIR_16rhizo_crypt_core7sessionNtB6_14SessionBuilder9with_nameReECsPnv9z7ECKg_9e2e_tests
FN:370,_RINvMs2_NtCsid3wTlZBOIR_16rhizo_crypt_core7sessionNtB6_14SessionBuilder9with_nameRNtNtCs6bBekJvxEMJ_5alloc6string6StringECs6Xsx8PfdSt5_14property_tests
FN:77,_RNvMNtCs7YQQ0vypdx3_16rhizo_crypt_core7sessionNtB2_7Session9add_agent
FN:82,_RNvMNtCs7YQQ0vypdx3_16rhizo_crypt_core7sessionNtB2_7Session9add_slice
FN:384,_RNvMs2_NtCs7YQQ0vypdx3_16rhizo_crypt_core7sessionNtB5_14SessionBuilder17with_max_duration
FN:405,_RNvMs2_NtCs7YQQ0vypdx3_16rhizo_crypt_core7sessionNtB5_14SessionBuilder19with_auto_dehydrate
FN:398,_RNvMs2_NtCs7YQQ0vypdx3_16rhizo_crypt_core7sessionNtB5_14SessionBuilder22require_all_signatures
FN:56,_RNvMNtCs7YQQ0vypdx3_16rhizo_crypt_core7sessionNtB2_7Session11is_terminal
FN:91,_RNvMNtCs7YQQ0vypdx3_16rhizo_crypt_core7sessionNtB2_7Session13begin_resolve
FN:61,_RNvMNtCs7YQQ0vypdx3_16rhizo_crypt_core7sessionNtB2_7Session15update_frontier
FN:108,_RNvMNtCs7YQQ0vypdx3_16rhizo_crypt_core7sessionNtB2_7Session6commit
FN:123,_RNvMNtCs7YQQ0vypdx3_16rhizo_crypt_core7sessionNtB2_7Session7discard
FN:50,_RNvMNtCs7YQQ0vypdx3_16rhizo_crypt_core7sessionNtB2_7Session9is_active
FN:377,_RNvMs2_NtCs7YQQ0vypdx3_16rhizo_crypt_core7sessionNtB5_14SessionBuilder10with_owner
FN:391,_RNvMs2_NtCs7YQQ0vypdx3_16rhizo_crypt_core7sessionNtB5_14SessionBuilder17with_max_vertices
FN:360,_RNvMs2_NtCs7YQQ0vypdx3_16rhizo_crypt_core7sessionNtB5_14SessionBuilder3new
FN:412,_RNvMs2_NtCs7YQQ0vypdx3_16rhizo_crypt_core7sessionNtB5_14SessionBuilder5build
FN:181,_RNvMs_NtCs7YQQ0vypdx3_16rhizo_crypt_core7sessionNtB4_12SessionState11is_terminal
FN:187,_RNvMs_NtCs7YQQ0vypdx3_16rhizo_crypt_core7sessionNtB4_12SessionState4name
FN:175,_RNvMs_NtCs7YQQ0vypdx3_16rhizo_crypt_core7sessionNtB4_12SessionState9is_active
FN:301,_RNvXs0_NtCs7YQQ0vypdx3_16rhizo_crypt_core7sessionNtB5_11SessionTypeNtNtCs9sjCchOt1K7_4core7default7Default7default
FN:335,_RNvXs1_NtCs7YQQ0vypdx3_16rhizo_crypt_core7sessionNtB5_13SessionConfigNtNtCs9sjCchOt1K7_4core7default7Default7default
FN:435,_RNvNtNtCs7YQQ0vypdx3_16rhizo_crypt_core7session5testss_20test_session_builder
FN:470,_RNvNtNtCs7YQQ0vypdx3_16rhizo_crypt_core7session5testss_20test_session_discard
FN:496,_RNvNtNtCs7YQQ0vypdx3_16rhizo_crypt_core7session5testss_25test_session_type_default
FN:479,_RNvNtNtCs7YQQ0vypdx3_16rhizo_crypt_core7session5testss_28test_session_frontier_update
FN:449,_RNvNtNtCs7YQQ0vypdx3_16rhizo_crypt_core7session5testss_30test_session_state_transitions
FN:370,_RINvMs2_NtCs7YQQ0vypdx3_16rhizo_crypt_core7sessionNtB6_14SessionBuilder9with_nameReEB8_
FN:370,_RINvMs2_NtCsid3wTlZBOIR_16rhizo_crypt_core7sessionNtB6_14SessionBuilder9with_nameNtNtCs6bBekJvxEMJ_5alloc6string6StringECscGNtvOf38BJ_15rpc_integration
FNDA:15,_RINvMs2_NtCsid3wTlZBOIR_16rhizo_crypt_core7sessionNtB6_14SessionBuilder9with_nameNtNtCs6bBekJvxEMJ_5alloc6string6StringECsdcY13n2UsKC_11chaos_tests
FNDA:1,_RINvMs2_NtCsid3wTlZBOIR_16rhizo_crypt_core7sessionNtB6_14SessionBuilder9with_nameReECsdcY13n2UsKC_11chaos_tests
FNDA:0,_RNvMNtCsid3wTlZBOIR_16rhizo_crypt_core7sessionNtB2_7Session11is_terminal
FNDA:0,_RNvMNtCsid3wTlZBOIR_16rhizo_crypt_core7sessionNtB2_7Session13begin_resolve
FNDA:1047,_RNvMNtCsid3wTlZBOIR_16rhizo_crypt_core7sessionNtB2_7Session15update_frontier
FNDA:0,_RNvMNtCsid3wTlZBOIR_16rhizo_crypt_core7sessionNtB2_7Session6commit
FNDA:0,_RNvMNtCsid3wTlZBOIR_16rhizo_crypt_core7sessionNtB2_7Session7discard
FNDA:0,_RNvMNtCsid3wTlZBOIR_16rhizo_crypt_core7sessionNtB2_7Session9add_agent
FNDA:0,_RNvMNtCsid3wTlZBOIR_16rhizo_crypt_core7sessionNtB2_7Session9add_slice
FNDA:1047,_RNvMNtCsid3wTlZBOIR_16rhizo_crypt_core7sessionNtB2_7Session9is_active
FNDA:0,_RNvMs2_NtCsid3wTlZBOIR_16rhizo_crypt_core7sessionNtB5_14SessionBuilder10with_owner
FNDA:0,_RNvMs2_NtCsid3wTlZBOIR_16rhizo_crypt_core7sessionNtB5_14SessionBuilder17with_max_duration
FNDA:258,_RNvMs2_NtCsid3wTlZBOIR_16rhizo_crypt_core7sessionNtB5_14SessionBuilder17with_max_vertices
FNDA:0,_RNvMs2_NtCsid3wTlZBOIR_16rhizo_crypt_core7sessionNtB5_14SessionBuilder19with_auto_dehydrate
FNDA:0,_RNvMs2_NtCsid3wTlZBOIR_16rhizo_crypt_core7sessionNtB5_14SessionBuilder22require_all_signatures
FNDA:816,_RNvMs2_NtCsid3wTlZBOIR_16rhizo_crypt_core7sessionNtB5_14SessionBuilder3new
FNDA:816,_RNvMs2_NtCsid3wTlZBOIR_16rhizo_crypt_core7sessionNtB5_14SessionBuilder5build
FNDA:0,_RNvMs_NtCsid3wTlZBOIR_16rhizo_crypt_core7sessionNtB4_12SessionState11is_terminal
FNDA:0,_RNvMs_NtCsid3wTlZBOIR_16rhizo_crypt_core7sessionNtB4_12SessionState4name
FNDA:1047,_RNvMs_NtCsid3wTlZBOIR_16rhizo_crypt_core7sessionNtB4_12SessionState9is_active
FNDA:1,_RNvXs0_NtCsid3wTlZBOIR_16rhizo_crypt_core7sessionNtB5_11SessionTypeNtNtCs9sjCchOt1K7_4core7default7Default7default
FNDA:845,_RNvXs1_NtCsid3wTlZBOIR_16rhizo_crypt_core7sessionNtB5_13SessionConfigNtNtCs9sjCchOt1K7_4core7default7Default7default
FNDA:0,_RINvMs2_NtCsid3wTlZBOIR_16rhizo_crypt_core7sessionNtB6_14SessionBuilder9with_namepEB8_
FNDA:7,_RINvMs2_NtCsid3wTlZBOIR_16rhizo_crypt_core7sessionNtB6_14SessionBuilder9with_nameNtNtCs6bBekJvxEMJ_5alloc6string6StringECsPnv9z7ECKg_9e2e_tests
FNDA:2,_RINvMs2_NtCsid3wTlZBOIR_16rhizo_crypt_core7sessionNtB6_14SessionBuilder9with_nameReECsPnv9z7ECKg_9e2e_tests
FNDA:257,_RINvMs2_NtCsid3wTlZBOIR_16rhizo_crypt_core7sessionNtB6_14SessionBuilder9with_nameRNtNtCs6bBekJvxEMJ_5alloc6string6StringECs6Xsx8PfdSt5_14property_tests
FNDA:0,_RNvMNtCs7YQQ0vypdx3_16rhizo_crypt_core7sessionNtB2_7Session9add_agent
FNDA:0,_RNvMNtCs7YQQ0vypdx3_16rhizo_crypt_core7sessionNtB2_7Session9add_slice
FNDA:0,_RNvMs2_NtCs7YQQ0vypdx3_16rhizo_crypt_core7sessionNtB5_14SessionBuilder17with_max_duration
FNDA:0,_RNvMs2_NtCs7YQQ0vypdx3_16rhizo_crypt_core7sessionNtB5_14SessionBuilder19with_auto_dehydrate
FNDA:0,_RNvMs2_NtCs7YQQ0vypdx3_16rhizo_crypt_core7sessionNtB5_14SessionBuilder22require_all_signatures
FNDA:3,_RNvMNtCs7YQQ0vypdx3_16rhizo_crypt_core7sessionNtB2_7Session11is_terminal
FNDA:1,_RNvMNtCs7YQQ0vypdx3_16rhizo_crypt_core7sessionNtB2_7Session13begin_resolve
FNDA:2,_RNvMNtCs7YQQ0vypdx3_16rhizo_crypt_core7sessionNtB2_7Session15update_frontier
FNDA:1,_RNvMNtCs7YQQ0vypdx3_16rhizo_crypt_core7sessionNtB2_7Session6commit
FNDA:1,_RNvMNtCs7YQQ0vypdx3_16rhizo_crypt_core7sessionNtB2_7Session7discard
FNDA:4,_RNvMNtCs7YQQ0vypdx3_16rhizo_crypt_core7sessionNtB2_7Session9is_active
FNDA:1,_RNvMs2_NtCs7YQQ0vypdx3_16rhizo_crypt_core7sessionNtB5_14SessionBuilder10with_owner
FNDA:1,_RNvMs2_NtCs7YQQ0vypdx3_16rhizo_crypt_core7sessionNtB5_14SessionBuilder17with_max_vertices
FNDA:4,_RNvMs2_NtCs7YQQ0vypdx3_16rhizo_crypt_core7sessionNtB5_14SessionBuilder3new
FNDA:4,_RNvMs2_NtCs7YQQ0vypdx3_16rhizo_crypt_core7sessionNtB5_14SessionBuilder5build
FNDA:3,_RNvMs_NtCs7YQQ0vypdx3_16rhizo_crypt_core7sessionNtB4_12SessionState11is_terminal
FNDA:0,_RNvMs_NtCs7YQQ0vypdx3_16rhizo_crypt_core7sessionNtB4_12SessionState4name
FNDA:4,_RNvMs_NtCs7YQQ0vypdx3_16rhizo_crypt_core7sessionNtB4_12SessionState9is_active
FNDA:1,_RNvXs0_NtCs7YQQ0vypdx3_16rhizo_crypt_core7sessionNtB5_11SessionTypeNtNtCs9sjCchOt1K7_4core7default7Default7default
FNDA:10,_RNvXs1_NtCs7YQQ0vypdx3_16rhizo_crypt_core7sessionNtB5_13SessionConfigNtNtCs9sjCchOt1K7_4core7default7Default7default
FNDA:1,_RNvNtNtCs7YQQ0vypdx3_16rhizo_crypt_core7session5testss_20test_session_builder
FNDA:1,_RNvNtNtCs7YQQ0vypdx3_16rhizo_crypt_core7session5testss_20test_session_discard
FNDA:1,_RNvNtNtCs7YQQ0vypdx3_16rhizo_crypt_core7session5testss_25test_session_type_default
FNDA:1,_RNvNtNtCs7YQQ0vypdx3_16rhizo_crypt_core7session5testss_28test_session_frontier_update
FNDA:1,_RNvNtNtCs7YQQ0vypdx3_16rhizo_crypt_core7session5testss_30test_session_state_transitions
FNDA:1,_RINvMs2_NtCs7YQQ0vypdx3_16rhizo_crypt_core7sessionNtB6_14SessionBuilder9with_nameReEB8_
FNDA:2,_RINvMs2_NtCsid3wTlZBOIR_16rhizo_crypt_core7sessionNtB6_14SessionBuilder9with_nameNtNtCs6bBekJvxEMJ_5alloc6string6StringECscGNtvOf38BJ_15rpc_integration
FNF:26
FNH:20
DA:50,1051
DA:51,1051
DA:52,1051
DA:56,3
DA:57,3
DA:58,3
DA:61,1049
DA:63,1061
DA:64,12
DA:65,12
DA:67,1049
DA:68,1049
DA:69,1049
DA:70,1049
DA:71,1049
DA:72,1038
DA:73,1038
DA:74,1049
DA:77,0
DA:78,0
DA:79,0
DA:82,0
DA:83,0
DA:84,0
DA:91,1
DA:92,1
DA:93,0
DA:94,0
DA:95,0
DA:96,1
DA:97,1
DA:98,1
DA:99,1
DA:100,1
DA:101,1
DA:108,1
DA:109,1
DA:110,0
DA:111,0
DA:112,0
DA:113,0
DA:114,1
DA:115,1
DA:116,1
DA:117,1
DA:118,1
DA:119,1
DA:120,1
DA:123,1
DA:124,1
DA:125,1
DA:126,1
DA:127,1
DA:128,1
DA:175,1051
DA:176,1051
DA:177,1051
DA:181,3
DA:182,3
DA:183,3
DA:187,0
DA:188,0
DA:189,0
DA:192,0
DA:195,0
DA:198,0
DA:201,0
DA:204,0
DA:206,0
DA:301,2
DA:302,2
DA:303,2
DA:335,855
DA:336,855
DA:337,855
DA:338,855
DA:339,855
DA:340,855
DA:341,855
DA:342,855
DA:343,855
DA:344,855
DA:345,855
DA:346,855
DA:360,820
DA:361,820
DA:362,820
DA:363,820
DA:364,820
DA:365,820
DA:366,820
DA:370,285
DA:371,285
DA:372,285
DA:373,285
DA:377,1
DA:378,1
DA:379,1
DA:380,1
DA:384,0
DA:385,0
DA:386,0
DA:387,0
DA:391,259
DA:392,259
DA:393,259
DA:394,259
DA:398,0
DA:399,0
DA:400,0
DA:401,0
DA:405,0
DA:406,0
DA:407,0
DA:408,0
DA:412,820
DA:413,820
DA:414,820
DA:415,820
DA:416,820
DA:417,820
DA:418,820
DA:419,820
DA:420,820
DA:421,820
DA:422,820
DA:423,820
DA:424,820
DA:425,820
DA:426,820
DA:435,1
DA:436,1
DA:437,1
DA:438,1
DA:439,1
DA:440,1
DA:441,1
DA:442,1
DA:443,1
DA:444,1
DA:445,1
DA:446,1
DA:449,1
DA:450,1
DA:451,1
DA:452,1
DA:455,1
DA:456,1
DA:457,1
DA:460,1
DA:461,1
DA:462,1
DA:463,1
DA:464,1
DA:465,1
DA:466,1
DA:467,1
DA:470,1
DA:471,1
DA:472,1
DA:473,1
DA:474,1
DA:475,1
DA:476,1
DA:479,1
DA:480,1
DA:481,1
DA:482,1
DA:483,1
DA:484,1
DA:485,1
DA:486,1
DA:488,1
DA:489,1
DA:490,1
DA:491,1
DA:492,1
DA:493,1
DA:496,1
DA:497,1
DA:498,1
BRF:0
BRH:0
LF:181
LH:147
end_of_record
SF:/home/strandgate/Development/ecoPrimals/phase2/rhizoCrypt/crates/rhizo-crypt-core/src/slice.rs
FN:56,_RNCNvMNtCsid3wTlZBOIR_16rhizo_crypt_core5sliceNtB4_5Slice10is_expired0B6_
FN:73,_RNvMNtCs7YQQ0vypdx3_16rhizo_crypt_core5sliceNtB2_5Slice11can_reslice
FN:431,_RNvMs1_NtCs7YQQ0vypdx3_16rhizo_crypt_core5sliceNtB5_12SliceBuilder10expires_in
FN:423,_RNvMs1_NtCs7YQQ0vypdx3_16rhizo_crypt_core5sliceNtB5_12SliceBuilder15with_expires_at
FN:416,_RNvMs1_NtCs7YQQ0vypdx3_16rhizo_crypt_core5sliceNtB5_12SliceBuilder16with_constraints
FN:56,_RNCNvMNtCs7YQQ0vypdx3_16rhizo_crypt_core5sliceNtB4_5Slice10is_expired0B6_
FN:464,_RNvNtNtCs7YQQ0vypdx3_16rhizo_crypt_core5slice5tests11make_origin
FN:475,_RNvNtNtCs7YQQ0vypdx3_16rhizo_crypt_core5slice5testss_18test_slice_builder
FN:539,_RNvNtNtCs7YQQ0vypdx3_16rhizo_crypt_core5slice5testss_21test_resolution_route
FN:519,_RNvNtNtCs7YQQ0vypdx3_16rhizo_crypt_core5slice5testss_21test_slice_mode_names
FN:562,_RNvNtNtCs7YQQ0vypdx3_16rhizo_crypt_core5slice5testss_23test_loan_terms_default
FN:502,_RNvNtNtCs7YQQ0vypdx3_16rhizo_crypt_core5slice5testss_23test_slice_mode_lineage
FN:570,_RNvNtNtCs7YQQ0vypdx3_16rhizo_crypt_core5slice5testss_30test_slice_constraints_default
FN:54,_RNvMNtCs7YQQ0vypdx3_16rhizo_crypt_core5sliceNtB2_5Slice10is_expired
FN:67,_RNvMNtCs7YQQ0vypdx3_16rhizo_crypt_core5sliceNtB2_5Slice11is_resolved
FN:61,_RNvMNtCs7YQQ0vypdx3_16rhizo_crypt_core5sliceNtB2_5Slice9is_active
FN:409,_RNvMs1_NtCs7YQQ0vypdx3_16rhizo_crypt_core5sliceNtB5_12SliceBuilder21with_resolution_route
FN:388,_RNvMs1_NtCs7YQQ0vypdx3_16rhizo_crypt_core5sliceNtB5_12SliceBuilder3new
FN:440,_RNvMs1_NtCs7YQQ0vypdx3_16rhizo_crypt_core5sliceNtB5_12SliceBuilder5build
FN:160,_RNvMs_NtCs7YQQ0vypdx3_16rhizo_crypt_core5sliceNtB4_9SliceMode16can_lineage_back
FN:166,_RNvMs_NtCs7YQQ0vypdx3_16rhizo_crypt_core5sliceNtB4_9SliceMode4name
FN:204,_RNvXs0_NtCs7YQQ0vypdx3_16rhizo_crypt_core5sliceNtB5_9LoanTermsNtNtCs9sjCchOt1K7_4core7default7Default7default
FN:54,_RNvMNtCsid3wTlZBOIR_16rhizo_crypt_core5sliceNtB2_5Slice10is_expired
FN:73,_RNvMNtCsid3wTlZBOIR_16rhizo_crypt_core5sliceNtB2_5Slice11can_reslice
FN:67,_RNvMNtCsid3wTlZBOIR_16rhizo_crypt_core5sliceNtB2_5Slice11is_resolved
FN:61,_RNvMNtCsid3wTlZBOIR_16rhizo_crypt_core5sliceNtB2_5Slice9is_active
FN:431,_RNvMs1_NtCsid3wTlZBOIR_16rhizo_crypt_core5sliceNtB5_12SliceBuilder10expires_in
FN:423,_RNvMs1_NtCsid3wTlZBOIR_16rhizo_crypt_core5sliceNtB5_12SliceBuilder15with_expires_at
FN:416,_RNvMs1_NtCsid3wTlZBOIR_16rhizo_crypt_core5sliceNtB5_12SliceBuilder16with_constraints
FN:409,_RNvMs1_NtCsid3wTlZBOIR_16rhizo_crypt_core5sliceNtB5_12SliceBuilder21with_resolution_route
FN:388,_RNvMs1_NtCsid3wTlZBOIR_16rhizo_crypt_core5sliceNtB5_12SliceBuilder3new
FN:440,_RNvMs1_NtCsid3wTlZBOIR_16rhizo_crypt_core5sliceNtB5_12SliceBuilder5build
FN:160,_RNvMs_NtCsid3wTlZBOIR_16rhizo_crypt_core5sliceNtB4_9SliceMode16can_lineage_back
FN:166,_RNvMs_NtCsid3wTlZBOIR_16rhizo_crypt_core5sliceNtB4_9SliceMode4name
FN:204,_RNvXs0_NtCsid3wTlZBOIR_16rhizo_crypt_core5sliceNtB5_9LoanTermsNtNtCs9sjCchOt1K7_4core7default7Default7default
FNDA:0,_RNCNvMNtCsid3wTlZBOIR_16rhizo_crypt_core5sliceNtB4_5Slice10is_expired0B6_
FNDA:0,_RNvMNtCs7YQQ0vypdx3_16rhizo_crypt_core5sliceNtB2_5Slice11can_reslice
FNDA:0,_RNvMs1_NtCs7YQQ0vypdx3_16rhizo_crypt_core5sliceNtB5_12SliceBuilder10expires_in
FNDA:0,_RNvMs1_NtCs7YQQ0vypdx3_16rhizo_crypt_core5sliceNtB5_12SliceBuilder15with_expires_at
FNDA:0,_RNvMs1_NtCs7YQQ0vypdx3_16rhizo_crypt_core5sliceNtB5_12SliceBuilder16with_constraints
FNDA:0,_RNCNvMNtCs7YQQ0vypdx3_16rhizo_crypt_core5sliceNtB4_5Slice10is_expired0B6_
FNDA:1,_RNvNtNtCs7YQQ0vypdx3_16rhizo_crypt_core5slice5tests11make_origin
FNDA:1,_RNvNtNtCs7YQQ0vypdx3_16rhizo_crypt_core5slice5testss_18test_slice_builder
FNDA:1,_RNvNtNtCs7YQQ0vypdx3_16rhizo_crypt_core5slice5testss_21test_resolution_route
FNDA:1,_RNvNtNtCs7YQQ0vypdx3_16rhizo_crypt_core5slice5testss_21test_slice_mode_names
FNDA:1,_RNvNtNtCs7YQQ0vypdx3_16rhizo_crypt_core5slice5testss_23test_loan_terms_default
FNDA:1,_RNvNtNtCs7YQQ0vypdx3_16rhizo_crypt_core5slice5testss_23test_slice_mode_lineage
FNDA:1,_RNvNtNtCs7YQQ0vypdx3_16rhizo_crypt_core5slice5testss_30test_slice_constraints_default
FNDA:1,_RNvMNtCs7YQQ0vypdx3_16rhizo_crypt_core5sliceNtB2_5Slice10is_expired
FNDA:1,_RNvMNtCs7YQQ0vypdx3_16rhizo_crypt_core5sliceNtB2_5Slice11is_resolved
FNDA:1,_RNvMNtCs7YQQ0vypdx3_16rhizo_crypt_core5sliceNtB2_5Slice9is_active
FNDA:1,_RNvMs1_NtCs7YQQ0vypdx3_16rhizo_crypt_core5sliceNtB5_12SliceBuilder21with_resolution_route
FNDA:1,_RNvMs1_NtCs7YQQ0vypdx3_16rhizo_crypt_core5sliceNtB5_12SliceBuilder3new
FNDA:1,_RNvMs1_NtCs7YQQ0vypdx3_16rhizo_crypt_core5sliceNtB5_12SliceBuilder5build
FNDA:3,_RNvMs_NtCs7YQQ0vypdx3_16rhizo_crypt_core5sliceNtB4_9SliceMode16can_lineage_back
FNDA:2,_RNvMs_NtCs7YQQ0vypdx3_16rhizo_crypt_core5sliceNtB4_9SliceMode4name
FNDA:3,_RNvXs0_NtCs7YQQ0vypdx3_16rhizo_crypt_core5sliceNtB5_9LoanTermsNtNtCs9sjCchOt1K7_4core7default7Default7default
FNDA:0,_RNvMNtCsid3wTlZBOIR_16rhizo_crypt_core5sliceNtB2_5Slice10is_expired
FNDA:0,_RNvMNtCsid3wTlZBOIR_16rhizo_crypt_core5sliceNtB2_5Slice11can_reslice
FNDA:0,_RNvMNtCsid3wTlZBOIR_16rhizo_crypt_core5sliceNtB2_5Slice11is_resolved
FNDA:1,_RNvMNtCsid3wTlZBOIR_16rhizo_crypt_core5sliceNtB2_5Slice9is_active
FNDA:0,_RNvMs1_NtCsid3wTlZBOIR_16rhizo_crypt_core5sliceNtB5_12SliceBuilder10expires_in
FNDA:0,_RNvMs1_NtCsid3wTlZBOIR_16rhizo_crypt_core5sliceNtB5_12SliceBuilder15with_expires_at
FNDA:0,_RNvMs1_NtCsid3wTlZBOIR_16rhizo_crypt_core5sliceNtB5_12SliceBuilder16with_constraints
FNDA:0,_RNvMs1_NtCsid3wTlZBOIR_16rhizo_crypt_core5sliceNtB5_12SliceBuilder21with_resolution_route
FNDA:1,_RNvMs1_NtCsid3wTlZBOIR_16rhizo_crypt_core5sliceNtB5_12SliceBuilder3new
FNDA:1,_RNvMs1_NtCsid3wTlZBOIR_16rhizo_crypt_core5sliceNtB5_12SliceBuilder5build
FNDA:0,_RNvMs_NtCsid3wTlZBOIR_16rhizo_crypt_core5sliceNtB4_9SliceMode16can_lineage_back
FNDA:0,_RNvMs_NtCsid3wTlZBOIR_16rhizo_crypt_core5sliceNtB4_9SliceMode4name
FNDA:0,_RNvXs0_NtCsid3wTlZBOIR_16rhizo_crypt_core5sliceNtB5_9LoanTermsNtNtCs9sjCchOt1K7_4core7default7Default7default
FNF:21
FNH:16
DA:54,1
DA:55,1
DA:56,1
DA:57,1
DA:61,2
DA:62,2
DA:63,2
DA:67,1
DA:68,1
DA:69,1
DA:73,0
DA:74,0
DA:75,0
DA:160,3
DA:161,3
DA:162,3
DA:166,2
DA:167,2
DA:170,1
DA:173,0
DA:176,0
DA:179,1
DA:182,0
DA:185,0
DA:187,2
DA:204,3
DA:205,3
DA:206,3
DA:207,3
DA:208,3
DA:209,3
DA:210,3
DA:388,2
DA:389,2
DA:390,2
DA:391,2
DA:392,2
DA:393,2
DA:394,2
DA:395,2
DA:396,2
DA:397,2
DA:398,2
DA:399,2
DA:400,2
DA:401,2
DA:402,2
DA:403,2
DA:404,2
DA:405,2
DA:409,1
DA:410,1
DA:411,1
DA:412,1
DA:416,0
DA:417,0
DA:418,0
DA:419,0
DA:423,0
DA:424,0
DA:425,0
DA:426,0
DA:431,0
DA:432,0
DA:433,0
DA:434,0
DA:435,0
DA:436,0
DA:440,2
DA:441,2
DA:442,2
DA:443,2
DA:444,2
DA:445,2
DA:446,2
DA:447,2
DA:448,2
DA:449,2
DA:450,2
DA:451,2
DA:452,2
DA:453,2
DA:454,2
DA:455,2
DA:456,2
DA:464,1
DA:465,1
DA:466,1
DA:467,1
DA:468,1
DA:469,1
DA:470,1
DA:471,1
DA:472,1
DA:475,1
DA:476,1
DA:477,1
DA:478,1
DA:479,1
DA:480,1
DA:481,1
DA:482,1
DA:483,1
DA:484,1
DA:485,1
DA:486,1
DA:487,1
DA:488,1
DA:489,1
DA:490,1
DA:491,1
DA:492,1
DA:493,1
DA:494,1
DA:495,1
DA:496,1
DA:497,1
DA:498,1
DA:499,1
DA:502,1
DA:503,1
DA:504,1
DA:505,1
DA:506,1
DA:507,1
DA:508,1
DA:509,1
DA:510,1
DA:511,1
DA:512,1
DA:513,1
DA:514,1
DA:515,1
DA:516,1
DA:519,1
DA:520,1
DA:521,1
DA:522,1
DA:523,1
DA:524,1
DA:525,1
DA:526,1
DA:527,1
DA:528,1
DA:529,1
DA:530,1
DA:531,1
DA:532,1
DA:533,1
DA:534,1
DA:535,1
DA:536,1
DA:539,1
DA:540,1
DA:541,1
DA:542,1
DA:543,1
DA:544,1
DA:545,1
DA:546,1
DA:547,1
DA:548,1
DA:551,1
DA:553,1
DA:555,1
DA:557,0
DA:559,1
DA:562,1
DA:563,1
DA:564,1
DA:565,1
DA:566,1
DA:567,1
DA:570,1
DA:571,1
DA:572,1
DA:573,1
DA:574,1
BRF:0
BRH:0
LF:179
LH:156
end_of_record
SF:/home/strandgate/Development/ecoPrimals/phase2/rhizoCrypt/crates/rhizo-crypt-core/src/store.rs
FN:212,_RNCNvXs_NtCsid3wTlZBOIR_16rhizo_crypt_core5storeNtB6_16InMemoryDagStoreNtB6_8DagStore10put_vertex0CsdcY13n2UsKC_11chaos_tests
FN:310,_RNCNvXs_NtCsid3wTlZBOIR_16rhizo_crypt_core5storeNtB6_16InMemoryDagStoreNtB6_8DagStore14delete_session0CsdcY13n2UsKC_11chaos_tests
FN:156,_RNvMNtCsid3wTlZBOIR_16rhizo_crypt_core5storeNtB2_16InMemoryDagStore13session_count
FN:175,_RNvMNtCsid3wTlZBOIR_16rhizo_crypt_core5storeNtB2_16InMemoryDagStore16get_all_vertices
FN:161,_RNvMNtCsid3wTlZBOIR_16rhizo_crypt_core5storeNtB2_16InMemoryDagStore18total_vertex_count
FN:147,_RNvMNtCsid3wTlZBOIR_16rhizo_crypt_core5storeNtB2_16InMemoryDagStore3new
FN:416,_RNvMs0_NtCsid3wTlZBOIR_16rhizo_crypt_core5storeNtB5_20InMemoryPayloadStore11total_bytes
FN:411,_RNvMs0_NtCsid3wTlZBOIR_16rhizo_crypt_core5storeNtB5_20InMemoryPayloadStore13payload_count
FN:402,_RNvMs0_NtCsid3wTlZBOIR_16rhizo_crypt_core5storeNtB5_20InMemoryPayloadStore3new
FN:430,_RNvXs1_NtCsid3wTlZBOIR_16rhizo_crypt_core5storeNtB5_20InMemoryPayloadStoreNtB5_12PayloadStore3get
FN:423,_RNvXs1_NtCsid3wTlZBOIR_16rhizo_crypt_core5storeNtB5_20InMemoryPayloadStoreNtB5_12PayloadStore3put
FN:452,_RNvXs1_NtCsid3wTlZBOIR_16rhizo_crypt_core5storeNtB5_20InMemoryPayloadStoreNtB5_12PayloadStore5stats
FN:442,_RNvXs1_NtCsid3wTlZBOIR_16rhizo_crypt_core5storeNtB5_20InMemoryPayloadStoreNtB5_12PayloadStore6delete
FN:436,_RNvXs1_NtCsid3wTlZBOIR_16rhizo_crypt_core5storeNtB5_20InMemoryPayloadStoreNtB5_12PayloadStore6exists
FN:448,_RNvXs1_NtCsid3wTlZBOIR_16rhizo_crypt_core5storeNtB5_20InMemoryPayloadStoreNtB5_12PayloadStore6health
FN:243,_RNvXs_NtCsid3wTlZBOIR_16rhizo_crypt_core5storeNtB4_16InMemoryDagStoreNtB4_8DagStore10get_vertex
FN:212,_RNvXs_NtCsid3wTlZBOIR_16rhizo_crypt_core5storeNtB4_16InMemoryDagStoreNtB4_8DagStore10put_vertex
FN:286,_RNvXs_NtCsid3wTlZBOIR_16rhizo_crypt_core5storeNtB4_16InMemoryDagStoreNtB4_8DagStore11get_genesis
FN:272,_RNvXs_NtCsid3wTlZBOIR_16rhizo_crypt_core5storeNtB4_16InMemoryDagStoreNtB4_8DagStore12get_children
FN:295,_RNvXs_NtCsid3wTlZBOIR_16rhizo_crypt_core5storeNtB4_16InMemoryDagStoreNtB4_8DagStore12get_frontier
FN:253,_RNvXs_NtCsid3wTlZBOIR_16rhizo_crypt_core5storeNtB4_16InMemoryDagStoreNtB4_8DagStore12get_vertices
FN:304,_RNvXs_NtCsid3wTlZBOIR_16rhizo_crypt_core5storeNtB4_16InMemoryDagStoreNtB4_8DagStore14count_vertices
FN:310,_RNvXs_NtCsid3wTlZBOIR_16rhizo_crypt_core5storeNtB4_16InMemoryDagStoreNtB4_8DagStore14delete_session
FN:316,_RNvXs_NtCsid3wTlZBOIR_16rhizo_crypt_core5storeNtB4_16InMemoryDagStoreNtB4_8DagStore15update_frontier
FN:337,_RNvXs_NtCsid3wTlZBOIR_16rhizo_crypt_core5storeNtB4_16InMemoryDagStoreNtB4_8DagStore5stats
FN:266,_RNvXs_NtCsid3wTlZBOIR_16rhizo_crypt_core5storeNtB4_16InMemoryDagStoreNtB4_8DagStore6exists
FN:333,_RNvXs_NtCsid3wTlZBOIR_16rhizo_crypt_core5storeNtB4_16InMemoryDagStoreNtB4_8DagStore6health
FN:262,_RNCNCNCNvXs_NtCsid3wTlZBOIR_16rhizo_crypt_core5storeNtBa_16InMemoryDagStoreNtBa_8DagStore12get_vertices000Bc_
FN:163,_RNCNCNvMNtCsid3wTlZBOIR_16rhizo_crypt_core5storeNtB6_16InMemoryDagStore18total_vertex_count00B8_
FN:454,_RNCNCNvXs1_NtCsid3wTlZBOIR_16rhizo_crypt_core5storeNtB9_20InMemoryPayloadStoreNtB9_12PayloadStore5stats00Bb_
FN:250,_RNCNCNvXs_NtCsid3wTlZBOIR_16rhizo_crypt_core5storeNtB8_16InMemoryDagStoreNtB8_8DagStore10get_vertex00Ba_
FN:291,_RNCNCNvXs_NtCsid3wTlZBOIR_16rhizo_crypt_core5storeNtB8_16InMemoryDagStoreNtB8_8DagStore11get_genesis00Ba_
FN:281,_RNCNCNvXs_NtCsid3wTlZBOIR_16rhizo_crypt_core5storeNtB8_16InMemoryDagStoreNtB8_8DagStore12get_children00Ba_
FN:282,_RNCNCNvXs_NtCsid3wTlZBOIR_16rhizo_crypt_core5storeNtB8_16InMemoryDagStoreNtB8_8DagStore12get_children0s_0Ba_
FN:300,_RNCNCNvXs_NtCsid3wTlZBOIR_16rhizo_crypt_core5storeNtB8_16InMemoryDagStoreNtB8_8DagStore12get_frontier00Ba_
FN:262,_RNCNCNvXs_NtCsid3wTlZBOIR_16rhizo_crypt_core5storeNtB8_16InMemoryDagStoreNtB8_8DagStore12get_vertices00Ba_
FN:307,_RNCNCNvXs_NtCsid3wTlZBOIR_16rhizo_crypt_core5storeNtB8_16InMemoryDagStoreNtB8_8DagStore14count_vertices00Ba_
FN:340,_RNCNCNvXs_NtCsid3wTlZBOIR_16rhizo_crypt_core5storeNtB8_16InMemoryDagStoreNtB8_8DagStore5stats00Ba_
FN:269,_RNCNCNvXs_NtCsid3wTlZBOIR_16rhizo_crypt_core5storeNtB8_16InMemoryDagStoreNtB8_8DagStore6exists00Ba_
FN:156,_RNCNvMNtCsid3wTlZBOIR_16rhizo_crypt_core5storeNtB4_16InMemoryDagStore13session_count0B6_
FN:175,_RNCNvMNtCsid3wTlZBOIR_16rhizo_crypt_core5storeNtB4_16InMemoryDagStore16get_all_vertices0B6_
FN:161,_RNCNvMNtCsid3wTlZBOIR_16rhizo_crypt_core5storeNtB4_16InMemoryDagStore18total_vertex_count0B6_
FN:416,_RNCNvMs0_NtCsid3wTlZBOIR_16rhizo_crypt_core5storeNtB7_20InMemoryPayloadStore11total_bytes0B9_
FN:411,_RNCNvMs0_NtCsid3wTlZBOIR_16rhizo_crypt_core5storeNtB7_20InMemoryPayloadStore13payload_count0B9_
FN:430,_RNCNvXs1_NtCsid3wTlZBOIR_16rhizo_crypt_core5storeNtB7_20InMemoryPayloadStoreNtB7_12PayloadStore3get0B9_
FN:423,_RNCNvXs1_NtCsid3wTlZBOIR_16rhizo_crypt_core5storeNtB7_20InMemoryPayloadStoreNtB7_12PayloadStore3put0B9_
FN:452,_RNCNvXs1_NtCsid3wTlZBOIR_16rhizo_crypt_core5storeNtB7_20InMemoryPayloadStoreNtB7_12PayloadStore5stats0B9_
FN:442,_RNCNvXs1_NtCsid3wTlZBOIR_16rhizo_crypt_core5storeNtB7_20InMemoryPayloadStoreNtB7_12PayloadStore6delete0B9_
FN:436,_RNCNvXs1_NtCsid3wTlZBOIR_16rhizo_crypt_core5storeNtB7_20InMemoryPayloadStoreNtB7_12PayloadStore6exists0B9_
FN:448,_RNCNvXs1_NtCsid3wTlZBOIR_16rhizo_crypt_core5storeNtB7_20InMemoryPayloadStoreNtB7_12PayloadStore6health0B9_
FN:247,_RNCNvXs_NtCsid3wTlZBOIR_16rhizo_crypt_core5storeNtB6_16InMemoryDagStoreNtB6_8DagStore10get_vertex0B8_
FN:212,_RNCNvXs_NtCsid3wTlZBOIR_16rhizo_crypt_core5storeNtB6_16InMemoryDagStoreNtB6_8DagStore10put_vertex0B8_
FN:286,_RNCNvXs_NtCsid3wTlZBOIR_16rhizo_crypt_core5storeNtB6_16InMemoryDagStoreNtB6_8DagStore11get_genesis0B8_
FN:276,_RNCNvXs_NtCsid3wTlZBOIR_16rhizo_crypt_core5storeNtB6_16InMemoryDagStoreNtB6_8DagStore12get_children0B8_
FN:295,_RNCNvXs_NtCsid3wTlZBOIR_16rhizo_crypt_core5storeNtB6_16InMemoryDagStoreNtB6_8DagStore12get_frontier0B8_
FN:257,_RNCNvXs_NtCsid3wTlZBOIR_16rhizo_crypt_core5storeNtB6_16InMemoryDagStoreNtB6_8DagStore12get_vertices0B8_
FN:304,_RNCNvXs_NtCsid3wTlZBOIR_16rhizo_crypt_core5storeNtB6_16InMemoryDagStoreNtB6_8DagStore14count_vertices0B8_
FN:310,_RNCNvXs_NtCsid3wTlZBOIR_16rhizo_crypt_core5storeNtB6_16InMemoryDagStoreNtB6_8DagStore14delete_session0B8_
FN:321,_RNCNvXs_NtCsid3wTlZBOIR_16rhizo_crypt_core5storeNtB6_16InMemoryDagStoreNtB6_8DagStore15update_frontier0B8_
FN:337,_RNCNvXs_NtCsid3wTlZBOIR_16rhizo_crypt_core5storeNtB6_16InMemoryDagStoreNtB6_8DagStore5stats0B8_
FN:266,_RNCNvXs_NtCsid3wTlZBOIR_16rhizo_crypt_core5storeNtB6_16InMemoryDagStoreNtB6_8DagStore6exists0B8_
FN:333,_RNCNvXs_NtCsid3wTlZBOIR_16rhizo_crypt_core5storeNtB6_16InMemoryDagStoreNtB6_8DagStore6health0B8_
FN:250,_RNCNCNvXs_NtCsid3wTlZBOIR_16rhizo_crypt_core5storeNtB8_16InMemoryDagStoreNtB8_8DagStore10get_vertex00CsPnv9z7ECKg_9e2e_tests
FN:281,_RNCNCNvXs_NtCsid3wTlZBOIR_16rhizo_crypt_core5storeNtB8_16InMemoryDagStoreNtB8_8DagStore12get_children00CsPnv9z7ECKg_9e2e_tests
FN:282,_RNCNCNvXs_NtCsid3wTlZBOIR_16rhizo_crypt_core5storeNtB8_16InMemoryDagStoreNtB8_8DagStore12get_children0s_0CsPnv9z7ECKg_9e2e_tests
FN:247,_RNCNvXs_NtCsid3wTlZBOIR_16rhizo_crypt_core5storeNtB6_16InMemoryDagStoreNtB6_8DagStore10get_vertex0CsPnv9z7ECKg_9e2e_tests
FN:212,_RNCNvXs_NtCsid3wTlZBOIR_16rhizo_crypt_core5storeNtB6_16InMemoryDagStoreNtB6_8DagStore10put_vertex0CsPnv9z7ECKg_9e2e_tests
FN:276,_RNCNvXs_NtCsid3wTlZBOIR_16rhizo_crypt_core5storeNtB6_16InMemoryDagStoreNtB6_8DagStore12get_children0CsPnv9z7ECKg_9e2e_tests
FN:310,_RNCNvXs_NtCsid3wTlZBOIR_16rhizo_crypt_core5storeNtB6_16InMemoryDagStoreNtB6_8DagStore14delete_session0CsPnv9z7ECKg_9e2e_tests
FN:262,_RNCNCNCNvXs_NtCs7YQQ0vypdx3_16rhizo_crypt_core5storeNtBa_16InMemoryDagStoreNtBa_8DagStore12get_vertices000Bc_
FN:163,_RNCNCNvMNtCs7YQQ0vypdx3_16rhizo_crypt_core5storeNtB6_16InMemoryDagStore18total_vertex_count00B8_
FN:262,_RNCNCNvXs_NtCs7YQQ0vypdx3_16rhizo_crypt_core5storeNtB8_16InMemoryDagStoreNtB8_8DagStore12get_vertices00Ba_
FN:175,_RNCNvMNtCs7YQQ0vypdx3_16rhizo_crypt_core5storeNtB4_16InMemoryDagStore16get_all_vertices0B6_
FN:161,_RNCNvMNtCs7YQQ0vypdx3_16rhizo_crypt_core5storeNtB4_16InMemoryDagStore18total_vertex_count0B6_
FN:416,_RNCNvMs0_NtCs7YQQ0vypdx3_16rhizo_crypt_core5storeNtB7_20InMemoryPayloadStore11total_bytes0B9_
FN:257,_RNCNvXs_NtCs7YQQ0vypdx3_16rhizo_crypt_core5storeNtB6_16InMemoryDagStoreNtB6_8DagStore12get_vertices0B8_
FN:175,_RNvMNtCs7YQQ0vypdx3_16rhizo_crypt_core5storeNtB2_16InMemoryDagStore16get_all_vertices
FN:161,_RNvMNtCs7YQQ0vypdx3_16rhizo_crypt_core5storeNtB2_16InMemoryDagStore18total_vertex_count
FN:416,_RNvMs0_NtCs7YQQ0vypdx3_16rhizo_crypt_core5storeNtB5_20InMemoryPayloadStore11total_bytes
FN:253,_RNvXs_NtCs7YQQ0vypdx3_16rhizo_crypt_core5storeNtB4_16InMemoryDagStoreNtB4_8DagStore12get_vertices
FN:454,_RNCNCNvXs1_NtCs7YQQ0vypdx3_16rhizo_crypt_core5storeNtB9_20InMemoryPayloadStoreNtB9_12PayloadStore5stats00Bb_
FN:250,_RNCNCNvXs_NtCs7YQQ0vypdx3_16rhizo_crypt_core5storeNtB8_16InMemoryDagStoreNtB8_8DagStore10get_vertex00Ba_
FN:291,_RNCNCNvXs_NtCs7YQQ0vypdx3_16rhizo_crypt_core5storeNtB8_16InMemoryDagStoreNtB8_8DagStore11get_genesis00Ba_
FN:281,_RNCNCNvXs_NtCs7YQQ0vypdx3_16rhizo_crypt_core5storeNtB8_16InMemoryDagStoreNtB8_8DagStore12get_children00Ba_
FN:282,_RNCNCNvXs_NtCs7YQQ0vypdx3_16rhizo_crypt_core5storeNtB8_16InMemoryDagStoreNtB8_8DagStore12get_children0s_0Ba_
FN:300,_RNCNCNvXs_NtCs7YQQ0vypdx3_16rhizo_crypt_core5storeNtB8_16InMemoryDagStoreNtB8_8DagStore12get_frontier00Ba_
FN:307,_RNCNCNvXs_NtCs7YQQ0vypdx3_16rhizo_crypt_core5storeNtB8_16InMemoryDagStoreNtB8_8DagStore14count_vertices00Ba_
FN:340,_RNCNCNvXs_NtCs7YQQ0vypdx3_16rhizo_crypt_core5storeNtB8_16InMemoryDagStoreNtB8_8DagStore5stats00Ba_
FN:269,_RNCNCNvXs_NtCs7YQQ0vypdx3_16rhizo_crypt_core5storeNtB8_16InMemoryDagStoreNtB8_8DagStore6exists00Ba_
FN:156,_RNCNvMNtCs7YQQ0vypdx3_16rhizo_crypt_core5storeNtB4_16InMemoryDagStore13session_count0B6_
FN:411,_RNCNvMs0_NtCs7YQQ0vypdx3_16rhizo_crypt_core5storeNtB7_20InMemoryPayloadStore13payload_count0B9_
FN:430,_RNCNvXs1_NtCs7YQQ0vypdx3_16rhizo_crypt_core5storeNtB7_20InMemoryPayloadStoreNtB7_12PayloadStore3get0B9_
FN:423,_RNCNvXs1_NtCs7YQQ0vypdx3_16rhizo_crypt_core5storeNtB7_20InMemoryPayloadStoreNtB7_12PayloadStore3put0B9_
FN:452,_RNCNvXs1_NtCs7YQQ0vypdx3_16rhizo_crypt_core5storeNtB7_20InMemoryPayloadStoreNtB7_12PayloadStore5stats0B9_
FN:442,_RNCNvXs1_NtCs7YQQ0vypdx3_16rhizo_crypt_core5storeNtB7_20InMemoryPayloadStoreNtB7_12PayloadStore6delete0B9_
FN:436,_RNCNvXs1_NtCs7YQQ0vypdx3_16rhizo_crypt_core5storeNtB7_20InMemoryPayloadStoreNtB7_12PayloadStore6exists0B9_
FN:448,_RNCNvXs1_NtCs7YQQ0vypdx3_16rhizo_crypt_core5storeNtB7_20InMemoryPayloadStoreNtB7_12PayloadStore6health0B9_
FN:247,_RNCNvXs_NtCs7YQQ0vypdx3_16rhizo_crypt_core5storeNtB6_16InMemoryDagStoreNtB6_8DagStore10get_vertex0B8_
FN:212,_RNCNvXs_NtCs7YQQ0vypdx3_16rhizo_crypt_core5storeNtB6_16InMemoryDagStoreNtB6_8DagStore10put_vertex0B8_
FN:286,_RNCNvXs_NtCs7YQQ0vypdx3_16rhizo_crypt_core5storeNtB6_16InMemoryDagStoreNtB6_8DagStore11get_genesis0B8_
FN:276,_RNCNvXs_NtCs7YQQ0vypdx3_16rhizo_crypt_core5storeNtB6_16InMemoryDagStoreNtB6_8DagStore12get_children0B8_
FN:295,_RNCNvXs_NtCs7YQQ0vypdx3_16rhizo_crypt_core5storeNtB6_16InMemoryDagStoreNtB6_8DagStore12get_frontier0B8_
FN:304,_RNCNvXs_NtCs7YQQ0vypdx3_16rhizo_crypt_core5storeNtB6_16InMemoryDagStoreNtB6_8DagStore14count_vertices0B8_
FN:310,_RNCNvXs_NtCs7YQQ0vypdx3_16rhizo_crypt_core5storeNtB6_16InMemoryDagStoreNtB6_8DagStore14delete_session0B8_
FN:321,_RNCNvXs_NtCs7YQQ0vypdx3_16rhizo_crypt_core5storeNtB6_16InMemoryDagStoreNtB6_8DagStore15update_frontier0B8_
FN:337,_RNCNvXs_NtCs7YQQ0vypdx3_16rhizo_crypt_core5storeNtB6_16InMemoryDagStoreNtB6_8DagStore5stats0B8_
FN:266,_RNCNvXs_NtCs7YQQ0vypdx3_16rhizo_crypt_core5storeNtB6_16InMemoryDagStoreNtB6_8DagStore6exists0B8_
FN:333,_RNCNvXs_NtCs7YQQ0vypdx3_16rhizo_crypt_core5storeNtB6_16InMemoryDagStoreNtB6_8DagStore6health0B8_
FN:538,_RNCNvNtNtCs7YQQ0vypdx3_16rhizo_crypt_core5store5testss_23test_dag_store_children0B7_
FN:474,_RNCNvNtNtCs7YQQ0vypdx3_16rhizo_crypt_core5store5testss_24test_in_memory_dag_store0B7_
FN:563,_RNCNvNtNtCs7YQQ0vypdx3_16rhizo_crypt_core5store5testss_28test_in_memory_payload_store0B7_
FN:580,_RNCNvNtNtCs7YQQ0vypdx3_16rhizo_crypt_core5store5testss_29test_dag_store_delete_session0B7_
FN:625,_RNCNvNtNtCs7YQQ0vypdx3_16rhizo_crypt_core5store5testss_30test_dag_store_update_frontier0B7_
FN:599,_RNCNvNtNtCs7YQQ0vypdx3_16rhizo_crypt_core5store5testss_31test_dag_store_health_and_stats0B7_
FN:498,_RNCNvNtNtCs7YQQ0vypdx3_16rhizo_crypt_core5store5testss_35test_dag_store_genesis_and_frontier0B7_
FN:645,_RNCNvNtNtCs7YQQ0vypdx3_16rhizo_crypt_core5store5testss_35test_payload_store_health_and_stats0B7_
FN:538,_RNvNtNtCs7YQQ0vypdx3_16rhizo_crypt_core5store5testss_23test_dag_store_children
FN:474,_RNvNtNtCs7YQQ0vypdx3_16rhizo_crypt_core5store5testss_24test_in_memory_dag_store
FN:563,_RNvNtNtCs7YQQ0vypdx3_16rhizo_crypt_core5store5testss_28test_in_memory_payload_store
FN:580,_RNvNtNtCs7YQQ0vypdx3_16rhizo_crypt_core5store5testss_29test_dag_store_delete_session
FN:625,_RNvNtNtCs7YQQ0vypdx3_16rhizo_crypt_core5store5testss_30test_dag_store_update_frontier
FN:599,_RNvNtNtCs7YQQ0vypdx3_16rhizo_crypt_core5store5testss_31test_dag_store_health_and_stats
FN:498,_RNvNtNtCs7YQQ0vypdx3_16rhizo_crypt_core5store5testss_35test_dag_store_genesis_and_frontier
FN:645,_RNvNtNtCs7YQQ0vypdx3_16rhizo_crypt_core5store5testss_35test_payload_store_health_and_stats
FN:156,_RNvMNtCs7YQQ0vypdx3_16rhizo_crypt_core5storeNtB2_16InMemoryDagStore13session_count
FN:147,_RNvMNtCs7YQQ0vypdx3_16rhizo_crypt_core5storeNtB2_16InMemoryDagStore3new
FN:411,_RNvMs0_NtCs7YQQ0vypdx3_16rhizo_crypt_core5storeNtB5_20InMemoryPayloadStore13payload_count
FN:402,_RNvMs0_NtCs7YQQ0vypdx3_16rhizo_crypt_core5storeNtB5_20InMemoryPayloadStore3new
FN:430,_RNvXs1_NtCs7YQQ0vypdx3_16rhizo_crypt_core5storeNtB5_20InMemoryPayloadStoreNtB5_12PayloadStore3get
FN:423,_RNvXs1_NtCs7YQQ0vypdx3_16rhizo_crypt_core5storeNtB5_20InMemoryPayloadStoreNtB5_12PayloadStore3put
FN:452,_RNvXs1_NtCs7YQQ0vypdx3_16rhizo_crypt_core5storeNtB5_20InMemoryPayloadStoreNtB5_12PayloadStore5stats
FN:442,_RNvXs1_NtCs7YQQ0vypdx3_16rhizo_crypt_core5storeNtB5_20InMemoryPayloadStoreNtB5_12PayloadStore6delete
FN:436,_RNvXs1_NtCs7YQQ0vypdx3_16rhizo_crypt_core5storeNtB5_20InMemoryPayloadStoreNtB5_12PayloadStore6exists
FN:448,_RNvXs1_NtCs7YQQ0vypdx3_16rhizo_crypt_core5storeNtB5_20InMemoryPayloadStoreNtB5_12PayloadStore6health
FN:243,_RNvXs_NtCs7YQQ0vypdx3_16rhizo_crypt_core5storeNtB4_16InMemoryDagStoreNtB4_8DagStore10get_vertex
FN:212,_RNvXs_NtCs7YQQ0vypdx3_16rhizo_crypt_core5storeNtB4_16InMemoryDagStoreNtB4_8DagStore10put_vertex
FN:286,_RNvXs_NtCs7YQQ0vypdx3_16rhizo_crypt_core5storeNtB4_16InMemoryDagStoreNtB4_8DagStore11get_genesis
FN:272,_RNvXs_NtCs7YQQ0vypdx3_16rhizo_crypt_core5storeNtB4_16InMemoryDagStoreNtB4_8DagStore12get_children
FN:295,_RNvXs_NtCs7YQQ0vypdx3_16rhizo_crypt_core5storeNtB4_16InMemoryDagStoreNtB4_8DagStore12get_frontier
FN:304,_RNvXs_NtCs7YQQ0vypdx3_16rhizo_crypt_core5storeNtB4_16InMemoryDagStoreNtB4_8DagStore14count_vertices
FN:310,_RNvXs_NtCs7YQQ0vypdx3_16rhizo_crypt_core5storeNtB4_16InMemoryDagStoreNtB4_8DagStore14delete_session
FN:316,_RNvXs_NtCs7YQQ0vypdx3_16rhizo_crypt_core5storeNtB4_16InMemoryDagStoreNtB4_8DagStore15update_frontier
FN:337,_RNvXs_NtCs7YQQ0vypdx3_16rhizo_crypt_core5storeNtB4_16InMemoryDagStoreNtB4_8DagStore5stats
FN:266,_RNvXs_NtCs7YQQ0vypdx3_16rhizo_crypt_core5storeNtB4_16InMemoryDagStoreNtB4_8DagStore6exists
FN:333,_RNvXs_NtCs7YQQ0vypdx3_16rhizo_crypt_core5storeNtB4_16InMemoryDagStoreNtB4_8DagStore6health
FN:250,_RNCNCNvXs_NtCsid3wTlZBOIR_16rhizo_crypt_core5storeNtB8_16InMemoryDagStoreNtB8_8DagStore10get_vertex00CscGNtvOf38BJ_15rpc_integration
FN:281,_RNCNCNvXs_NtCsid3wTlZBOIR_16rhizo_crypt_core5storeNtB8_16InMemoryDagStoreNtB8_8DagStore12get_children00CscGNtvOf38BJ_15rpc_integration
FN:282,_RNCNCNvXs_NtCsid3wTlZBOIR_16rhizo_crypt_core5storeNtB8_16InMemoryDagStoreNtB8_8DagStore12get_children0s_0CscGNtvOf38BJ_15rpc_integration
FN:175,_RNCNvMNtCsid3wTlZBOIR_16rhizo_crypt_core5storeNtB4_16InMemoryDagStore16get_all_vertices0CscGNtvOf38BJ_15rpc_integration
FN:247,_RNCNvXs_NtCsid3wTlZBOIR_16rhizo_crypt_core5storeNtB6_16InMemoryDagStoreNtB6_8DagStore10get_vertex0CscGNtvOf38BJ_15rpc_integration
FN:212,_RNCNvXs_NtCsid3wTlZBOIR_16rhizo_crypt_core5storeNtB6_16InMemoryDagStoreNtB6_8DagStore10put_vertex0CscGNtvOf38BJ_15rpc_integration
FN:276,_RNCNvXs_NtCsid3wTlZBOIR_16rhizo_crypt_core5storeNtB6_16InMemoryDagStoreNtB6_8DagStore12get_children0CscGNtvOf38BJ_15rpc_integration
FN:310,_RNCNvXs_NtCsid3wTlZBOIR_16rhizo_crypt_core5storeNtB6_16InMemoryDagStoreNtB6_8DagStore14delete_session0CscGNtvOf38BJ_15rpc_integration
FNDA:1020,_RNCNvXs_NtCsid3wTlZBOIR_16rhizo_crypt_core5storeNtB6_16InMemoryDagStoreNtB6_8DagStore10put_vertex0CsdcY13n2UsKC_11chaos_tests
FNDA:1,_RNCNvXs_NtCsid3wTlZBOIR_16rhizo_crypt_core5storeNtB6_16InMemoryDagStoreNtB6_8DagStore14delete_session0CsdcY13n2UsKC_11chaos_tests
FNDA:0,_RNvMNtCsid3wTlZBOIR_16rhizo_crypt_core5storeNtB2_16InMemoryDagStore13session_count
FNDA:5,_RNvMNtCsid3wTlZBOIR_16rhizo_crypt_core5storeNtB2_16InMemoryDagStore16get_all_vertices
FNDA:0,_RNvMNtCsid3wTlZBOIR_16rhizo_crypt_core5storeNtB2_16InMemoryDagStore18total_vertex_count
FNDA:26,_RNvMNtCsid3wTlZBOIR_16rhizo_crypt_core5storeNtB2_16InMemoryDagStore3new
FNDA:0,_RNvMs0_NtCsid3wTlZBOIR_16rhizo_crypt_core5storeNtB5_20InMemoryPayloadStore11total_bytes
FNDA:0,_RNvMs0_NtCsid3wTlZBOIR_16rhizo_crypt_core5storeNtB5_20InMemoryPayloadStore13payload_count
FNDA:26,_RNvMs0_NtCsid3wTlZBOIR_16rhizo_crypt_core5storeNtB5_20InMemoryPayloadStore3new
FNDA:0,_RNvXs1_NtCsid3wTlZBOIR_16rhizo_crypt_core5storeNtB5_20InMemoryPayloadStoreNtB5_12PayloadStore3get
FNDA:0,_RNvXs1_NtCsid3wTlZBOIR_16rhizo_crypt_core5storeNtB5_20InMemoryPayloadStoreNtB5_12PayloadStore3put
FNDA:0,_RNvXs1_NtCsid3wTlZBOIR_16rhizo_crypt_core5storeNtB5_20InMemoryPayloadStoreNtB5_12PayloadStore5stats
FNDA:0,_RNvXs1_NtCsid3wTlZBOIR_16rhizo_crypt_core5storeNtB5_20InMemoryPayloadStoreNtB5_12PayloadStore6delete
FNDA:0,_RNvXs1_NtCsid3wTlZBOIR_16rhizo_crypt_core5storeNtB5_20InMemoryPayloadStoreNtB5_12PayloadStore6exists
FNDA:0,_RNvXs1_NtCsid3wTlZBOIR_16rhizo_crypt_core5storeNtB5_20InMemoryPayloadStoreNtB5_12PayloadStore6health
FNDA:3,_RNvXs_NtCsid3wTlZBOIR_16rhizo_crypt_core5storeNtB4_16InMemoryDagStoreNtB4_8DagStore10get_vertex
FNDA:1047,_RNvXs_NtCsid3wTlZBOIR_16rhizo_crypt_core5storeNtB4_16InMemoryDagStoreNtB4_8DagStore10put_vertex
FNDA:0,_RNvXs_NtCsid3wTlZBOIR_16rhizo_crypt_core5storeNtB4_16InMemoryDagStoreNtB4_8DagStore11get_genesis
FNDA:2,_RNvXs_NtCsid3wTlZBOIR_16rhizo_crypt_core5storeNtB4_16InMemoryDagStoreNtB4_8DagStore12get_children
FNDA:0,_RNvXs_NtCsid3wTlZBOIR_16rhizo_crypt_core5storeNtB4_16InMemoryDagStoreNtB4_8DagStore12get_frontier
FNDA:0,_RNvXs_NtCsid3wTlZBOIR_16rhizo_crypt_core5storeNtB4_16InMemoryDagStoreNtB4_8DagStore12get_vertices
FNDA:0,_RNvXs_NtCsid3wTlZBOIR_16rhizo_crypt_core5storeNtB4_16InMemoryDagStoreNtB4_8DagStore14count_vertices
FNDA:3,_RNvXs_NtCsid3wTlZBOIR_16rhizo_crypt_core5storeNtB4_16InMemoryDagStoreNtB4_8DagStore14delete_session
FNDA:0,_RNvXs_NtCsid3wTlZBOIR_16rhizo_crypt_core5storeNtB4_16InMemoryDagStoreNtB4_8DagStore15update_frontier
FNDA:0,_RNvXs_NtCsid3wTlZBOIR_16rhizo_crypt_core5storeNtB4_16InMemoryDagStoreNtB4_8DagStore5stats
FNDA:0,_RNvXs_NtCsid3wTlZBOIR_16rhizo_crypt_core5storeNtB4_16InMemoryDagStoreNtB4_8DagStore6exists
FNDA:0,_RNvXs_NtCsid3wTlZBOIR_16rhizo_crypt_core5storeNtB4_16InMemoryDagStoreNtB4_8DagStore6health
FNDA:0,_RNCNCNCNvXs_NtCsid3wTlZBOIR_16rhizo_crypt_core5storeNtBa_16InMemoryDagStoreNtBa_8DagStore12get_vertices000Bc_
FNDA:0,_RNCNCNvMNtCsid3wTlZBOIR_16rhizo_crypt_core5storeNtB6_16InMemoryDagStore18total_vertex_count00B8_
FNDA:0,_RNCNCNvXs1_NtCsid3wTlZBOIR_16rhizo_crypt_core5storeNtB9_20InMemoryPayloadStoreNtB9_12PayloadStore5stats00Bb_
FNDA:0,_RNCNCNvXs_NtCsid3wTlZBOIR_16rhizo_crypt_core5storeNtB8_16InMemoryDagStoreNtB8_8DagStore10get_vertex00Ba_
FNDA:0,_RNCNCNvXs_NtCsid3wTlZBOIR_16rhizo_crypt_core5storeNtB8_16InMemoryDagStoreNtB8_8DagStore11get_genesis00Ba_
FNDA:0,_RNCNCNvXs_NtCsid3wTlZBOIR_16rhizo_crypt_core5storeNtB8_16InMemoryDagStoreNtB8_8DagStore12get_children00Ba_
FNDA:0,_RNCNCNvXs_NtCsid3wTlZBOIR_16rhizo_crypt_core5storeNtB8_16InMemoryDagStoreNtB8_8DagStore12get_children0s_0Ba_
FNDA:0,_RNCNCNvXs_NtCsid3wTlZBOIR_16rhizo_crypt_core5storeNtB8_16InMemoryDagStoreNtB8_8DagStore12get_frontier00Ba_
FNDA:0,_RNCNCNvXs_NtCsid3wTlZBOIR_16rhizo_crypt_core5storeNtB8_16InMemoryDagStoreNtB8_8DagStore12get_vertices00Ba_
FNDA:0,_RNCNCNvXs_NtCsid3wTlZBOIR_16rhizo_crypt_core5storeNtB8_16InMemoryDagStoreNtB8_8DagStore14count_vertices00Ba_
FNDA:0,_RNCNCNvXs_NtCsid3wTlZBOIR_16rhizo_crypt_core5storeNtB8_16InMemoryDagStoreNtB8_8DagStore5stats00Ba_
FNDA:0,_RNCNCNvXs_NtCsid3wTlZBOIR_16rhizo_crypt_core5storeNtB8_16InMemoryDagStoreNtB8_8DagStore6exists00Ba_
FNDA:0,_RNCNvMNtCsid3wTlZBOIR_16rhizo_crypt_core5storeNtB4_16InMemoryDagStore13session_count0B6_
FNDA:0,_RNCNvMNtCsid3wTlZBOIR_16rhizo_crypt_core5storeNtB4_16InMemoryDagStore16get_all_vertices0B6_
FNDA:0,_RNCNvMNtCsid3wTlZBOIR_16rhizo_crypt_core5storeNtB4_16InMemoryDagStore18total_vertex_count0B6_
FNDA:0,_RNCNvMs0_NtCsid3wTlZBOIR_16rhizo_crypt_core5storeNtB7_20InMemoryPayloadStore11total_bytes0B9_
FNDA:0,_RNCNvMs0_NtCsid3wTlZBOIR_16rhizo_crypt_core5storeNtB7_20InMemoryPayloadStore13payload_count0B9_
FNDA:0,_RNCNvXs1_NtCsid3wTlZBOIR_16rhizo_crypt_core5storeNtB7_20InMemoryPayloadStoreNtB7_12PayloadStore3get0B9_
FNDA:0,_RNCNvXs1_NtCsid3wTlZBOIR_16rhizo_crypt_core5storeNtB7_20InMemoryPayloadStoreNtB7_12PayloadStore3put0B9_
FNDA:0,_RNCNvXs1_NtCsid3wTlZBOIR_16rhizo_crypt_core5storeNtB7_20InMemoryPayloadStoreNtB7_12PayloadStore5stats0B9_
FNDA:0,_RNCNvXs1_NtCsid3wTlZBOIR_16rhizo_crypt_core5storeNtB7_20InMemoryPayloadStoreNtB7_12PayloadStore6delete0B9_
FNDA:0,_RNCNvXs1_NtCsid3wTlZBOIR_16rhizo_crypt_core5storeNtB7_20InMemoryPayloadStoreNtB7_12PayloadStore6exists0B9_
FNDA:0,_RNCNvXs1_NtCsid3wTlZBOIR_16rhizo_crypt_core5storeNtB7_20InMemoryPayloadStoreNtB7_12PayloadStore6health0B9_
FNDA:0,_RNCNvXs_NtCsid3wTlZBOIR_16rhizo_crypt_core5storeNtB6_16InMemoryDagStoreNtB6_8DagStore10get_vertex0B8_
FNDA:0,_RNCNvXs_NtCsid3wTlZBOIR_16rhizo_crypt_core5storeNtB6_16InMemoryDagStoreNtB6_8DagStore10put_vertex0B8_
FNDA:0,_RNCNvXs_NtCsid3wTlZBOIR_16rhizo_crypt_core5storeNtB6_16InMemoryDagStoreNtB6_8DagStore11get_genesis0B8_
FNDA:0,_RNCNvXs_NtCsid3wTlZBOIR_16rhizo_crypt_core5storeNtB6_16InMemoryDagStoreNtB6_8DagStore12get_children0B8_
FNDA:0,_RNCNvXs_NtCsid3wTlZBOIR_16rhizo_crypt_core5storeNtB6_16InMemoryDagStoreNtB6_8DagStore12get_frontier0B8_
FNDA:0,_RNCNvXs_NtCsid3wTlZBOIR_16rhizo_crypt_core5storeNtB6_16InMemoryDagStoreNtB6_8DagStore12get_vertices0B8_
FNDA:0,_RNCNvXs_NtCsid3wTlZBOIR_16rhizo_crypt_core5storeNtB6_16InMemoryDagStoreNtB6_8DagStore14count_vertices0B8_
FNDA:0,_RNCNvXs_NtCsid3wTlZBOIR_16rhizo_crypt_core5storeNtB6_16InMemoryDagStoreNtB6_8DagStore14delete_session0B8_
FNDA:0,_RNCNvXs_NtCsid3wTlZBOIR_16rhizo_crypt_core5storeNtB6_16InMemoryDagStoreNtB6_8DagStore15update_frontier0B8_
FNDA:0,_RNCNvXs_NtCsid3wTlZBOIR_16rhizo_crypt_core5storeNtB6_16InMemoryDagStoreNtB6_8DagStore5stats0B8_
FNDA:0,_RNCNvXs_NtCsid3wTlZBOIR_16rhizo_crypt_core5storeNtB6_16InMemoryDagStoreNtB6_8DagStore6exists0B8_
FNDA:0,_RNCNvXs_NtCsid3wTlZBOIR_16rhizo_crypt_core5storeNtB6_16InMemoryDagStoreNtB6_8DagStore6health0B8_
FNDA:1,_RNCNCNvXs_NtCsid3wTlZBOIR_16rhizo_crypt_core5storeNtB8_16InMemoryDagStoreNtB8_8DagStore10get_vertex00CsPnv9z7ECKg_9e2e_tests
FNDA:1,_RNCNCNvXs_NtCsid3wTlZBOIR_16rhizo_crypt_core5storeNtB8_16InMemoryDagStoreNtB8_8DagStore12get_children00CsPnv9z7ECKg_9e2e_tests
FNDA:1,_RNCNCNvXs_NtCsid3wTlZBOIR_16rhizo_crypt_core5storeNtB8_16InMemoryDagStoreNtB8_8DagStore12get_children0s_0CsPnv9z7ECKg_9e2e_tests
FNDA:1,_RNCNvXs_NtCsid3wTlZBOIR_16rhizo_crypt_core5storeNtB6_16InMemoryDagStoreNtB6_8DagStore10get_vertex0CsPnv9z7ECKg_9e2e_tests
FNDA:11,_RNCNvXs_NtCsid3wTlZBOIR_16rhizo_crypt_core5storeNtB6_16InMemoryDagStoreNtB6_8DagStore10put_vertex0CsPnv9z7ECKg_9e2e_tests
FNDA:1,_RNCNvXs_NtCsid3wTlZBOIR_16rhizo_crypt_core5storeNtB6_16InMemoryDagStoreNtB6_8DagStore12get_children0CsPnv9z7ECKg_9e2e_tests
FNDA:1,_RNCNvXs_NtCsid3wTlZBOIR_16rhizo_crypt_core5storeNtB6_16InMemoryDagStoreNtB6_8DagStore14delete_session0CsPnv9z7ECKg_9e2e_tests
FNDA:0,_RNCNCNCNvXs_NtCs7YQQ0vypdx3_16rhizo_crypt_core5storeNtBa_16InMemoryDagStoreNtBa_8DagStore12get_vertices000Bc_
FNDA:0,_RNCNCNvMNtCs7YQQ0vypdx3_16rhizo_crypt_core5storeNtB6_16InMemoryDagStore18total_vertex_count00B8_
FNDA:0,_RNCNCNvXs_NtCs7YQQ0vypdx3_16rhizo_crypt_core5storeNtB8_16InMemoryDagStoreNtB8_8DagStore12get_vertices00Ba_
FNDA:0,_RNCNvMNtCs7YQQ0vypdx3_16rhizo_crypt_core5storeNtB4_16InMemoryDagStore16get_all_vertices0B6_
FNDA:0,_RNCNvMNtCs7YQQ0vypdx3_16rhizo_crypt_core5storeNtB4_16InMemoryDagStore18total_vertex_count0B6_
FNDA:0,_RNCNvMs0_NtCs7YQQ0vypdx3_16rhizo_crypt_core5storeNtB7_20InMemoryPayloadStore11total_bytes0B9_
FNDA:0,_RNCNvXs_NtCs7YQQ0vypdx3_16rhizo_crypt_core5storeNtB6_16InMemoryDagStoreNtB6_8DagStore12get_vertices0B8_
FNDA:0,_RNvMNtCs7YQQ0vypdx3_16rhizo_crypt_core5storeNtB2_16InMemoryDagStore16get_all_vertices
FNDA:0,_RNvMNtCs7YQQ0vypdx3_16rhizo_crypt_core5storeNtB2_16InMemoryDagStore18total_vertex_count
FNDA:0,_RNvMs0_NtCs7YQQ0vypdx3_16rhizo_crypt_core5storeNtB5_20InMemoryPayloadStore11total_bytes
FNDA:0,_RNvXs_NtCs7YQQ0vypdx3_16rhizo_crypt_core5storeNtB4_16InMemoryDagStoreNtB4_8DagStore12get_vertices
FNDA:1,_RNCNCNvXs1_NtCs7YQQ0vypdx3_16rhizo_crypt_core5storeNtB9_20InMemoryPayloadStoreNtB9_12PayloadStore5stats00Bb_
FNDA:1,_RNCNCNvXs_NtCs7YQQ0vypdx3_16rhizo_crypt_core5storeNtB8_16InMemoryDagStoreNtB8_8DagStore10get_vertex00Ba_
FNDA:2,_RNCNCNvXs_NtCs7YQQ0vypdx3_16rhizo_crypt_core5storeNtB8_16InMemoryDagStoreNtB8_8DagStore11get_genesis00Ba_
FNDA:1,_RNCNCNvXs_NtCs7YQQ0vypdx3_16rhizo_crypt_core5storeNtB8_16InMemoryDagStoreNtB8_8DagStore12get_children00Ba_
FNDA:1,_RNCNCNvXs_NtCs7YQQ0vypdx3_16rhizo_crypt_core5storeNtB8_16InMemoryDagStoreNtB8_8DagStore12get_children0s_0Ba_
FNDA:3,_RNCNCNvXs_NtCs7YQQ0vypdx3_16rhizo_crypt_core5storeNtB8_16InMemoryDagStoreNtB8_8DagStore12get_frontier00Ba_
FNDA:2,_RNCNCNvXs_NtCs7YQQ0vypdx3_16rhizo_crypt_core5storeNtB8_16InMemoryDagStoreNtB8_8DagStore14count_vertices00Ba_
FNDA:1,_RNCNCNvXs_NtCs7YQQ0vypdx3_16rhizo_crypt_core5storeNtB8_16InMemoryDagStoreNtB8_8DagStore5stats00Ba_
FNDA:1,_RNCNCNvXs_NtCs7YQQ0vypdx3_16rhizo_crypt_core5storeNtB8_16InMemoryDagStoreNtB8_8DagStore6exists00Ba_
FNDA:3,_RNCNvMNtCs7YQQ0vypdx3_16rhizo_crypt_core5storeNtB4_16InMemoryDagStore13session_count0B6_
FNDA:2,_RNCNvMs0_NtCs7YQQ0vypdx3_16rhizo_crypt_core5storeNtB7_20InMemoryPayloadStore13payload_count0B9_
FNDA:1,_RNCNvXs1_NtCs7YQQ0vypdx3_16rhizo_crypt_core5storeNtB7_20InMemoryPayloadStoreNtB7_12PayloadStore3get0B9_
FNDA:2,_RNCNvXs1_NtCs7YQQ0vypdx3_16rhizo_crypt_core5storeNtB7_20InMemoryPayloadStoreNtB7_12PayloadStore3put0B9_
FNDA:2,_RNCNvXs1_NtCs7YQQ0vypdx3_16rhizo_crypt_core5storeNtB7_20InMemoryPayloadStoreNtB7_12PayloadStore5stats0B9_
FNDA:1,_RNCNvXs1_NtCs7YQQ0vypdx3_16rhizo_crypt_core5storeNtB7_20InMemoryPayloadStoreNtB7_12PayloadStore6delete0B9_
FNDA:2,_RNCNvXs1_NtCs7YQQ0vypdx3_16rhizo_crypt_core5storeNtB7_20InMemoryPayloadStoreNtB7_12PayloadStore6exists0B9_
FNDA:1,_RNCNvXs1_NtCs7YQQ0vypdx3_16rhizo_crypt_core5storeNtB7_20InMemoryPayloadStoreNtB7_12PayloadStore6health0B9_
FNDA:1,_RNCNvXs_NtCs7YQQ0vypdx3_16rhizo_crypt_core5storeNtB6_16InMemoryDagStoreNtB6_8DagStore10get_vertex0B8_
FNDA:16,_RNCNvXs_NtCs7YQQ0vypdx3_16rhizo_crypt_core5storeNtB6_16InMemoryDagStoreNtB6_8DagStore10put_vertex0B8_
FNDA:2,_RNCNvXs_NtCs7YQQ0vypdx3_16rhizo_crypt_core5storeNtB6_16InMemoryDagStoreNtB6_8DagStore11get_genesis0B8_
FNDA:1,_RNCNvXs_NtCs7YQQ0vypdx3_16rhizo_crypt_core5storeNtB6_16InMemoryDagStoreNtB6_8DagStore12get_children0B8_
FNDA:3,_RNCNvXs_NtCs7YQQ0vypdx3_16rhizo_crypt_core5storeNtB6_16InMemoryDagStoreNtB6_8DagStore12get_frontier0B8_
FNDA:3,_RNCNvXs_NtCs7YQQ0vypdx3_16rhizo_crypt_core5storeNtB6_16InMemoryDagStoreNtB6_8DagStore14count_vertices0B8_
FNDA:1,_RNCNvXs_NtCs7YQQ0vypdx3_16rhizo_crypt_core5storeNtB6_16InMemoryDagStoreNtB6_8DagStore14delete_session0B8_
FNDA:1,_RNCNvXs_NtCs7YQQ0vypdx3_16rhizo_crypt_core5storeNtB6_16InMemoryDagStoreNtB6_8DagStore15update_frontier0B8_
FNDA:2,_RNCNvXs_NtCs7YQQ0vypdx3_16rhizo_crypt_core5storeNtB6_16InMemoryDagStoreNtB6_8DagStore5stats0B8_
FNDA:1,_RNCNvXs_NtCs7YQQ0vypdx3_16rhizo_crypt_core5storeNtB6_16InMemoryDagStoreNtB6_8DagStore6exists0B8_
FNDA:1,_RNCNvXs_NtCs7YQQ0vypdx3_16rhizo_crypt_core5storeNtB6_16InMemoryDagStoreNtB6_8DagStore6health0B8_
FNDA:1,_RNCNvNtNtCs7YQQ0vypdx3_16rhizo_crypt_core5store5testss_23test_dag_store_children0B7_
FNDA:1,_RNCNvNtNtCs7YQQ0vypdx3_16rhizo_crypt_core5store5testss_24test_in_memory_dag_store0B7_
FNDA:1,_RNCNvNtNtCs7YQQ0vypdx3_16rhizo_crypt_core5store5testss_28test_in_memory_payload_store0B7_
FNDA:1,_RNCNvNtNtCs7YQQ0vypdx3_16rhizo_crypt_core5store5testss_29test_dag_store_delete_session0B7_
FNDA:1,_RNCNvNtNtCs7YQQ0vypdx3_16rhizo_crypt_core5store5testss_30test_dag_store_update_frontier0B7_
FNDA:1,_RNCNvNtNtCs7YQQ0vypdx3_16rhizo_crypt_core5store5testss_31test_dag_store_health_and_stats0B7_
FNDA:1,_RNCNvNtNtCs7YQQ0vypdx3_16rhizo_crypt_core5store5testss_35test_dag_store_genesis_and_frontier0B7_
FNDA:1,_RNCNvNtNtCs7YQQ0vypdx3_16rhizo_crypt_core5store5testss_35test_payload_store_health_and_stats0B7_
FNDA:1,_RNvNtNtCs7YQQ0vypdx3_16rhizo_crypt_core5store5testss_23test_dag_store_children
FNDA:1,_RNvNtNtCs7YQQ0vypdx3_16rhizo_crypt_core5store5testss_24test_in_memory_dag_store
FNDA:1,_RNvNtNtCs7YQQ0vypdx3_16rhizo_crypt_core5store5testss_28test_in_memory_payload_store
FNDA:1,_RNvNtNtCs7YQQ0vypdx3_16rhizo_crypt_core5store5testss_29test_dag_store_delete_session
FNDA:1,_RNvNtNtCs7YQQ0vypdx3_16rhizo_crypt_core5store5testss_30test_dag_store_update_frontier
FNDA:1,_RNvNtNtCs7YQQ0vypdx3_16rhizo_crypt_core5store5testss_31test_dag_store_health_and_stats
FNDA:1,_RNvNtNtCs7YQQ0vypdx3_16rhizo_crypt_core5store5testss_35test_dag_store_genesis_and_frontier
FNDA:1,_RNvNtNtCs7YQQ0vypdx3_16rhizo_crypt_core5store5testss_35test_payload_store_health_and_stats
FNDA:3,_RNvMNtCs7YQQ0vypdx3_16rhizo_crypt_core5storeNtB2_16InMemoryDagStore13session_count
FNDA:9,_RNvMNtCs7YQQ0vypdx3_16rhizo_crypt_core5storeNtB2_16InMemoryDagStore3new
FNDA:2,_RNvMs0_NtCs7YQQ0vypdx3_16rhizo_crypt_core5storeNtB5_20InMemoryPayloadStore13payload_count
FNDA:5,_RNvMs0_NtCs7YQQ0vypdx3_16rhizo_crypt_core5storeNtB5_20InMemoryPayloadStore3new
FNDA:1,_RNvXs1_NtCs7YQQ0vypdx3_16rhizo_crypt_core5storeNtB5_20InMemoryPayloadStoreNtB5_12PayloadStore3get
FNDA:2,_RNvXs1_NtCs7YQQ0vypdx3_16rhizo_crypt_core5storeNtB5_20InMemoryPayloadStoreNtB5_12PayloadStore3put
FNDA:2,_RNvXs1_NtCs7YQQ0vypdx3_16rhizo_crypt_core5storeNtB5_20InMemoryPayloadStoreNtB5_12PayloadStore5stats
FNDA:1,_RNvXs1_NtCs7YQQ0vypdx3_16rhizo_crypt_core5storeNtB5_20InMemoryPayloadStoreNtB5_12PayloadStore6delete
FNDA:2,_RNvXs1_NtCs7YQQ0vypdx3_16rhizo_crypt_core5storeNtB5_20InMemoryPayloadStoreNtB5_12PayloadStore6exists
FNDA:1,_RNvXs1_NtCs7YQQ0vypdx3_16rhizo_crypt_core5storeNtB5_20InMemoryPayloadStoreNtB5_12PayloadStore6health
FNDA:1,_RNvXs_NtCs7YQQ0vypdx3_16rhizo_crypt_core5storeNtB4_16InMemoryDagStoreNtB4_8DagStore10get_vertex
FNDA:16,_RNvXs_NtCs7YQQ0vypdx3_16rhizo_crypt_core5storeNtB4_16InMemoryDagStoreNtB4_8DagStore10put_vertex
FNDA:2,_RNvXs_NtCs7YQQ0vypdx3_16rhizo_crypt_core5storeNtB4_16InMemoryDagStoreNtB4_8DagStore11get_genesis
FNDA:1,_RNvXs_NtCs7YQQ0vypdx3_16rhizo_crypt_core5storeNtB4_16InMemoryDagStoreNtB4_8DagStore12get_children
FNDA:3,_RNvXs_NtCs7YQQ0vypdx3_16rhizo_crypt_core5storeNtB4_16InMemoryDagStoreNtB4_8DagStore12get_frontier
FNDA:3,_RNvXs_NtCs7YQQ0vypdx3_16rhizo_crypt_core5storeNtB4_16InMemoryDagStoreNtB4_8DagStore14count_vertices
FNDA:1,_RNvXs_NtCs7YQQ0vypdx3_16rhizo_crypt_core5storeNtB4_16InMemoryDagStoreNtB4_8DagStore14delete_session
FNDA:1,_RNvXs_NtCs7YQQ0vypdx3_16rhizo_crypt_core5storeNtB4_16InMemoryDagStoreNtB4_8DagStore15update_frontier
FNDA:2,_RNvXs_NtCs7YQQ0vypdx3_16rhizo_crypt_core5storeNtB4_16InMemoryDagStoreNtB4_8DagStore5stats
FNDA:1,_RNvXs_NtCs7YQQ0vypdx3_16rhizo_crypt_core5storeNtB4_16InMemoryDagStoreNtB4_8DagStore6exists
FNDA:1,_RNvXs_NtCs7YQQ0vypdx3_16rhizo_crypt_core5storeNtB4_16InMemoryDagStoreNtB4_8DagStore6health
FNDA:2,_RNCNCNvXs_NtCsid3wTlZBOIR_16rhizo_crypt_core5storeNtB8_16InMemoryDagStoreNtB8_8DagStore10get_vertex00CscGNtvOf38BJ_15rpc_integration
FNDA:1,_RNCNCNvXs_NtCsid3wTlZBOIR_16rhizo_crypt_core5storeNtB8_16InMemoryDagStoreNtB8_8DagStore12get_children00CscGNtvOf38BJ_15rpc_integration
FNDA:1,_RNCNCNvXs_NtCsid3wTlZBOIR_16rhizo_crypt_core5storeNtB8_16InMemoryDagStoreNtB8_8DagStore12get_children0s_0CscGNtvOf38BJ_15rpc_integration
FNDA:5,_RNCNvMNtCsid3wTlZBOIR_16rhizo_crypt_core5storeNtB4_16InMemoryDagStore16get_all_vertices0CscGNtvOf38BJ_15rpc_integration
FNDA:2,_RNCNvXs_NtCsid3wTlZBOIR_16rhizo_crypt_core5storeNtB6_16InMemoryDagStoreNtB6_8DagStore10get_vertex0CscGNtvOf38BJ_15rpc_integration
FNDA:16,_RNCNvXs_NtCsid3wTlZBOIR_16rhizo_crypt_core5storeNtB6_16InMemoryDagStoreNtB6_8DagStore10put_vertex0CscGNtvOf38BJ_15rpc_integration
FNDA:1,_RNCNvXs_NtCsid3wTlZBOIR_16rhizo_crypt_core5storeNtB6_16InMemoryDagStoreNtB6_8DagStore12get_children0CscGNtvOf38BJ_15rpc_integration
FNDA:1,_RNCNvXs_NtCsid3wTlZBOIR_16rhizo_crypt_core5storeNtB6_16InMemoryDagStoreNtB6_8DagStore14delete_session0CscGNtvOf38BJ_15rpc_integration
FNF:76
FNH:67
DA:147,35
DA:148,35
DA:149,35
DA:150,35
DA:151,35
DA:152,35
DA:153,35
DA:156,3
DA:157,3
DA:158,3
DA:161,0
DA:162,0
DA:163,0
DA:164,0
DA:175,5
DA:176,5
DA:177,5
DA:178,0
DA:182,5
DA:183,5
DA:184,5
DA:185,5
DA:187,16
DA:188,11
DA:189,0
DA:190,11
DA:191,11
DA:193,11
DA:194,11
DA:195,11
DA:198,11
DA:199,0
DA:200,0
DA:201,0
DA:202,0
DA:204,11
DA:207,5
DA:208,5
DA:212,1063
DA:213,1063
DA:214,1063
DA:215,1063
DA:216,1063
DA:218,1063
DA:219,1063
DA:222,1078
DA:223,15
DA:224,15
DA:227,1063
DA:228,1049
DA:229,1049
DA:232,1078
DA:233,15
DA:234,15
DA:235,1063
DA:236,1063
DA:237,1063
DA:238,1063
DA:239,1063
DA:240,1063
DA:241,1063
DA:243,4
DA:244,4
DA:245,4
DA:246,4
DA:247,4
DA:248,4
DA:249,4
DA:250,4
DA:251,4
DA:253,0
DA:254,0
DA:255,0
DA:256,0
DA:257,0
DA:258,0
DA:259,0
DA:260,0
DA:261,0
DA:262,0
DA:263,0
DA:264,0
DA:266,1
DA:267,1
DA:268,1
DA:269,1
DA:270,1
DA:272,3
DA:273,3
DA:274,3
DA:275,3
DA:276,3
DA:277,3
DA:278,3
DA:279,3
DA:280,3
DA:281,3
DA:282,3
DA:283,3
DA:284,3
DA:286,2
DA:287,2
DA:288,2
DA:289,2
DA:290,2
DA:291,2
DA:292,2
DA:293,2
DA:295,3
DA:296,3
DA:297,3
DA:298,3
DA:299,3
DA:300,3
DA:301,3
DA:302,3
DA:304,3
DA:305,3
DA:306,3
DA:307,3
DA:308,3
DA:310,4
DA:311,4
DA:312,4
DA:313,4
DA:314,4
DA:316,1
DA:317,1
DA:318,1
DA:319,1
DA:320,1
DA:321,1
DA:322,1
DA:323,1
DA:324,1
DA:325,2
DA:326,1
DA:327,1
DA:328,1
DA:329,0
DA:330,1
DA:331,1
DA:333,1
DA:334,1
DA:335,1
DA:337,2
DA:338,2
DA:339,2
DA:340,2
DA:341,2
DA:342,2
DA:343,2
DA:344,2
DA:345,2
DA:346,2
DA:347,2
DA:348,2
DA:349,2
DA:350,2
DA:351,2
DA:352,2
DA:402,31
DA:403,31
DA:404,31
DA:405,31
DA:406,31
DA:407,31
DA:408,31
DA:411,2
DA:412,2
DA:413,2
DA:416,0
DA:417,0
DA:418,0
DA:419,0
DA:423,2
DA:424,2
DA:425,2
DA:426,2
DA:427,2
DA:428,2
DA:430,1
DA:431,1
DA:432,1
DA:433,1
DA:434,1
DA:436,2
DA:437,2
DA:438,2
DA:439,2
DA:440,2
DA:442,1
DA:443,1
DA:444,1
DA:445,1
DA:446,1
DA:448,1
DA:449,1
DA:450,1
DA:452,2
DA:453,2
DA:454,2
DA:455,2
DA:456,2
DA:457,2
DA:458,2
DA:459,2
DA:460,2
DA:461,2
DA:462,2
DA:463,2
DA:474,1
DA:475,1
DA:476,1
DA:477,1
DA:478,1
DA:479,1
DA:480,1
DA:481,1
DA:482,1
DA:483,1
DA:484,1
DA:485,1
DA:486,1
DA:487,1
DA:488,1
DA:489,1
DA:490,1
DA:491,1
DA:492,1
DA:493,1
DA:494,1
DA:495,1
DA:498,1
DA:499,1
DA:500,1
DA:501,1
DA:502,1
DA:503,1
DA:504,1
DA:505,1
DA:506,1
DA:507,1
DA:508,1
DA:509,1
DA:510,1
DA:511,1
DA:512,1
DA:513,1
DA:514,1
DA:515,1
DA:516,1
DA:517,1
DA:518,1
DA:519,1
DA:520,1
DA:521,1
DA:522,1
DA:523,1
DA:524,1
DA:525,1
DA:526,1
DA:527,1
DA:528,1
DA:529,1
DA:530,1
DA:531,1
DA:532,1
DA:533,1
DA:534,1
DA:535,1
DA:538,1
DA:539,1
DA:540,1
DA:541,1
DA:542,1
DA:543,1
DA:544,1
DA:545,1
DA:546,1
DA:547,1
DA:548,1
DA:549,4
DA:550,3
DA:551,3
DA:552,3
DA:553,3
DA:554,3
DA:555,3
DA:556,1
DA:557,1
DA:558,1
DA:559,1
DA:560,1
DA:563,1
DA:564,1
DA:565,1
DA:566,1
DA:567,1
DA:568,1
DA:569,1
DA:570,1
DA:571,1
DA:572,1
DA:573,1
DA:574,1
DA:575,1
DA:576,1
DA:577,1
DA:580,1
DA:581,1
DA:582,1
DA:583,1
DA:584,1
DA:585,6
DA:586,5
DA:587,5
DA:588,1
DA:589,1
DA:590,1
DA:591,1
DA:592,1
DA:593,1
DA:594,1
DA:595,1
DA:596,1
DA:599,1
DA:600,1
DA:601,1
DA:602,1
DA:603,1
DA:604,1
DA:605,1
DA:606,1
DA:607,1
DA:608,1
DA:609,1
DA:610,1
DA:611,1
DA:612,4
DA:613,3
DA:614,3
DA:615,1
DA:616,1
DA:617,1
DA:618,1
DA:619,1
DA:620,1
DA:621,1
DA:622,1
DA:625,1
DA:626,1
DA:627,1
DA:628,1
DA:629,1
DA:630,1
DA:631,1
DA:632,1
DA:633,1
DA:634,1
DA:635,1
DA:636,1
DA:637,1
DA:638,1
DA:639,1
DA:640,1
DA:641,1
DA:642,1
DA:645,1
DA:646,1
DA:647,1
DA:648,1
DA:649,1
DA:650,1
DA:651,1
DA:652,1
DA:653,1
DA:654,1
DA:655,1
DA:656,1
DA:657,1
DA:658,1
DA:659,1
DA:660,1
DA:661,1
DA:662,1
DA:663,1
DA:664,1
DA:665,1
BRF:0
BRH:0
LF:552
LH:519
end_of_record
SF:/home/strandgate/Development/ecoPrimals/phase2/rhizoCrypt/crates/rhizo-crypt-core/src/types.rs
FN:29,_RNvMNtCsid3wTlZBOIR_16rhizo_crypt_core5typesNtB2_8VertexId10from_bytesB4_
FN:42,_RNvMNtCsid3wTlZBOIR_16rhizo_crypt_core5typesNtB2_8VertexId6to_hex
FN:72,_RNvMs1_NtCsid3wTlZBOIR_16rhizo_crypt_core5typesNtB5_9SessionId3new
FN:66,_RNvMs1_NtCsid3wTlZBOIR_16rhizo_crypt_core5typesNtB5_9SessionId3now
FN:78,_RNvMs1_NtCsid3wTlZBOIR_16rhizo_crypt_core5typesNtB5_9SessionId7as_uuid
FN:108,_RNvMs4_NtCsid3wTlZBOIR_16rhizo_crypt_core5typesNtB5_7SliceId3new
FN:102,_RNvMs4_NtCsid3wTlZBOIR_16rhizo_crypt_core5typesNtB5_7SliceId3now
FN:137,_RNvMs7_NtCsid3wTlZBOIR_16rhizo_crypt_core5typesNtB5_10PayloadRef10from_bytes
FN:146,_RNvMs7_NtCsid3wTlZBOIR_16rhizo_crypt_core5typesNtB5_10PayloadRef3new
FN:155,_RNvMs7_NtCsid3wTlZBOIR_16rhizo_crypt_core5typesNtB5_10PayloadRef6to_hex
FN:173,_RNvMs7_NtCsid3wTlZBOIR_16rhizo_crypt_core5typesNtB5_10PayloadRef8as_bytes
FN:161,_RNvMs7_NtCsid3wTlZBOIR_16rhizo_crypt_core5typesNtB5_10PayloadRef9from_hash
FN:203,_RNvMsa_NtCsid3wTlZBOIR_16rhizo_crypt_core5typesNtB5_3Did6as_str
FN:233,_RNvMse_NtCsid3wTlZBOIR_16rhizo_crypt_core5typesNtB5_9Signature3new
FN:239,_RNvMse_NtCsid3wTlZBOIR_16rhizo_crypt_core5typesNtB5_9Signature8as_bytes
FN:272,_RNvMsg_NtCsid3wTlZBOIR_16rhizo_crypt_core5typesNtB5_9Timestamp10from_nanosB7_
FN:261,_RNvMsg_NtCsid3wTlZBOIR_16rhizo_crypt_core5typesNtB5_9Timestamp3nowB7_
FN:279,_RNvMsg_NtCsid3wTlZBOIR_16rhizo_crypt_core5typesNtB5_9Timestamp8as_nanosB7_
FN:304,_RNvNtCsid3wTlZBOIR_16rhizo_crypt_core5types10hex_encode
FN:317,_RNvNtCsid3wTlZBOIR_16rhizo_crypt_core5types9hash_pairB3_
FN:54,_RNvXs0_NtCsid3wTlZBOIR_16rhizo_crypt_core5typesNtB5_8VertexIdNtNtCs9sjCchOt1K7_4core3fmt7Display3fmt
FN:84,_RNvXs2_NtCsid3wTlZBOIR_16rhizo_crypt_core5typesNtB5_9SessionIdNtNtCs9sjCchOt1K7_4core3fmt5Debug3fmt
FN:90,_RNvXs3_NtCsid3wTlZBOIR_16rhizo_crypt_core5typesNtB5_9SessionIdNtNtCs9sjCchOt1K7_4core3fmt7Display3fmt
FN:114,_RNvXs5_NtCsid3wTlZBOIR_16rhizo_crypt_core5typesNtB5_7SliceIdNtNtCs9sjCchOt1K7_4core3fmt5Debug3fmt
FN:120,_RNvXs6_NtCsid3wTlZBOIR_16rhizo_crypt_core5typesNtB5_7SliceIdNtNtCs9sjCchOt1K7_4core3fmt7Display3fmt
FN:179,_RNvXs8_NtCsid3wTlZBOIR_16rhizo_crypt_core5typesNtB5_10PayloadRefNtNtCs9sjCchOt1K7_4core3fmt5Debug3fmt
FN:185,_RNvXs9_NtCsid3wTlZBOIR_16rhizo_crypt_core5typesNtB5_10PayloadRefNtNtCs9sjCchOt1K7_4core3fmt7Display3fmt
FN:48,_RNvXs_NtCsid3wTlZBOIR_16rhizo_crypt_core5typesNtB4_8VertexIdNtNtCs9sjCchOt1K7_4core3fmt5Debug3fmt
FN:209,_RNvXsb_NtCsid3wTlZBOIR_16rhizo_crypt_core5typesNtB5_3DidNtNtCs9sjCchOt1K7_4core3fmt5Debug3fmt
FN:215,_RNvXsc_NtCsid3wTlZBOIR_16rhizo_crypt_core5typesNtB5_3DidNtNtCs9sjCchOt1K7_4core3fmt7Display3fmt
FN:221,_RNvXsd_NtCsid3wTlZBOIR_16rhizo_crypt_core5typesNtB5_3DidNtNtCs9sjCchOt1K7_4core7default7Default7default
FN:245,_RNvXsf_NtCsid3wTlZBOIR_16rhizo_crypt_core5typesNtB5_9SignatureNtNtCs9sjCchOt1K7_4core3fmt5Debug3fmt
FN:292,_RNvXsh_NtCsid3wTlZBOIR_16rhizo_crypt_core5typesNtB5_9TimestampNtNtCs9sjCchOt1K7_4core3fmt5Debug3fmt
FN:298,_RNvXsi_NtCsid3wTlZBOIR_16rhizo_crypt_core5typesNtB5_9TimestampNtNtCs9sjCchOt1K7_4core3fmt7Display3fmt
FN:264,_RNCNvMsg_NtCsid3wTlZBOIR_16rhizo_crypt_core5typesNtB7_9Timestamp3now0B9_
FN:306,_RNCNvNtCsid3wTlZBOIR_16rhizo_crypt_core5types10hex_encode0B5_
FN:197,_RINvMsa_NtCsid3wTlZBOIR_16rhizo_crypt_core5typesNtB6_3Did3newpEB8_
FN:22,_RNvMNtCsid3wTlZBOIR_16rhizo_crypt_core5typesNtB2_8VertexId3newB4_
FN:36,_RNvMNtCsid3wTlZBOIR_16rhizo_crypt_core5typesNtB2_8VertexId8as_bytesB4_
FN:286,_RNvMsg_NtCsid3wTlZBOIR_16rhizo_crypt_core5typesNtB5_9Timestamp7as_secsB7_
FN:29,_RNvMNtCsid3wTlZBOIR_16rhizo_crypt_core5typesNtB2_8VertexId10from_bytesCs6Xsx8PfdSt5_14property_tests
FN:22,_RNvMNtCsid3wTlZBOIR_16rhizo_crypt_core5typesNtB2_8VertexId3newCs6Xsx8PfdSt5_14property_tests
FN:36,_RNvMNtCsid3wTlZBOIR_16rhizo_crypt_core5typesNtB2_8VertexId8as_bytesCs6Xsx8PfdSt5_14property_tests
FN:272,_RNvMsg_NtCsid3wTlZBOIR_16rhizo_crypt_core5typesNtB5_9Timestamp10from_nanosCs6Xsx8PfdSt5_14property_tests
FN:261,_RNvMsg_NtCsid3wTlZBOIR_16rhizo_crypt_core5typesNtB5_9Timestamp3nowCs6Xsx8PfdSt5_14property_tests
FN:279,_RNvMsg_NtCsid3wTlZBOIR_16rhizo_crypt_core5typesNtB5_9Timestamp8as_nanosCs6Xsx8PfdSt5_14property_tests
FN:22,_RNvMNtCs7YQQ0vypdx3_16rhizo_crypt_core5typesNtB2_8VertexId3newB4_
FN:72,_RNvMs1_NtCs7YQQ0vypdx3_16rhizo_crypt_core5typesNtB5_9SessionId3new
FN:78,_RNvMs1_NtCs7YQQ0vypdx3_16rhizo_crypt_core5typesNtB5_9SessionId7as_uuid
FN:108,_RNvMs4_NtCs7YQQ0vypdx3_16rhizo_crypt_core5typesNtB5_7SliceId3new
FN:146,_RNvMs7_NtCs7YQQ0vypdx3_16rhizo_crypt_core5typesNtB5_10PayloadRef3new
FN:120,_RNvXs6_NtCs7YQQ0vypdx3_16rhizo_crypt_core5typesNtB5_7SliceIdNtNtCs9sjCchOt1K7_4core3fmt7Display3fmt
FN:179,_RNvXs8_NtCs7YQQ0vypdx3_16rhizo_crypt_core5typesNtB5_10PayloadRefNtNtCs9sjCchOt1K7_4core3fmt5Debug3fmt
FN:215,_RNvXsc_NtCs7YQQ0vypdx3_16rhizo_crypt_core5typesNtB5_3DidNtNtCs9sjCchOt1K7_4core3fmt7Display3fmt
FN:245,_RNvXsf_NtCs7YQQ0vypdx3_16rhizo_crypt_core5typesNtB5_9SignatureNtNtCs9sjCchOt1K7_4core3fmt5Debug3fmt
FN:298,_RNvXsi_NtCs7YQQ0vypdx3_16rhizo_crypt_core5typesNtB5_9TimestampNtNtCs9sjCchOt1K7_4core3fmt7Display3fmt
FN:362,_RNvNtNtCs7YQQ0vypdx3_16rhizo_crypt_core5types5testss_14test_hash_pair
FN:355,_RNvNtNtCs7YQQ0vypdx3_16rhizo_crypt_core5types5testss_14test_timestamp
FN:330,_RNvNtNtCs7YQQ0vypdx3_16rhizo_crypt_core5types5testss_14test_vertex_id
FN:342,_RNvNtNtCs7YQQ0vypdx3_16rhizo_crypt_core5types5testss_15test_session_id
FN:348,_RNvNtNtCs7YQQ0vypdx3_16rhizo_crypt_core5types5testss_16test_payload_ref
FN:337,_RNvNtNtCs7YQQ0vypdx3_16rhizo_crypt_core5types5testss_19test_vertex_id_zero
FN:371,_RNvNtNtCs7YQQ0vypdx3_16rhizo_crypt_core5types5testss_8test_did
FN:197,_RINvMsa_NtCs7YQQ0vypdx3_16rhizo_crypt_core5typesNtB6_3Did3newReEB8_
FN:264,_RNCNvMsg_NtCs7YQQ0vypdx3_16rhizo_crypt_core5typesNtB7_9Timestamp3now0B9_
FN:306,_RNCNvNtCs7YQQ0vypdx3_16rhizo_crypt_core5types10hex_encode0B5_
FN:29,_RNvMNtCs7YQQ0vypdx3_16rhizo_crypt_core5typesNtB2_8VertexId10from_bytesB4_
FN:42,_RNvMNtCs7YQQ0vypdx3_16rhizo_crypt_core5typesNtB2_8VertexId6to_hex
FN:36,_RNvMNtCs7YQQ0vypdx3_16rhizo_crypt_core5typesNtB2_8VertexId8as_bytesB4_
FN:66,_RNvMs1_NtCs7YQQ0vypdx3_16rhizo_crypt_core5typesNtB5_9SessionId3now
FN:102,_RNvMs4_NtCs7YQQ0vypdx3_16rhizo_crypt_core5typesNtB5_7SliceId3now
FN:137,_RNvMs7_NtCs7YQQ0vypdx3_16rhizo_crypt_core5typesNtB5_10PayloadRef10from_bytes
FN:155,_RNvMs7_NtCs7YQQ0vypdx3_16rhizo_crypt_core5typesNtB5_10PayloadRef6to_hex
FN:173,_RNvMs7_NtCs7YQQ0vypdx3_16rhizo_crypt_core5typesNtB5_10PayloadRef8as_bytes
FN:161,_RNvMs7_NtCs7YQQ0vypdx3_16rhizo_crypt_core5typesNtB5_10PayloadRef9from_hash
FN:203,_RNvMsa_NtCs7YQQ0vypdx3_16rhizo_crypt_core5typesNtB5_3Did6as_str
FN:233,_RNvMse_NtCs7YQQ0vypdx3_16rhizo_crypt_core5typesNtB5_9Signature3new
FN:239,_RNvMse_NtCs7YQQ0vypdx3_16rhizo_crypt_core5typesNtB5_9Signature8as_bytes
FN:272,_RNvMsg_NtCs7YQQ0vypdx3_16rhizo_crypt_core5typesNtB5_9Timestamp10from_nanosB7_
FN:261,_RNvMsg_NtCs7YQQ0vypdx3_16rhizo_crypt_core5typesNtB5_9Timestamp3nowB7_
FN:286,_RNvMsg_NtCs7YQQ0vypdx3_16rhizo_crypt_core5typesNtB5_9Timestamp7as_secsB7_
FN:279,_RNvMsg_NtCs7YQQ0vypdx3_16rhizo_crypt_core5typesNtB5_9Timestamp8as_nanosB7_
FN:304,_RNvNtCs7YQQ0vypdx3_16rhizo_crypt_core5types10hex_encode
FN:317,_RNvNtCs7YQQ0vypdx3_16rhizo_crypt_core5types9hash_pairB3_
FN:54,_RNvXs0_NtCs7YQQ0vypdx3_16rhizo_crypt_core5typesNtB5_8VertexIdNtNtCs9sjCchOt1K7_4core3fmt7Display3fmt
FN:84,_RNvXs2_NtCs7YQQ0vypdx3_16rhizo_crypt_core5typesNtB5_9SessionIdNtNtCs9sjCchOt1K7_4core3fmt5Debug3fmt
FN:90,_RNvXs3_NtCs7YQQ0vypdx3_16rhizo_crypt_core5typesNtB5_9SessionIdNtNtCs9sjCchOt1K7_4core3fmt7Display3fmt
FN:114,_RNvXs5_NtCs7YQQ0vypdx3_16rhizo_crypt_core5typesNtB5_7SliceIdNtNtCs9sjCchOt1K7_4core3fmt5Debug3fmt
FN:185,_RNvXs9_NtCs7YQQ0vypdx3_16rhizo_crypt_core5typesNtB5_10PayloadRefNtNtCs9sjCchOt1K7_4core3fmt7Display3fmt
FN:48,_RNvXs_NtCs7YQQ0vypdx3_16rhizo_crypt_core5typesNtB4_8VertexIdNtNtCs9sjCchOt1K7_4core3fmt5Debug3fmt
FN:209,_RNvXsb_NtCs7YQQ0vypdx3_16rhizo_crypt_core5typesNtB5_3DidNtNtCs9sjCchOt1K7_4core3fmt5Debug3fmt
FN:221,_RNvXsd_NtCs7YQQ0vypdx3_16rhizo_crypt_core5typesNtB5_3DidNtNtCs9sjCchOt1K7_4core7default7Default7default
FN:292,_RNvXsh_NtCs7YQQ0vypdx3_16rhizo_crypt_core5typesNtB5_9TimestampNtNtCs9sjCchOt1K7_4core3fmt5Debug3fmt
FN:261,_RNvMsg_NtCsid3wTlZBOIR_16rhizo_crypt_core5typesNtB5_9Timestamp3nowCscGNtvOf38BJ_15rpc_integration
FNDA:10847,_RNvMNtCsid3wTlZBOIR_16rhizo_crypt_core5typesNtB2_8VertexId10from_bytesB4_
FNDA:2002,_RNvMNtCsid3wTlZBOIR_16rhizo_crypt_core5typesNtB2_8VertexId6to_hex
FNDA:0,_RNvMs1_NtCsid3wTlZBOIR_16rhizo_crypt_core5typesNtB5_9SessionId3new
FNDA:1332,_RNvMs1_NtCsid3wTlZBOIR_16rhizo_crypt_core5typesNtB5_9SessionId3now
FNDA:0,_RNvMs1_NtCsid3wTlZBOIR_16rhizo_crypt_core5typesNtB5_9SessionId7as_uuid
FNDA:0,_RNvMs4_NtCsid3wTlZBOIR_16rhizo_crypt_core5typesNtB5_7SliceId3new
FNDA:1,_RNvMs4_NtCsid3wTlZBOIR_16rhizo_crypt_core5typesNtB5_7SliceId3now
FNDA:0,_RNvMs7_NtCsid3wTlZBOIR_16rhizo_crypt_core5typesNtB5_10PayloadRef10from_bytes
FNDA:0,_RNvMs7_NtCsid3wTlZBOIR_16rhizo_crypt_core5typesNtB5_10PayloadRef3new
FNDA:0,_RNvMs7_NtCsid3wTlZBOIR_16rhizo_crypt_core5typesNtB5_10PayloadRef6to_hex
FNDA:0,_RNvMs7_NtCsid3wTlZBOIR_16rhizo_crypt_core5typesNtB5_10PayloadRef8as_bytes
FNDA:514,_RNvMs7_NtCsid3wTlZBOIR_16rhizo_crypt_core5typesNtB5_10PayloadRef9from_hash
FNDA:0,_RNvMsa_NtCsid3wTlZBOIR_16rhizo_crypt_core5typesNtB5_3Did6as_str
FNDA:257,_RNvMse_NtCsid3wTlZBOIR_16rhizo_crypt_core5typesNtB5_9Signature3new
FNDA:257,_RNvMse_NtCsid3wTlZBOIR_16rhizo_crypt_core5typesNtB5_9Signature8as_bytes
FNDA:0,_RNvMsg_NtCsid3wTlZBOIR_16rhizo_crypt_core5typesNtB5_9Timestamp10from_nanosB7_
FNDA:7941,_RNvMsg_NtCsid3wTlZBOIR_16rhizo_crypt_core5typesNtB5_9Timestamp3nowB7_
FNDA:0,_RNvMsg_NtCsid3wTlZBOIR_16rhizo_crypt_core5typesNtB5_9Timestamp8as_nanosB7_
FNDA:2002,_RNvNtCsid3wTlZBOIR_16rhizo_crypt_core5types10hex_encode
FNDA:10137,_RNvNtCsid3wTlZBOIR_16rhizo_crypt_core5types9hash_pairB3_
FNDA:1001,_RNvXs0_NtCsid3wTlZBOIR_16rhizo_crypt_core5typesNtB5_8VertexIdNtNtCs9sjCchOt1K7_4core3fmt7Display3fmt
FNDA:0,_RNvXs2_NtCsid3wTlZBOIR_16rhizo_crypt_core5typesNtB5_9SessionIdNtNtCs9sjCchOt1K7_4core3fmt5Debug3fmt
FNDA:0,_RNvXs3_NtCsid3wTlZBOIR_16rhizo_crypt_core5typesNtB5_9SessionIdNtNtCs9sjCchOt1K7_4core3fmt7Display3fmt
FNDA:0,_RNvXs5_NtCsid3wTlZBOIR_16rhizo_crypt_core5typesNtB5_7SliceIdNtNtCs9sjCchOt1K7_4core3fmt5Debug3fmt
FNDA:0,_RNvXs6_NtCsid3wTlZBOIR_16rhizo_crypt_core5typesNtB5_7SliceIdNtNtCs9sjCchOt1K7_4core3fmt7Display3fmt
FNDA:0,_RNvXs8_NtCsid3wTlZBOIR_16rhizo_crypt_core5typesNtB5_10PayloadRefNtNtCs9sjCchOt1K7_4core3fmt5Debug3fmt
FNDA:0,_RNvXs9_NtCsid3wTlZBOIR_16rhizo_crypt_core5typesNtB5_10PayloadRefNtNtCs9sjCchOt1K7_4core3fmt7Display3fmt
FNDA:0,_RNvXs_NtCsid3wTlZBOIR_16rhizo_crypt_core5typesNtB4_8VertexIdNtNtCs9sjCchOt1K7_4core3fmt5Debug3fmt
FNDA:0,_RNvXsb_NtCsid3wTlZBOIR_16rhizo_crypt_core5typesNtB5_3DidNtNtCs9sjCchOt1K7_4core3fmt5Debug3fmt
FNDA:0,_RNvXsc_NtCsid3wTlZBOIR_16rhizo_crypt_core5typesNtB5_3DidNtNtCs9sjCchOt1K7_4core3fmt7Display3fmt
FNDA:847,_RNvXsd_NtCsid3wTlZBOIR_16rhizo_crypt_core5typesNtB5_3DidNtNtCs9sjCchOt1K7_4core7default7Default7default
FNDA:0,_RNvXsf_NtCsid3wTlZBOIR_16rhizo_crypt_core5typesNtB5_9SignatureNtNtCs9sjCchOt1K7_4core3fmt5Debug3fmt
FNDA:0,_RNvXsh_NtCsid3wTlZBOIR_16rhizo_crypt_core5typesNtB5_9TimestampNtNtCs9sjCchOt1K7_4core3fmt5Debug3fmt
FNDA:0,_RNvXsi_NtCsid3wTlZBOIR_16rhizo_crypt_core5typesNtB5_9TimestampNtNtCs9sjCchOt1K7_4core3fmt7Display3fmt
FNDA:8455,_RNCNvMsg_NtCsid3wTlZBOIR_16rhizo_crypt_core5typesNtB7_9Timestamp3now0B9_
FNDA:64064,_RNCNvNtCsid3wTlZBOIR_16rhizo_crypt_core5types10hex_encode0B5_
FNDA:0,_RINvMsa_NtCsid3wTlZBOIR_16rhizo_crypt_core5typesNtB6_3Did3newpEB8_
FNDA:0,_RNvMNtCsid3wTlZBOIR_16rhizo_crypt_core5typesNtB2_8VertexId3newB4_
FNDA:0,_RNvMNtCsid3wTlZBOIR_16rhizo_crypt_core5typesNtB2_8VertexId8as_bytesB4_
FNDA:0,_RNvMsg_NtCsid3wTlZBOIR_16rhizo_crypt_core5typesNtB5_9Timestamp7as_secsB7_
FNDA:5005,_RNvMNtCsid3wTlZBOIR_16rhizo_crypt_core5typesNtB2_8VertexId10from_bytesCs6Xsx8PfdSt5_14property_tests
FNDA:501,_RNvMNtCsid3wTlZBOIR_16rhizo_crypt_core5typesNtB2_8VertexId3newCs6Xsx8PfdSt5_14property_tests
FNDA:257,_RNvMNtCsid3wTlZBOIR_16rhizo_crypt_core5typesNtB2_8VertexId8as_bytesCs6Xsx8PfdSt5_14property_tests
FNDA:257,_RNvMsg_NtCsid3wTlZBOIR_16rhizo_crypt_core5typesNtB5_9Timestamp10from_nanosCs6Xsx8PfdSt5_14property_tests
FNDA:514,_RNvMsg_NtCsid3wTlZBOIR_16rhizo_crypt_core5typesNtB5_9Timestamp3nowCs6Xsx8PfdSt5_14property_tests
FNDA:771,_RNvMsg_NtCsid3wTlZBOIR_16rhizo_crypt_core5typesNtB5_9Timestamp8as_nanosCs6Xsx8PfdSt5_14property_tests
FNDA:0,_RNvMNtCs7YQQ0vypdx3_16rhizo_crypt_core5typesNtB2_8VertexId3newB4_
FNDA:0,_RNvMs1_NtCs7YQQ0vypdx3_16rhizo_crypt_core5typesNtB5_9SessionId3new
FNDA:0,_RNvMs1_NtCs7YQQ0vypdx3_16rhizo_crypt_core5typesNtB5_9SessionId7as_uuid
FNDA:0,_RNvMs4_NtCs7YQQ0vypdx3_16rhizo_crypt_core5typesNtB5_7SliceId3new
FNDA:0,_RNvMs7_NtCs7YQQ0vypdx3_16rhizo_crypt_core5typesNtB5_10PayloadRef3new
FNDA:0,_RNvXs6_NtCs7YQQ0vypdx3_16rhizo_crypt_core5typesNtB5_7SliceIdNtNtCs9sjCchOt1K7_4core3fmt7Display3fmt
FNDA:0,_RNvXs8_NtCs7YQQ0vypdx3_16rhizo_crypt_core5typesNtB5_10PayloadRefNtNtCs9sjCchOt1K7_4core3fmt5Debug3fmt
FNDA:0,_RNvXsc_NtCs7YQQ0vypdx3_16rhizo_crypt_core5typesNtB5_3DidNtNtCs9sjCchOt1K7_4core3fmt7Display3fmt
FNDA:0,_RNvXsf_NtCs7YQQ0vypdx3_16rhizo_crypt_core5typesNtB5_9SignatureNtNtCs9sjCchOt1K7_4core3fmt5Debug3fmt
FNDA:0,_RNvXsi_NtCs7YQQ0vypdx3_16rhizo_crypt_core5typesNtB5_9TimestampNtNtCs9sjCchOt1K7_4core3fmt7Display3fmt
FNDA:1,_RNvNtNtCs7YQQ0vypdx3_16rhizo_crypt_core5types5testss_14test_hash_pair
FNDA:1,_RNvNtNtCs7YQQ0vypdx3_16rhizo_crypt_core5types5testss_14test_timestamp
FNDA:1,_RNvNtNtCs7YQQ0vypdx3_16rhizo_crypt_core5types5testss_14test_vertex_id
FNDA:1,_RNvNtNtCs7YQQ0vypdx3_16rhizo_crypt_core5types5testss_15test_session_id
FNDA:1,_RNvNtNtCs7YQQ0vypdx3_16rhizo_crypt_core5types5testss_16test_payload_ref
FNDA:1,_RNvNtNtCs7YQQ0vypdx3_16rhizo_crypt_core5types5testss_19test_vertex_id_zero
FNDA:1,_RNvNtNtCs7YQQ0vypdx3_16rhizo_crypt_core5types5testss_8test_did
FNDA:13,_RINvMsa_NtCs7YQQ0vypdx3_16rhizo_crypt_core5typesNtB6_3Did3newReEB8_
FNDA:49,_RNCNvMsg_NtCs7YQQ0vypdx3_16rhizo_crypt_core5typesNtB7_9Timestamp3now0B9_
FNDA:256,_RNCNvNtCs7YQQ0vypdx3_16rhizo_crypt_core5types10hex_encode0B5_
FNDA:111,_RNvMNtCs7YQQ0vypdx3_16rhizo_crypt_core5typesNtB2_8VertexId10from_bytesB4_
FNDA:1,_RNvMNtCs7YQQ0vypdx3_16rhizo_crypt_core5typesNtB2_8VertexId6to_hex
FNDA:1,_RNvMNtCs7YQQ0vypdx3_16rhizo_crypt_core5typesNtB2_8VertexId8as_bytesB4_
FNDA:23,_RNvMs1_NtCs7YQQ0vypdx3_16rhizo_crypt_core5typesNtB5_9SessionId3now
FNDA:1,_RNvMs4_NtCs7YQQ0vypdx3_16rhizo_crypt_core5typesNtB5_7SliceId3now
FNDA:9,_RNvMs7_NtCs7YQQ0vypdx3_16rhizo_crypt_core5typesNtB5_10PayloadRef10from_bytes
FNDA:7,_RNvMs7_NtCs7YQQ0vypdx3_16rhizo_crypt_core5typesNtB5_10PayloadRef6to_hex
FNDA:1,_RNvMs7_NtCs7YQQ0vypdx3_16rhizo_crypt_core5typesNtB5_10PayloadRef8as_bytes
FNDA:4,_RNvMs7_NtCs7YQQ0vypdx3_16rhizo_crypt_core5typesNtB5_10PayloadRef9from_hash
FNDA:4,_RNvMsa_NtCs7YQQ0vypdx3_16rhizo_crypt_core5typesNtB5_3Did6as_str
FNDA:2,_RNvMse_NtCs7YQQ0vypdx3_16rhizo_crypt_core5typesNtB5_9Signature3new
FNDA:2,_RNvMse_NtCs7YQQ0vypdx3_16rhizo_crypt_core5typesNtB5_9Signature8as_bytes
FNDA:32,_RNvMsg_NtCs7YQQ0vypdx3_16rhizo_crypt_core5typesNtB5_9Timestamp10from_nanosB7_
FNDA:49,_RNvMsg_NtCs7YQQ0vypdx3_16rhizo_crypt_core5typesNtB5_9Timestamp3nowB7_
FNDA:1,_RNvMsg_NtCs7YQQ0vypdx3_16rhizo_crypt_core5typesNtB5_9Timestamp7as_secsB7_
FNDA:8,_RNvMsg_NtCs7YQQ0vypdx3_16rhizo_crypt_core5typesNtB5_9Timestamp8as_nanosB7_
FNDA:8,_RNvNtCs7YQQ0vypdx3_16rhizo_crypt_core5types10hex_encode
FNDA:65,_RNvNtCs7YQQ0vypdx3_16rhizo_crypt_core5types9hash_pairB3_
FNDA:0,_RNvXs0_NtCs7YQQ0vypdx3_16rhizo_crypt_core5typesNtB5_8VertexIdNtNtCs9sjCchOt1K7_4core3fmt7Display3fmt
FNDA:0,_RNvXs2_NtCs7YQQ0vypdx3_16rhizo_crypt_core5typesNtB5_9SessionIdNtNtCs9sjCchOt1K7_4core3fmt5Debug3fmt
FNDA:1,_RNvXs3_NtCs7YQQ0vypdx3_16rhizo_crypt_core5typesNtB5_9SessionIdNtNtCs9sjCchOt1K7_4core3fmt7Display3fmt
FNDA:0,_RNvXs5_NtCs7YQQ0vypdx3_16rhizo_crypt_core5typesNtB5_7SliceIdNtNtCs9sjCchOt1K7_4core3fmt5Debug3fmt
FNDA:7,_RNvXs9_NtCs7YQQ0vypdx3_16rhizo_crypt_core5typesNtB5_10PayloadRefNtNtCs9sjCchOt1K7_4core3fmt7Display3fmt
FNDA:0,_RNvXs_NtCs7YQQ0vypdx3_16rhizo_crypt_core5typesNtB4_8VertexIdNtNtCs9sjCchOt1K7_4core3fmt5Debug3fmt
FNDA:0,_RNvXsb_NtCs7YQQ0vypdx3_16rhizo_crypt_core5typesNtB5_3DidNtNtCs9sjCchOt1K7_4core3fmt5Debug3fmt
FNDA:10,_RNvXsd_NtCs7YQQ0vypdx3_16rhizo_crypt_core5typesNtB5_3DidNtNtCs9sjCchOt1K7_4core7default7Default7default
FNDA:0,_RNvXsh_NtCs7YQQ0vypdx3_16rhizo_crypt_core5typesNtB5_9TimestampNtNtCs9sjCchOt1K7_4core3fmt5Debug3fmt
FNDA:0,_RNvMsg_NtCsid3wTlZBOIR_16rhizo_crypt_core5typesNtB5_9Timestamp3nowCscGNtvOf38BJ_15rpc_integration
FNF:47
FNH:33
DA:22,501
DA:23,501
DA:24,501
DA:29,15963
DA:30,15963
DA:31,15963
DA:36,258
DA:37,258
DA:38,258
DA:42,2003
DA:43,2003
DA:44,2003
DA:48,0
DA:49,0
DA:50,0
DA:54,1001
DA:55,1001
DA:56,1001
DA:66,1355
DA:67,1355
DA:68,1355
DA:72,0
DA:73,0
DA:74,0
DA:78,0
DA:79,0
DA:80,0
DA:84,0
DA:85,0
DA:86,0
DA:90,1
DA:91,1
DA:92,1
DA:102,2
DA:103,2
DA:104,2
DA:108,0
DA:109,0
DA:110,0
DA:114,0
DA:115,0
DA:116,0
DA:120,0
DA:121,0
DA:122,0
DA:137,9
DA:138,9
DA:139,9
DA:140,9
DA:141,9
DA:142,9
DA:146,0
DA:147,0
DA:148,0
DA:149,0
DA:150,0
DA:151,0
DA:155,7
DA:156,7
DA:157,7
DA:161,518
DA:162,518
DA:163,518
DA:164,518
DA:165,518
DA:166,518
DA:167,518
DA:168,518
DA:169,518
DA:173,1
DA:174,1
DA:175,1
DA:179,0
DA:180,0
DA:181,0
DA:185,7
DA:186,7
DA:187,7
DA:197,13
DA:198,13
DA:199,13
DA:203,4
DA:204,4
DA:205,4
DA:209,0
DA:210,0
DA:211,0
DA:215,0
DA:216,0
DA:217,0
DA:221,857
DA:222,857
DA:223,857
DA:233,259
DA:234,259
DA:235,259
DA:239,259
DA:240,259
DA:241,259
DA:245,0
DA:246,0
DA:247,0
DA:261,8504
DA:262,8504
DA:263,8504
DA:264,8504
DA:265,8504
DA:266,8504
DA:267,8504
DA:272,289
DA:273,289
DA:274,289
DA:279,779
DA:280,779
DA:281,779
DA:286,1
DA:287,1
DA:288,1
DA:292,0
DA:293,0
DA:294,0
DA:298,0
DA:299,0
DA:300,0
DA:304,2010
DA:306,64320
DA:307,64320
DA:308,64320
DA:309,64320
DA:310,2010
DA:317,10202
DA:318,10202
DA:319,10202
DA:320,10202
DA:321,10202
DA:322,10202
DA:330,1
DA:331,1
DA:332,1
DA:333,1
DA:334,1
DA:337,1
DA:338,1
DA:339,1
DA:342,1
DA:343,1
DA:344,1
DA:345,1
DA:348,1
DA:349,1
DA:350,1
DA:351,1
DA:352,1
DA:355,1
DA:356,1
DA:357,1
DA:358,1
DA:359,1
DA:362,1
DA:363,1
DA:364,1
DA:365,1
DA:366,1
DA:367,1
DA:368,1
DA:371,1
DA:372,1
DA:373,1
DA:374,1
BRF:0
BRH:0
LF:172
LH:127
end_of_record
SF:/home/strandgate/Development/ecoPrimals/phase2/rhizoCrypt/crates/rhizo-crypt-core/src/vertex.rs
FN:46,_RNvMNtCsid3wTlZBOIR_16rhizo_crypt_core6vertexNtB2_6Vertex10compute_id
FN:95,_RNvMNtCsid3wTlZBOIR_16rhizo_crypt_core6vertexNtB2_6Vertex10is_genesis
FN:107,_RNvMNtCsid3wTlZBOIR_16rhizo_crypt_core6vertexNtB2_6Vertex12get_metadata
FN:74,_RNvMNtCsid3wTlZBOIR_16rhizo_crypt_core6vertexNtB2_6Vertex18to_canonical_bytes
FN:52,_RNvMNtCsid3wTlZBOIR_16rhizo_crypt_core6vertexNtB2_6Vertex2id
FN:64,_RNvMNtCsid3wTlZBOIR_16rhizo_crypt_core6vertexNtB2_6Vertex9cached_id
FN:101,_RNvMNtCsid3wTlZBOIR_16rhizo_crypt_core6vertexNtB2_6Vertex9is_signed
FN:225,_RNvMs4_NtCsid3wTlZBOIR_16rhizo_crypt_core6vertexNtB5_13VertexBuilder10with_agent
FN:204,_RNvMs4_NtCsid3wTlZBOIR_16rhizo_crypt_core6vertexNtB5_13VertexBuilder11with_parent
FN:232,_RNvMs4_NtCsid3wTlZBOIR_16rhizo_crypt_core6vertexNtB5_13VertexBuilder12with_payload
FN:218,_RNvMs4_NtCsid3wTlZBOIR_16rhizo_crypt_core6vertexNtB5_13VertexBuilder14with_timestamp
FN:191,_RNvMs4_NtCsid3wTlZBOIR_16rhizo_crypt_core6vertexNtB5_13VertexBuilder3new
FN:250,_RNvMs4_NtCsid3wTlZBOIR_16rhizo_crypt_core6vertexNtB5_13VertexBuilder5build
FN:154,_RNvXs0_NtCsid3wTlZBOIR_16rhizo_crypt_core6vertexNtB5_13MetadataValueINtNtCs9sjCchOt1K7_4core7convert4FromxE4from
FN:160,_RNvXs1_NtCsid3wTlZBOIR_16rhizo_crypt_core6vertexNtB5_13MetadataValueINtNtCs9sjCchOt1K7_4core7convert4FromdE4from
FN:166,_RNvXs2_NtCsid3wTlZBOIR_16rhizo_crypt_core6vertexNtB5_13MetadataValueINtNtCs9sjCchOt1K7_4core7convert4FromNtNtCs6bBekJvxEMJ_5alloc6string6StringE4from
FN:172,_RNvXs3_NtCsid3wTlZBOIR_16rhizo_crypt_core6vertexNtB5_13MetadataValueINtNtCs9sjCchOt1K7_4core7convert4FromReE4from
FN:148,_RNvXs_NtCsid3wTlZBOIR_16rhizo_crypt_core6vertexNtB4_13MetadataValueINtNtCs9sjCchOt1K7_4core7convert4FrombE4from
FN:211,_RINvMs4_NtCsid3wTlZBOIR_16rhizo_crypt_core6vertexNtB6_13VertexBuilder12with_parentspEB8_
FN:239,_RINvMs4_NtCsid3wTlZBOIR_16rhizo_crypt_core6vertexNtB6_13VertexBuilder13with_metadatappEB8_
FN:239,_RINvMs4_NtCsid3wTlZBOIR_16rhizo_crypt_core6vertexNtB6_13VertexBuilder13with_metadataReB1k_ECsPnv9z7ECKg_9e2e_tests
FN:239,_RINvMs4_NtCsid3wTlZBOIR_16rhizo_crypt_core6vertexNtB6_13VertexBuilder13with_metadataReB1k_ECs6Xsx8PfdSt5_14property_tests
FN:239,_RINvMs4_NtCsid3wTlZBOIR_16rhizo_crypt_core6vertexNtB6_13VertexBuilder13with_metadataReNtNtCs6bBekJvxEMJ_5alloc6string6StringECs6Xsx8PfdSt5_14property_tests
FN:211,_RINvMs4_NtCs7YQQ0vypdx3_16rhizo_crypt_core6vertexNtB6_13VertexBuilder12with_parentspEB8_
FN:232,_RNvMs4_NtCs7YQQ0vypdx3_16rhizo_crypt_core6vertexNtB5_13VertexBuilder12with_payload
FN:166,_RNvXs2_NtCs7YQQ0vypdx3_16rhizo_crypt_core6vertexNtB5_13MetadataValueINtNtCs9sjCchOt1K7_4core7convert4FromNtNtCs6bBekJvxEMJ_5alloc6string6StringE4from
FN:239,_RINvMs4_NtCs7YQQ0vypdx3_16rhizo_crypt_core6vertexNtB6_13VertexBuilder13with_metadataReB1k_EB8_
FN:239,_RINvMs4_NtCs7YQQ0vypdx3_16rhizo_crypt_core6vertexNtB6_13VertexBuilder13with_metadataRexEB8_
FN:270,_RNvNtNtCs7YQQ0vypdx3_16rhizo_crypt_core6vertex5testss_19test_vertex_builder
FN:327,_RNvNtNtCs7YQQ0vypdx3_16rhizo_crypt_core6vertex5testss_24test_metadata_value_from
FN:283,_RNvNtNtCs7YQQ0vypdx3_16rhizo_crypt_core6vertex5testss_24test_vertex_with_parents
FN:297,_RNvNtNtCs7YQQ0vypdx3_16rhizo_crypt_core6vertex5testss_26test_vertex_id_computation
FN:311,_RNvNtNtCs7YQQ0vypdx3_16rhizo_crypt_core6vertex5testss_27test_vertex_canonical_bytes
FN:335,_RNvNtNtCs7YQQ0vypdx3_16rhizo_crypt_core6vertex5testss_33test_vertex_bincode_serialization
FN:350,_RNvNtNtCs7YQQ0vypdx3_16rhizo_crypt_core6vertex5testss_38test_vertex_with_complex_event_bincode
FN:46,_RNvMNtCs7YQQ0vypdx3_16rhizo_crypt_core6vertexNtB2_6Vertex10compute_id
FN:95,_RNvMNtCs7YQQ0vypdx3_16rhizo_crypt_core6vertexNtB2_6Vertex10is_genesis
FN:107,_RNvMNtCs7YQQ0vypdx3_16rhizo_crypt_core6vertexNtB2_6Vertex12get_metadata
FN:74,_RNvMNtCs7YQQ0vypdx3_16rhizo_crypt_core6vertexNtB2_6Vertex18to_canonical_bytes
FN:52,_RNvMNtCs7YQQ0vypdx3_16rhizo_crypt_core6vertexNtB2_6Vertex2id
FN:64,_RNvMNtCs7YQQ0vypdx3_16rhizo_crypt_core6vertexNtB2_6Vertex9cached_id
FN:101,_RNvMNtCs7YQQ0vypdx3_16rhizo_crypt_core6vertexNtB2_6Vertex9is_signed
FN:225,_RNvMs4_NtCs7YQQ0vypdx3_16rhizo_crypt_core6vertexNtB5_13VertexBuilder10with_agent
FN:204,_RNvMs4_NtCs7YQQ0vypdx3_16rhizo_crypt_core6vertexNtB5_13VertexBuilder11with_parent
FN:218,_RNvMs4_NtCs7YQQ0vypdx3_16rhizo_crypt_core6vertexNtB5_13VertexBuilder14with_timestamp
FN:191,_RNvMs4_NtCs7YQQ0vypdx3_16rhizo_crypt_core6vertexNtB5_13VertexBuilder3new
FN:250,_RNvMs4_NtCs7YQQ0vypdx3_16rhizo_crypt_core6vertexNtB5_13VertexBuilder5build
FN:154,_RNvXs0_NtCs7YQQ0vypdx3_16rhizo_crypt_core6vertexNtB5_13MetadataValueINtNtCs9sjCchOt1K7_4core7convert4FromxE4from
FN:160,_RNvXs1_NtCs7YQQ0vypdx3_16rhizo_crypt_core6vertexNtB5_13MetadataValueINtNtCs9sjCchOt1K7_4core7convert4FromdE4from
FN:172,_RNvXs3_NtCs7YQQ0vypdx3_16rhizo_crypt_core6vertexNtB5_13MetadataValueINtNtCs9sjCchOt1K7_4core7convert4FromReE4from
FN:148,_RNvXs_NtCs7YQQ0vypdx3_16rhizo_crypt_core6vertexNtB4_13MetadataValueINtNtCs9sjCchOt1K7_4core7convert4FrombE4from
FN:239,_RINvMs4_NtCsid3wTlZBOIR_16rhizo_crypt_core6vertexNtB6_13VertexBuilder13with_metadataNtNtCs6bBekJvxEMJ_5alloc6string6StringB1k_ECscGNtvOf38BJ_15rpc_integration
FNDA:10847,_RNvMNtCsid3wTlZBOIR_16rhizo_crypt_core6vertexNtB2_6Vertex10compute_id
FNDA:1047,_RNvMNtCsid3wTlZBOIR_16rhizo_crypt_core6vertexNtB2_6Vertex10is_genesis
FNDA:0,_RNvMNtCsid3wTlZBOIR_16rhizo_crypt_core6vertexNtB2_6Vertex12get_metadata
FNDA:10847,_RNvMNtCsid3wTlZBOIR_16rhizo_crypt_core6vertexNtB2_6Vertex18to_canonical_bytes
FNDA:3141,_RNvMNtCsid3wTlZBOIR_16rhizo_crypt_core6vertexNtB2_6Vertex2id
FNDA:0,_RNvMNtCsid3wTlZBOIR_16rhizo_crypt_core6vertexNtB2_6Vertex9cached_id
FNDA:0,_RNvMNtCsid3wTlZBOIR_16rhizo_crypt_core6vertexNtB2_6Vertex9is_signed
FNDA:0,_RNvMs4_NtCsid3wTlZBOIR_16rhizo_crypt_core6vertexNtB5_13VertexBuilder10with_agent
FNDA:512,_RNvMs4_NtCsid3wTlZBOIR_16rhizo_crypt_core6vertexNtB5_13VertexBuilder11with_parent
FNDA:0,_RNvMs4_NtCsid3wTlZBOIR_16rhizo_crypt_core6vertexNtB5_13VertexBuilder12with_payload
FNDA:0,_RNvMs4_NtCsid3wTlZBOIR_16rhizo_crypt_core6vertexNtB5_13VertexBuilder14with_timestamp
FNDA:7124,_RNvMs4_NtCsid3wTlZBOIR_16rhizo_crypt_core6vertexNtB5_13VertexBuilder3new
FNDA:7124,_RNvMs4_NtCsid3wTlZBOIR_16rhizo_crypt_core6vertexNtB5_13VertexBuilder5build
FNDA:0,_RNvXs0_NtCsid3wTlZBOIR_16rhizo_crypt_core6vertexNtB5_13MetadataValueINtNtCs9sjCchOt1K7_4core7convert4FromxE4from
FNDA:0,_RNvXs1_NtCsid3wTlZBOIR_16rhizo_crypt_core6vertexNtB5_13MetadataValueINtNtCs9sjCchOt1K7_4core7convert4FromdE4from
FNDA:1356,_RNvXs2_NtCsid3wTlZBOIR_16rhizo_crypt_core6vertexNtB5_13MetadataValueINtNtCs9sjCchOt1K7_4core7convert4FromNtNtCs6bBekJvxEMJ_5alloc6string6StringE4from
FNDA:732,_RNvXs3_NtCsid3wTlZBOIR_16rhizo_crypt_core6vertexNtB5_13MetadataValueINtNtCs9sjCchOt1K7_4core7convert4FromReE4from
FNDA:0,_RNvXs_NtCsid3wTlZBOIR_16rhizo_crypt_core6vertexNtB4_13MetadataValueINtNtCs9sjCchOt1K7_4core7convert4FrombE4from
FNDA:0,_RINvMs4_NtCsid3wTlZBOIR_16rhizo_crypt_core6vertexNtB6_13VertexBuilder12with_parentspEB8_
FNDA:0,_RINvMs4_NtCsid3wTlZBOIR_16rhizo_crypt_core6vertexNtB6_13VertexBuilder13with_metadatappEB8_
FNDA:1,_RINvMs4_NtCsid3wTlZBOIR_16rhizo_crypt_core6vertexNtB6_13VertexBuilder13with_metadataReB1k_ECsPnv9z7ECKg_9e2e_tests
FNDA:731,_RINvMs4_NtCsid3wTlZBOIR_16rhizo_crypt_core6vertexNtB6_13VertexBuilder13with_metadataReB1k_ECs6Xsx8PfdSt5_14property_tests
FNDA:1351,_RINvMs4_NtCsid3wTlZBOIR_16rhizo_crypt_core6vertexNtB6_13VertexBuilder13with_metadataReNtNtCs6bBekJvxEMJ_5alloc6string6StringECs6Xsx8PfdSt5_14property_tests
FNDA:0,_RINvMs4_NtCs7YQQ0vypdx3_16rhizo_crypt_core6vertexNtB6_13VertexBuilder12with_parentspEB8_
FNDA:0,_RNvMs4_NtCs7YQQ0vypdx3_16rhizo_crypt_core6vertexNtB5_13VertexBuilder12with_payload
FNDA:0,_RNvXs2_NtCs7YQQ0vypdx3_16rhizo_crypt_core6vertexNtB5_13MetadataValueINtNtCs9sjCchOt1K7_4core7convert4FromNtNtCs6bBekJvxEMJ_5alloc6string6StringE4from
FNDA:2,_RINvMs4_NtCs7YQQ0vypdx3_16rhizo_crypt_core6vertexNtB6_13VertexBuilder13with_metadataReB1k_EB8_
FNDA:1,_RINvMs4_NtCs7YQQ0vypdx3_16rhizo_crypt_core6vertexNtB6_13VertexBuilder13with_metadataRexEB8_
FNDA:1,_RNvNtNtCs7YQQ0vypdx3_16rhizo_crypt_core6vertex5testss_19test_vertex_builder
FNDA:1,_RNvNtNtCs7YQQ0vypdx3_16rhizo_crypt_core6vertex5testss_24test_metadata_value_from
FNDA:1,_RNvNtNtCs7YQQ0vypdx3_16rhizo_crypt_core6vertex5testss_24test_vertex_with_parents
FNDA:1,_RNvNtNtCs7YQQ0vypdx3_16rhizo_crypt_core6vertex5testss_26test_vertex_id_computation
FNDA:1,_RNvNtNtCs7YQQ0vypdx3_16rhizo_crypt_core6vertex5testss_27test_vertex_canonical_bytes
FNDA:1,_RNvNtNtCs7YQQ0vypdx3_16rhizo_crypt_core6vertex5testss_33test_vertex_bincode_serialization
FNDA:1,_RNvNtNtCs7YQQ0vypdx3_16rhizo_crypt_core6vertex5testss_38test_vertex_with_complex_event_bincode
FNDA:105,_RNvMNtCs7YQQ0vypdx3_16rhizo_crypt_core6vertexNtB2_6Vertex10compute_id
FNDA:18,_RNvMNtCs7YQQ0vypdx3_16rhizo_crypt_core6vertexNtB2_6Vertex10is_genesis
FNDA:1,_RNvMNtCs7YQQ0vypdx3_16rhizo_crypt_core6vertexNtB2_6Vertex12get_metadata
FNDA:107,_RNvMNtCs7YQQ0vypdx3_16rhizo_crypt_core6vertexNtB2_6Vertex18to_canonical_bytes
FNDA:23,_RNvMNtCs7YQQ0vypdx3_16rhizo_crypt_core6vertexNtB2_6Vertex2id
FNDA:2,_RNvMNtCs7YQQ0vypdx3_16rhizo_crypt_core6vertexNtB2_6Vertex9cached_id
FNDA:1,_RNvMNtCs7YQQ0vypdx3_16rhizo_crypt_core6vertexNtB2_6Vertex9is_signed
FNDA:1,_RNvMs4_NtCs7YQQ0vypdx3_16rhizo_crypt_core6vertexNtB5_13VertexBuilder10with_agent
FNDA:5,_RNvMs4_NtCs7YQQ0vypdx3_16rhizo_crypt_core6vertexNtB5_13VertexBuilder11with_parent
FNDA:32,_RNvMs4_NtCs7YQQ0vypdx3_16rhizo_crypt_core6vertexNtB5_13VertexBuilder14with_timestamp
FNDA:54,_RNvMs4_NtCs7YQQ0vypdx3_16rhizo_crypt_core6vertexNtB5_13VertexBuilder3new
FNDA:54,_RNvMs4_NtCs7YQQ0vypdx3_16rhizo_crypt_core6vertexNtB5_13VertexBuilder5build
FNDA:2,_RNvXs0_NtCs7YQQ0vypdx3_16rhizo_crypt_core6vertexNtB5_13MetadataValueINtNtCs9sjCchOt1K7_4core7convert4FromxE4from
FNDA:1,_RNvXs1_NtCs7YQQ0vypdx3_16rhizo_crypt_core6vertexNtB5_13MetadataValueINtNtCs9sjCchOt1K7_4core7convert4FromdE4from
FNDA:3,_RNvXs3_NtCs7YQQ0vypdx3_16rhizo_crypt_core6vertexNtB5_13MetadataValueINtNtCs9sjCchOt1K7_4core7convert4FromReE4from
FNDA:1,_RNvXs_NtCs7YQQ0vypdx3_16rhizo_crypt_core6vertexNtB4_13MetadataValueINtNtCs9sjCchOt1K7_4core7convert4FrombE4from
FNDA:5,_RINvMs4_NtCsid3wTlZBOIR_16rhizo_crypt_core6vertexNtB6_13VertexBuilder13with_metadataNtNtCs6bBekJvxEMJ_5alloc6string6StringB1k_ECscGNtvOf38BJ_15rpc_integration
FNF:27
FNH:25
DA:46,10952
DA:47,10952
DA:48,10952
DA:49,10952
DA:52,3164
DA:53,3164
DA:54,1047
DA:56,2117
DA:57,2117
DA:58,2117
DA:60,3164
DA:64,2
DA:65,2
DA:66,2
DA:74,10954
DA:75,10954
DA:76,10954
DA:77,10954
DA:78,10954
DA:79,10954
DA:80,10954
DA:81,10954
DA:82,10954
DA:83,10954
DA:84,10954
DA:85,10954
DA:86,10954
DA:87,10954
DA:88,10954
DA:89,10954
DA:90,10954
DA:91,10954
DA:95,1065
DA:96,1065
DA:97,1065
DA:101,1
DA:102,1
DA:103,1
DA:107,1
DA:108,1
DA:109,1
DA:148,1
DA:149,1
DA:150,1
DA:154,2
DA:155,2
DA:156,2
DA:160,1
DA:161,1
DA:162,1
DA:166,1356
DA:167,1356
DA:168,1356
DA:172,735
DA:173,735
DA:174,735
DA:191,7178
DA:192,7178
DA:193,7178
DA:194,7178
DA:195,7178
DA:196,7178
DA:197,7178
DA:198,7178
DA:199,7178
DA:200,7178
DA:204,517
DA:205,517
DA:206,517
DA:207,517
DA:211,0
DA:212,0
DA:213,0
DA:214,0
DA:218,32
DA:219,32
DA:220,32
DA:221,32
DA:225,1
DA:226,1
DA:227,1
DA:228,1
DA:232,0
DA:233,0
DA:234,0
DA:235,0
DA:239,2091
DA:240,2091
DA:241,2091
DA:242,2091
DA:243,2091
DA:244,2091
DA:245,2091
DA:246,2091
DA:250,7178
DA:251,7178
DA:252,7178
DA:253,7178
DA:254,7178
DA:255,7178
DA:256,7178
DA:257,7178
DA:258,7178
DA:259,7178
DA:260,7178
DA:261,7178
DA:270,1
DA:271,1
DA:272,1
DA:273,1
DA:274,1
DA:275,1
DA:276,1
DA:277,1
DA:278,1
DA:279,1
DA:280,1
DA:283,1
DA:284,1
DA:285,1
DA:286,1
DA:287,1
DA:288,1
DA:289,1
DA:290,1
DA:291,1
DA:292,1
DA:293,1
DA:294,1
DA:297,1
DA:298,1
DA:299,1
DA:300,1
DA:301,1
DA:302,1
DA:303,1
DA:304,1
DA:305,1
DA:306,1
DA:307,1
DA:308,1
DA:311,1
DA:312,1
DA:313,1
DA:314,1
DA:315,1
DA:316,1
DA:317,1
DA:320,1
DA:321,1
DA:322,1
DA:323,1
DA:324,1
DA:327,1
DA:328,1
DA:329,1
DA:330,1
DA:331,1
DA:332,1
DA:335,1
DA:336,1
DA:337,1
DA:338,1
DA:339,1
DA:340,1
DA:341,1
DA:342,1
DA:343,1
DA:344,1
DA:345,1
DA:346,1
DA:347,1
DA:350,1
DA:354,1
DA:355,1
DA:356,1
DA:357,1
DA:358,1
DA:359,1
DA:360,1
DA:361,1
DA:362,1
DA:363,1
DA:364,1
BRF:0
BRH:0
LF:184
LH:176
end_of_record
SF:/home/strandgate/Development/ecoPrimals/phase2/rhizoCrypt/crates/rhizo-crypt-rpc/src/client.rs
FN:112,_RNCNCNvMNtCs4yQX48jEriP_15rhizo_crypt_rpc6clientNtB6_9RpcClient10get_vertex00B8_
FN:128,_RNCNCNvMNtCs4yQX48jEriP_15rhizo_crypt_rpc6clientNtB6_9RpcClient11get_genesis00B8_
FN:57,_RNCNCNvMNtCs4yQX48jEriP_15rhizo_crypt_rpc6clientNtB6_9RpcClient11get_session00B8_
FN:208,_RNCNCNvMNtCs4yQX48jEriP_15rhizo_crypt_rpc6clientNtB6_9RpcClient11list_slices00B8_
FN:96,_RNCNCNvMNtCs4yQX48jEriP_15rhizo_crypt_rpc6clientNtB6_9RpcClient12append_batch00B8_
FN:85,_RNCNCNvMNtCs4yQX48jEriP_15rhizo_crypt_rpc6clientNtB6_9RpcClient12append_event00B8_
FN:148,_RNCNCNvMNtCs4yQX48jEriP_15rhizo_crypt_rpc6clientNtB6_9RpcClient12get_children00B8_
FN:120,_RNCNCNvMNtCs4yQX48jEriP_15rhizo_crypt_rpc6clientNtB6_9RpcClient12get_frontier00B8_
FN:180,_RNCNCNvMNtCs4yQX48jEriP_15rhizo_crypt_rpc6clientNtB6_9RpcClient12verify_proof00B8_
FN:65,_RNCNCNvMNtCs4yQX48jEriP_15rhizo_crypt_rpc6clientNtB6_9RpcClient13list_sessions00B8_
FN:216,_RNCNCNvMNtCs4yQX48jEriP_15rhizo_crypt_rpc6clientNtB6_9RpcClient13resolve_slice00B8_
FN:192,_RNCNCNvMNtCs4yQX48jEriP_15rhizo_crypt_rpc6clientNtB6_9RpcClient14checkout_slice00B8_
FN:49,_RNCNCNvMNtCs4yQX48jEriP_15rhizo_crypt_rpc6clientNtB6_9RpcClient14create_session00B8_
FN:136,_RNCNCNvMNtCs4yQX48jEriP_15rhizo_crypt_rpc6clientNtB6_9RpcClient14query_vertices00B8_
FN:73,_RNCNCNvMNtCs4yQX48jEriP_15rhizo_crypt_rpc6clientNtB6_9RpcClient15discard_session00B8_
FN:160,_RNCNCNvMNtCs4yQX48jEriP_15rhizo_crypt_rpc6clientNtB6_9RpcClient15get_merkle_root00B8_
FN:172,_RNCNCNvMNtCs4yQX48jEriP_15rhizo_crypt_rpc6clientNtB6_9RpcClient16get_merkle_proof00B8_
FN:239,_RNCNCNvMNtCs4yQX48jEriP_15rhizo_crypt_rpc6clientNtB6_9RpcClient22get_dehydration_status00B8_
FN:251,_RNCNCNvMNtCs4yQX48jEriP_15rhizo_crypt_rpc6clientNtB6_9RpcClient6health00B8_
FN:29,_RNCNCNvMNtCs4yQX48jEriP_15rhizo_crypt_rpc6clientNtB6_9RpcClient7connect00B8_
FN:259,_RNCNCNvMNtCs4yQX48jEriP_15rhizo_crypt_rpc6clientNtB6_9RpcClient7metrics00B8_
FN:228,_RNCNCNvMNtCs4yQX48jEriP_15rhizo_crypt_rpc6clientNtB6_9RpcClient9dehydrate00B8_
FN:200,_RNCNCNvMNtCs4yQX48jEriP_15rhizo_crypt_rpc6clientNtB6_9RpcClient9get_slice00B8_
FN:108,_RNCNvMNtCs4yQX48jEriP_15rhizo_crypt_rpc6clientNtB4_9RpcClient10get_vertex0B6_
FN:124,_RNCNvMNtCs4yQX48jEriP_15rhizo_crypt_rpc6clientNtB4_9RpcClient11get_genesis0B6_
FN:53,_RNCNvMNtCs4yQX48jEriP_15rhizo_crypt_rpc6clientNtB4_9RpcClient11get_session0B6_
FN:204,_RNCNvMNtCs4yQX48jEriP_15rhizo_crypt_rpc6clientNtB4_9RpcClient11list_slices0B6_
FN:92,_RNCNvMNtCs4yQX48jEriP_15rhizo_crypt_rpc6clientNtB4_9RpcClient12append_batch0B6_
FN:81,_RNCNvMNtCs4yQX48jEriP_15rhizo_crypt_rpc6clientNtB4_9RpcClient12append_event0B6_
FN:144,_RNCNvMNtCs4yQX48jEriP_15rhizo_crypt_rpc6clientNtB4_9RpcClient12get_children0B6_
FN:116,_RNCNvMNtCs4yQX48jEriP_15rhizo_crypt_rpc6clientNtB4_9RpcClient12get_frontier0B6_
FN:176,_RNCNvMNtCs4yQX48jEriP_15rhizo_crypt_rpc6clientNtB4_9RpcClient12verify_proof0B6_
FN:61,_RNCNvMNtCs4yQX48jEriP_15rhizo_crypt_rpc6clientNtB4_9RpcClient13list_sessions0B6_
FN:212,_RNCNvMNtCs4yQX48jEriP_15rhizo_crypt_rpc6clientNtB4_9RpcClient13resolve_slice0B6_
FN:188,_RNCNvMNtCs4yQX48jEriP_15rhizo_crypt_rpc6clientNtB4_9RpcClient14checkout_slice0B6_
FN:45,_RNCNvMNtCs4yQX48jEriP_15rhizo_crypt_rpc6clientNtB4_9RpcClient14create_session0B6_
FN:132,_RNCNvMNtCs4yQX48jEriP_15rhizo_crypt_rpc6clientNtB4_9RpcClient14query_vertices0B6_
FN:69,_RNCNvMNtCs4yQX48jEriP_15rhizo_crypt_rpc6clientNtB4_9RpcClient15discard_session0B6_
FN:156,_RNCNvMNtCs4yQX48jEriP_15rhizo_crypt_rpc6clientNtB4_9RpcClient15get_merkle_root0B6_
FN:168,_RNCNvMNtCs4yQX48jEriP_15rhizo_crypt_rpc6clientNtB4_9RpcClient16get_merkle_proof0B6_
FN:235,_RNCNvMNtCs4yQX48jEriP_15rhizo_crypt_rpc6clientNtB4_9RpcClient22get_dehydration_status0B6_
FN:247,_RNCNvMNtCs4yQX48jEriP_15rhizo_crypt_rpc6clientNtB4_9RpcClient6health0B6_
FN:26,_RNCNvMNtCs4yQX48jEriP_15rhizo_crypt_rpc6clientNtB4_9RpcClient7connect0B6_
FN:255,_RNCNvMNtCs4yQX48jEriP_15rhizo_crypt_rpc6clientNtB4_9RpcClient7metrics0B6_
FN:224,_RNCNvMNtCs4yQX48jEriP_15rhizo_crypt_rpc6clientNtB4_9RpcClient9dehydrate0B6_
FN:196,_RNCNvMNtCs4yQX48jEriP_15rhizo_crypt_rpc6clientNtB4_9RpcClient9get_slice0B6_
FN:104,_RNvMNtCs4yQX48jEriP_15rhizo_crypt_rpc6clientNtB2_9RpcClient10get_vertex
FN:124,_RNvMNtCs4yQX48jEriP_15rhizo_crypt_rpc6clientNtB2_9RpcClient11get_genesis
FN:53,_RNvMNtCs4yQX48jEriP_15rhizo_crypt_rpc6clientNtB2_9RpcClient11get_session
FN:204,_RNvMNtCs4yQX48jEriP_15rhizo_crypt_rpc6clientNtB2_9RpcClient11list_slices
FN:89,_RNvMNtCs4yQX48jEriP_15rhizo_crypt_rpc6clientNtB2_9RpcClient12append_batch
FN:81,_RNvMNtCs4yQX48jEriP_15rhizo_crypt_rpc6clientNtB2_9RpcClient12append_event
FN:140,_RNvMNtCs4yQX48jEriP_15rhizo_crypt_rpc6clientNtB2_9RpcClient12get_children
FN:116,_RNvMNtCs4yQX48jEriP_15rhizo_crypt_rpc6clientNtB2_9RpcClient12get_frontier
FN:176,_RNvMNtCs4yQX48jEriP_15rhizo_crypt_rpc6clientNtB2_9RpcClient12verify_proof
FN:61,_RNvMNtCs4yQX48jEriP_15rhizo_crypt_rpc6clientNtB2_9RpcClient13list_sessions
FN:212,_RNvMNtCs4yQX48jEriP_15rhizo_crypt_rpc6clientNtB2_9RpcClient13resolve_slice
FN:188,_RNvMNtCs4yQX48jEriP_15rhizo_crypt_rpc6clientNtB2_9RpcClient14checkout_slice
FN:45,_RNvMNtCs4yQX48jEriP_15rhizo_crypt_rpc6clientNtB2_9RpcClient14create_session
FN:132,_RNvMNtCs4yQX48jEriP_15rhizo_crypt_rpc6clientNtB2_9RpcClient14query_vertices
FN:69,_RNvMNtCs4yQX48jEriP_15rhizo_crypt_rpc6clientNtB2_9RpcClient15discard_session
FN:156,_RNvMNtCs4yQX48jEriP_15rhizo_crypt_rpc6clientNtB2_9RpcClient15get_merkle_root
FN:164,_RNvMNtCs4yQX48jEriP_15rhizo_crypt_rpc6clientNtB2_9RpcClient16get_merkle_proof
FN:232,_RNvMNtCs4yQX48jEriP_15rhizo_crypt_rpc6clientNtB2_9RpcClient22get_dehydration_status
FN:247,_RNvMNtCs4yQX48jEriP_15rhizo_crypt_rpc6clientNtB2_9RpcClient6health
FN:26,_RNvMNtCs4yQX48jEriP_15rhizo_crypt_rpc6clientNtB2_9RpcClient7connect
FN:255,_RNvMNtCs4yQX48jEriP_15rhizo_crypt_rpc6clientNtB2_9RpcClient7metrics
FN:224,_RNvMNtCs4yQX48jEriP_15rhizo_crypt_rpc6clientNtB2_9RpcClient9dehydrate
FN:196,_RNvMNtCs4yQX48jEriP_15rhizo_crypt_rpc6clientNtB2_9RpcClient9get_slice
FN:112,_RNCNCNvMNtCs1VabqvUvyvp_15rhizo_crypt_rpc6clientNtB6_9RpcClient10get_vertex00CscGNtvOf38BJ_15rpc_integration
FN:128,_RNCNCNvMNtCs1VabqvUvyvp_15rhizo_crypt_rpc6clientNtB6_9RpcClient11get_genesis00CscGNtvOf38BJ_15rpc_integration
FN:57,_RNCNCNvMNtCs1VabqvUvyvp_15rhizo_crypt_rpc6clientNtB6_9RpcClient11get_session00CscGNtvOf38BJ_15rpc_integration
FN:208,_RNCNCNvMNtCs1VabqvUvyvp_15rhizo_crypt_rpc6clientNtB6_9RpcClient11list_slices00CscGNtvOf38BJ_15rpc_integration
FN:96,_RNCNCNvMNtCs1VabqvUvyvp_15rhizo_crypt_rpc6clientNtB6_9RpcClient12append_batch00CscGNtvOf38BJ_15rpc_integration
FN:85,_RNCNCNvMNtCs1VabqvUvyvp_15rhizo_crypt_rpc6clientNtB6_9RpcClient12append_event00CscGNtvOf38BJ_15rpc_integration
FN:148,_RNCNCNvMNtCs1VabqvUvyvp_15rhizo_crypt_rpc6clientNtB6_9RpcClient12get_children00CscGNtvOf38BJ_15rpc_integration
FN:120,_RNCNCNvMNtCs1VabqvUvyvp_15rhizo_crypt_rpc6clientNtB6_9RpcClient12get_frontier00CscGNtvOf38BJ_15rpc_integration
FN:180,_RNCNCNvMNtCs1VabqvUvyvp_15rhizo_crypt_rpc6clientNtB6_9RpcClient12verify_proof00CscGNtvOf38BJ_15rpc_integration
FN:65,_RNCNCNvMNtCs1VabqvUvyvp_15rhizo_crypt_rpc6clientNtB6_9RpcClient13list_sessions00CscGNtvOf38BJ_15rpc_integration
FN:192,_RNCNCNvMNtCs1VabqvUvyvp_15rhizo_crypt_rpc6clientNtB6_9RpcClient14checkout_slice00CscGNtvOf38BJ_15rpc_integration
FN:49,_RNCNCNvMNtCs1VabqvUvyvp_15rhizo_crypt_rpc6clientNtB6_9RpcClient14create_session00CscGNtvOf38BJ_15rpc_integration
FN:136,_RNCNCNvMNtCs1VabqvUvyvp_15rhizo_crypt_rpc6clientNtB6_9RpcClient14query_vertices00CscGNtvOf38BJ_15rpc_integration
FN:73,_RNCNCNvMNtCs1VabqvUvyvp_15rhizo_crypt_rpc6clientNtB6_9RpcClient15discard_session00CscGNtvOf38BJ_15rpc_integration
FN:160,_RNCNCNvMNtCs1VabqvUvyvp_15rhizo_crypt_rpc6clientNtB6_9RpcClient15get_merkle_root00CscGNtvOf38BJ_15rpc_integration
FN:172,_RNCNCNvMNtCs1VabqvUvyvp_15rhizo_crypt_rpc6clientNtB6_9RpcClient16get_merkle_proof00CscGNtvOf38BJ_15rpc_integration
FN:239,_RNCNCNvMNtCs1VabqvUvyvp_15rhizo_crypt_rpc6clientNtB6_9RpcClient22get_dehydration_status00CscGNtvOf38BJ_15rpc_integration
FN:251,_RNCNCNvMNtCs1VabqvUvyvp_15rhizo_crypt_rpc6clientNtB6_9RpcClient6health00CscGNtvOf38BJ_15rpc_integration
FN:29,_RNCNCNvMNtCs1VabqvUvyvp_15rhizo_crypt_rpc6clientNtB6_9RpcClient7connect00CscGNtvOf38BJ_15rpc_integration
FN:259,_RNCNCNvMNtCs1VabqvUvyvp_15rhizo_crypt_rpc6clientNtB6_9RpcClient7metrics00CscGNtvOf38BJ_15rpc_integration
FN:228,_RNCNCNvMNtCs1VabqvUvyvp_15rhizo_crypt_rpc6clientNtB6_9RpcClient9dehydrate00CscGNtvOf38BJ_15rpc_integration
FN:200,_RNCNCNvMNtCs1VabqvUvyvp_15rhizo_crypt_rpc6clientNtB6_9RpcClient9get_slice00CscGNtvOf38BJ_15rpc_integration
FN:108,_RNCNvMNtCs1VabqvUvyvp_15rhizo_crypt_rpc6clientNtB4_9RpcClient10get_vertex0CscGNtvOf38BJ_15rpc_integration
FN:124,_RNCNvMNtCs1VabqvUvyvp_15rhizo_crypt_rpc6clientNtB4_9RpcClient11get_genesis0CscGNtvOf38BJ_15rpc_integration
FN:53,_RNCNvMNtCs1VabqvUvyvp_15rhizo_crypt_rpc6clientNtB4_9RpcClient11get_session0CscGNtvOf38BJ_15rpc_integration
FN:204,_RNCNvMNtCs1VabqvUvyvp_15rhizo_crypt_rpc6clientNtB4_9RpcClient11list_slices0CscGNtvOf38BJ_15rpc_integration
FN:92,_RNCNvMNtCs1VabqvUvyvp_15rhizo_crypt_rpc6clientNtB4_9RpcClient12append_batch0CscGNtvOf38BJ_15rpc_integration
FN:81,_RNCNvMNtCs1VabqvUvyvp_15rhizo_crypt_rpc6clientNtB4_9RpcClient12append_event0CscGNtvOf38BJ_15rpc_integration
FN:144,_RNCNvMNtCs1VabqvUvyvp_15rhizo_crypt_rpc6clientNtB4_9RpcClient12get_children0CscGNtvOf38BJ_15rpc_integration
FN:116,_RNCNvMNtCs1VabqvUvyvp_15rhizo_crypt_rpc6clientNtB4_9RpcClient12get_frontier0CscGNtvOf38BJ_15rpc_integration
FN:176,_RNCNvMNtCs1VabqvUvyvp_15rhizo_crypt_rpc6clientNtB4_9RpcClient12verify_proof0CscGNtvOf38BJ_15rpc_integration
FN:61,_RNCNvMNtCs1VabqvUvyvp_15rhizo_crypt_rpc6clientNtB4_9RpcClient13list_sessions0CscGNtvOf38BJ_15rpc_integration
FN:188,_RNCNvMNtCs1VabqvUvyvp_15rhizo_crypt_rpc6clientNtB4_9RpcClient14checkout_slice0CscGNtvOf38BJ_15rpc_integration
FN:45,_RNCNvMNtCs1VabqvUvyvp_15rhizo_crypt_rpc6clientNtB4_9RpcClient14create_session0CscGNtvOf38BJ_15rpc_integration
FN:132,_RNCNvMNtCs1VabqvUvyvp_15rhizo_crypt_rpc6clientNtB4_9RpcClient14query_vertices0CscGNtvOf38BJ_15rpc_integration
FN:69,_RNCNvMNtCs1VabqvUvyvp_15rhizo_crypt_rpc6clientNtB4_9RpcClient15discard_session0CscGNtvOf38BJ_15rpc_integration
FN:156,_RNCNvMNtCs1VabqvUvyvp_15rhizo_crypt_rpc6clientNtB4_9RpcClient15get_merkle_root0CscGNtvOf38BJ_15rpc_integration
FN:168,_RNCNvMNtCs1VabqvUvyvp_15rhizo_crypt_rpc6clientNtB4_9RpcClient16get_merkle_proof0CscGNtvOf38BJ_15rpc_integration
FN:235,_RNCNvMNtCs1VabqvUvyvp_15rhizo_crypt_rpc6clientNtB4_9RpcClient22get_dehydration_status0CscGNtvOf38BJ_15rpc_integration
FN:247,_RNCNvMNtCs1VabqvUvyvp_15rhizo_crypt_rpc6clientNtB4_9RpcClient6health0CscGNtvOf38BJ_15rpc_integration
FN:26,_RNCNvMNtCs1VabqvUvyvp_15rhizo_crypt_rpc6clientNtB4_9RpcClient7connect0CscGNtvOf38BJ_15rpc_integration
FN:255,_RNCNvMNtCs1VabqvUvyvp_15rhizo_crypt_rpc6clientNtB4_9RpcClient7metrics0CscGNtvOf38BJ_15rpc_integration
FN:224,_RNCNvMNtCs1VabqvUvyvp_15rhizo_crypt_rpc6clientNtB4_9RpcClient9dehydrate0CscGNtvOf38BJ_15rpc_integration
FN:196,_RNCNvMNtCs1VabqvUvyvp_15rhizo_crypt_rpc6clientNtB4_9RpcClient9get_slice0CscGNtvOf38BJ_15rpc_integration
FN:104,_RNvMNtCs1VabqvUvyvp_15rhizo_crypt_rpc6clientNtB2_9RpcClient10get_vertex
FN:124,_RNvMNtCs1VabqvUvyvp_15rhizo_crypt_rpc6clientNtB2_9RpcClient11get_genesis
FN:53,_RNvMNtCs1VabqvUvyvp_15rhizo_crypt_rpc6clientNtB2_9RpcClient11get_session
FN:204,_RNvMNtCs1VabqvUvyvp_15rhizo_crypt_rpc6clientNtB2_9RpcClient11list_slices
FN:89,_RNvMNtCs1VabqvUvyvp_15rhizo_crypt_rpc6clientNtB2_9RpcClient12append_batch
FN:81,_RNvMNtCs1VabqvUvyvp_15rhizo_crypt_rpc6clientNtB2_9RpcClient12append_event
FN:140,_RNvMNtCs1VabqvUvyvp_15rhizo_crypt_rpc6clientNtB2_9RpcClient12get_children
FN:116,_RNvMNtCs1VabqvUvyvp_15rhizo_crypt_rpc6clientNtB2_9RpcClient12get_frontier
FN:176,_RNvMNtCs1VabqvUvyvp_15rhizo_crypt_rpc6clientNtB2_9RpcClient12verify_proof
FN:61,_RNvMNtCs1VabqvUvyvp_15rhizo_crypt_rpc6clientNtB2_9RpcClient13list_sessions
FN:212,_RNvMNtCs1VabqvUvyvp_15rhizo_crypt_rpc6clientNtB2_9RpcClient13resolve_slice
FN:188,_RNvMNtCs1VabqvUvyvp_15rhizo_crypt_rpc6clientNtB2_9RpcClient14checkout_slice
FN:45,_RNvMNtCs1VabqvUvyvp_15rhizo_crypt_rpc6clientNtB2_9RpcClient14create_session
FN:132,_RNvMNtCs1VabqvUvyvp_15rhizo_crypt_rpc6clientNtB2_9RpcClient14query_vertices
FN:69,_RNvMNtCs1VabqvUvyvp_15rhizo_crypt_rpc6clientNtB2_9RpcClient15discard_session
FN:156,_RNvMNtCs1VabqvUvyvp_15rhizo_crypt_rpc6clientNtB2_9RpcClient15get_merkle_root
FN:164,_RNvMNtCs1VabqvUvyvp_15rhizo_crypt_rpc6clientNtB2_9RpcClient16get_merkle_proof
FN:232,_RNvMNtCs1VabqvUvyvp_15rhizo_crypt_rpc6clientNtB2_9RpcClient22get_dehydration_status
FN:247,_RNvMNtCs1VabqvUvyvp_15rhizo_crypt_rpc6clientNtB2_9RpcClient6health
FN:26,_RNvMNtCs1VabqvUvyvp_15rhizo_crypt_rpc6clientNtB2_9RpcClient7connect
FN:255,_RNvMNtCs1VabqvUvyvp_15rhizo_crypt_rpc6clientNtB2_9RpcClient7metrics
FN:224,_RNvMNtCs1VabqvUvyvp_15rhizo_crypt_rpc6clientNtB2_9RpcClient9dehydrate
FN:196,_RNvMNtCs1VabqvUvyvp_15rhizo_crypt_rpc6clientNtB2_9RpcClient9get_slice
FNDA:0,_RNCNCNvMNtCs4yQX48jEriP_15rhizo_crypt_rpc6clientNtB6_9RpcClient10get_vertex00B8_
FNDA:0,_RNCNCNvMNtCs4yQX48jEriP_15rhizo_crypt_rpc6clientNtB6_9RpcClient11get_genesis00B8_
FNDA:0,_RNCNCNvMNtCs4yQX48jEriP_15rhizo_crypt_rpc6clientNtB6_9RpcClient11get_session00B8_
FNDA:0,_RNCNCNvMNtCs4yQX48jEriP_15rhizo_crypt_rpc6clientNtB6_9RpcClient11list_slices00B8_
FNDA:0,_RNCNCNvMNtCs4yQX48jEriP_15rhizo_crypt_rpc6clientNtB6_9RpcClient12append_batch00B8_
FNDA:0,_RNCNCNvMNtCs4yQX48jEriP_15rhizo_crypt_rpc6clientNtB6_9RpcClient12append_event00B8_
FNDA:0,_RNCNCNvMNtCs4yQX48jEriP_15rhizo_crypt_rpc6clientNtB6_9RpcClient12get_children00B8_
FNDA:0,_RNCNCNvMNtCs4yQX48jEriP_15rhizo_crypt_rpc6clientNtB6_9RpcClient12get_frontier00B8_
FNDA:0,_RNCNCNvMNtCs4yQX48jEriP_15rhizo_crypt_rpc6clientNtB6_9RpcClient12verify_proof00B8_
FNDA:0,_RNCNCNvMNtCs4yQX48jEriP_15rhizo_crypt_rpc6clientNtB6_9RpcClient13list_sessions00B8_
FNDA:0,_RNCNCNvMNtCs4yQX48jEriP_15rhizo_crypt_rpc6clientNtB6_9RpcClient13resolve_slice00B8_
FNDA:0,_RNCNCNvMNtCs4yQX48jEriP_15rhizo_crypt_rpc6clientNtB6_9RpcClient14checkout_slice00B8_
FNDA:0,_RNCNCNvMNtCs4yQX48jEriP_15rhizo_crypt_rpc6clientNtB6_9RpcClient14create_session00B8_
FNDA:0,_RNCNCNvMNtCs4yQX48jEriP_15rhizo_crypt_rpc6clientNtB6_9RpcClient14query_vertices00B8_
FNDA:0,_RNCNCNvMNtCs4yQX48jEriP_15rhizo_crypt_rpc6clientNtB6_9RpcClient15discard_session00B8_
FNDA:0,_RNCNCNvMNtCs4yQX48jEriP_15rhizo_crypt_rpc6clientNtB6_9RpcClient15get_merkle_root00B8_
FNDA:0,_RNCNCNvMNtCs4yQX48jEriP_15rhizo_crypt_rpc6clientNtB6_9RpcClient16get_merkle_proof00B8_
FNDA:0,_RNCNCNvMNtCs4yQX48jEriP_15rhizo_crypt_rpc6clientNtB6_9RpcClient22get_dehydration_status00B8_
FNDA:0,_RNCNCNvMNtCs4yQX48jEriP_15rhizo_crypt_rpc6clientNtB6_9RpcClient6health00B8_
FNDA:0,_RNCNCNvMNtCs4yQX48jEriP_15rhizo_crypt_rpc6clientNtB6_9RpcClient7connect00B8_
FNDA:0,_RNCNCNvMNtCs4yQX48jEriP_15rhizo_crypt_rpc6clientNtB6_9RpcClient7metrics00B8_
FNDA:0,_RNCNCNvMNtCs4yQX48jEriP_15rhizo_crypt_rpc6clientNtB6_9RpcClient9dehydrate00B8_
FNDA:0,_RNCNCNvMNtCs4yQX48jEriP_15rhizo_crypt_rpc6clientNtB6_9RpcClient9get_slice00B8_
FNDA:0,_RNCNvMNtCs4yQX48jEriP_15rhizo_crypt_rpc6clientNtB4_9RpcClient10get_vertex0B6_
FNDA:0,_RNCNvMNtCs4yQX48jEriP_15rhizo_crypt_rpc6clientNtB4_9RpcClient11get_genesis0B6_
FNDA:0,_RNCNvMNtCs4yQX48jEriP_15rhizo_crypt_rpc6clientNtB4_9RpcClient11get_session0B6_
FNDA:0,_RNCNvMNtCs4yQX48jEriP_15rhizo_crypt_rpc6clientNtB4_9RpcClient11list_slices0B6_
FNDA:0,_RNCNvMNtCs4yQX48jEriP_15rhizo_crypt_rpc6clientNtB4_9RpcClient12append_batch0B6_
FNDA:0,_RNCNvMNtCs4yQX48jEriP_15rhizo_crypt_rpc6clientNtB4_9RpcClient12append_event0B6_
FNDA:0,_RNCNvMNtCs4yQX48jEriP_15rhizo_crypt_rpc6clientNtB4_9RpcClient12get_children0B6_
FNDA:0,_RNCNvMNtCs4yQX48jEriP_15rhizo_crypt_rpc6clientNtB4_9RpcClient12get_frontier0B6_
FNDA:0,_RNCNvMNtCs4yQX48jEriP_15rhizo_crypt_rpc6clientNtB4_9RpcClient12verify_proof0B6_
FNDA:0,_RNCNvMNtCs4yQX48jEriP_15rhizo_crypt_rpc6clientNtB4_9RpcClient13list_sessions0B6_
FNDA:0,_RNCNvMNtCs4yQX48jEriP_15rhizo_crypt_rpc6clientNtB4_9RpcClient13resolve_slice0B6_
FNDA:0,_RNCNvMNtCs4yQX48jEriP_15rhizo_crypt_rpc6clientNtB4_9RpcClient14checkout_slice0B6_
FNDA:0,_RNCNvMNtCs4yQX48jEriP_15rhizo_crypt_rpc6clientNtB4_9RpcClient14create_session0B6_
FNDA:0,_RNCNvMNtCs4yQX48jEriP_15rhizo_crypt_rpc6clientNtB4_9RpcClient14query_vertices0B6_
FNDA:0,_RNCNvMNtCs4yQX48jEriP_15rhizo_crypt_rpc6clientNtB4_9RpcClient15discard_session0B6_
FNDA:0,_RNCNvMNtCs4yQX48jEriP_15rhizo_crypt_rpc6clientNtB4_9RpcClient15get_merkle_root0B6_
FNDA:0,_RNCNvMNtCs4yQX48jEriP_15rhizo_crypt_rpc6clientNtB4_9RpcClient16get_merkle_proof0B6_
FNDA:0,_RNCNvMNtCs4yQX48jEriP_15rhizo_crypt_rpc6clientNtB4_9RpcClient22get_dehydration_status0B6_
FNDA:0,_RNCNvMNtCs4yQX48jEriP_15rhizo_crypt_rpc6clientNtB4_9RpcClient6health0B6_
FNDA:0,_RNCNvMNtCs4yQX48jEriP_15rhizo_crypt_rpc6clientNtB4_9RpcClient7connect0B6_
FNDA:0,_RNCNvMNtCs4yQX48jEriP_15rhizo_crypt_rpc6clientNtB4_9RpcClient7metrics0B6_
FNDA:0,_RNCNvMNtCs4yQX48jEriP_15rhizo_crypt_rpc6clientNtB4_9RpcClient9dehydrate0B6_
FNDA:0,_RNCNvMNtCs4yQX48jEriP_15rhizo_crypt_rpc6clientNtB4_9RpcClient9get_slice0B6_
FNDA:0,_RNvMNtCs4yQX48jEriP_15rhizo_crypt_rpc6clientNtB2_9RpcClient10get_vertex
FNDA:0,_RNvMNtCs4yQX48jEriP_15rhizo_crypt_rpc6clientNtB2_9RpcClient11get_genesis
FNDA:0,_RNvMNtCs4yQX48jEriP_15rhizo_crypt_rpc6clientNtB2_9RpcClient11get_session
FNDA:0,_RNvMNtCs4yQX48jEriP_15rhizo_crypt_rpc6clientNtB2_9RpcClient11list_slices
FNDA:0,_RNvMNtCs4yQX48jEriP_15rhizo_crypt_rpc6clientNtB2_9RpcClient12append_batch
FNDA:0,_RNvMNtCs4yQX48jEriP_15rhizo_crypt_rpc6clientNtB2_9RpcClient12append_event
FNDA:0,_RNvMNtCs4yQX48jEriP_15rhizo_crypt_rpc6clientNtB2_9RpcClient12get_children
FNDA:0,_RNvMNtCs4yQX48jEriP_15rhizo_crypt_rpc6clientNtB2_9RpcClient12get_frontier
FNDA:0,_RNvMNtCs4yQX48jEriP_15rhizo_crypt_rpc6clientNtB2_9RpcClient12verify_proof
FNDA:0,_RNvMNtCs4yQX48jEriP_15rhizo_crypt_rpc6clientNtB2_9RpcClient13list_sessions
FNDA:0,_RNvMNtCs4yQX48jEriP_15rhizo_crypt_rpc6clientNtB2_9RpcClient13resolve_slice
FNDA:0,_RNvMNtCs4yQX48jEriP_15rhizo_crypt_rpc6clientNtB2_9RpcClient14checkout_slice
FNDA:0,_RNvMNtCs4yQX48jEriP_15rhizo_crypt_rpc6clientNtB2_9RpcClient14create_session
FNDA:0,_RNvMNtCs4yQX48jEriP_15rhizo_crypt_rpc6clientNtB2_9RpcClient14query_vertices
FNDA:0,_RNvMNtCs4yQX48jEriP_15rhizo_crypt_rpc6clientNtB2_9RpcClient15discard_session
FNDA:0,_RNvMNtCs4yQX48jEriP_15rhizo_crypt_rpc6clientNtB2_9RpcClient15get_merkle_root
FNDA:0,_RNvMNtCs4yQX48jEriP_15rhizo_crypt_rpc6clientNtB2_9RpcClient16get_merkle_proof
FNDA:0,_RNvMNtCs4yQX48jEriP_15rhizo_crypt_rpc6clientNtB2_9RpcClient22get_dehydration_status
FNDA:0,_RNvMNtCs4yQX48jEriP_15rhizo_crypt_rpc6clientNtB2_9RpcClient6health
FNDA:0,_RNvMNtCs4yQX48jEriP_15rhizo_crypt_rpc6clientNtB2_9RpcClient7connect
FNDA:0,_RNvMNtCs4yQX48jEriP_15rhizo_crypt_rpc6clientNtB2_9RpcClient7metrics
FNDA:0,_RNvMNtCs4yQX48jEriP_15rhizo_crypt_rpc6clientNtB2_9RpcClient9dehydrate
FNDA:0,_RNvMNtCs4yQX48jEriP_15rhizo_crypt_rpc6clientNtB2_9RpcClient9get_slice
FNDA:0,_RNCNCNvMNtCs1VabqvUvyvp_15rhizo_crypt_rpc6clientNtB6_9RpcClient10get_vertex00CscGNtvOf38BJ_15rpc_integration
FNDA:0,_RNCNCNvMNtCs1VabqvUvyvp_15rhizo_crypt_rpc6clientNtB6_9RpcClient11get_genesis00CscGNtvOf38BJ_15rpc_integration
FNDA:0,_RNCNCNvMNtCs1VabqvUvyvp_15rhizo_crypt_rpc6clientNtB6_9RpcClient11get_session00CscGNtvOf38BJ_15rpc_integration
FNDA:0,_RNCNCNvMNtCs1VabqvUvyvp_15rhizo_crypt_rpc6clientNtB6_9RpcClient11list_slices00CscGNtvOf38BJ_15rpc_integration
FNDA:0,_RNCNCNvMNtCs1VabqvUvyvp_15rhizo_crypt_rpc6clientNtB6_9RpcClient12append_batch00CscGNtvOf38BJ_15rpc_integration
FNDA:0,_RNCNCNvMNtCs1VabqvUvyvp_15rhizo_crypt_rpc6clientNtB6_9RpcClient12append_event00CscGNtvOf38BJ_15rpc_integration
FNDA:0,_RNCNCNvMNtCs1VabqvUvyvp_15rhizo_crypt_rpc6clientNtB6_9RpcClient12get_children00CscGNtvOf38BJ_15rpc_integration
FNDA:0,_RNCNCNvMNtCs1VabqvUvyvp_15rhizo_crypt_rpc6clientNtB6_9RpcClient12get_frontier00CscGNtvOf38BJ_15rpc_integration
FNDA:0,_RNCNCNvMNtCs1VabqvUvyvp_15rhizo_crypt_rpc6clientNtB6_9RpcClient12verify_proof00CscGNtvOf38BJ_15rpc_integration
FNDA:0,_RNCNCNvMNtCs1VabqvUvyvp_15rhizo_crypt_rpc6clientNtB6_9RpcClient13list_sessions00CscGNtvOf38BJ_15rpc_integration
FNDA:0,_RNCNCNvMNtCs1VabqvUvyvp_15rhizo_crypt_rpc6clientNtB6_9RpcClient14checkout_slice00CscGNtvOf38BJ_15rpc_integration
FNDA:0,_RNCNCNvMNtCs1VabqvUvyvp_15rhizo_crypt_rpc6clientNtB6_9RpcClient14create_session00CscGNtvOf38BJ_15rpc_integration
FNDA:0,_RNCNCNvMNtCs1VabqvUvyvp_15rhizo_crypt_rpc6clientNtB6_9RpcClient14query_vertices00CscGNtvOf38BJ_15rpc_integration
FNDA:0,_RNCNCNvMNtCs1VabqvUvyvp_15rhizo_crypt_rpc6clientNtB6_9RpcClient15discard_session00CscGNtvOf38BJ_15rpc_integration
FNDA:0,_RNCNCNvMNtCs1VabqvUvyvp_15rhizo_crypt_rpc6clientNtB6_9RpcClient15get_merkle_root00CscGNtvOf38BJ_15rpc_integration
FNDA:0,_RNCNCNvMNtCs1VabqvUvyvp_15rhizo_crypt_rpc6clientNtB6_9RpcClient16get_merkle_proof00CscGNtvOf38BJ_15rpc_integration
FNDA:0,_RNCNCNvMNtCs1VabqvUvyvp_15rhizo_crypt_rpc6clientNtB6_9RpcClient22get_dehydration_status00CscGNtvOf38BJ_15rpc_integration
FNDA:0,_RNCNCNvMNtCs1VabqvUvyvp_15rhizo_crypt_rpc6clientNtB6_9RpcClient6health00CscGNtvOf38BJ_15rpc_integration
FNDA:0,_RNCNCNvMNtCs1VabqvUvyvp_15rhizo_crypt_rpc6clientNtB6_9RpcClient7connect00CscGNtvOf38BJ_15rpc_integration
FNDA:0,_RNCNCNvMNtCs1VabqvUvyvp_15rhizo_crypt_rpc6clientNtB6_9RpcClient7metrics00CscGNtvOf38BJ_15rpc_integration
FNDA:0,_RNCNCNvMNtCs1VabqvUvyvp_15rhizo_crypt_rpc6clientNtB6_9RpcClient9dehydrate00CscGNtvOf38BJ_15rpc_integration
FNDA:0,_RNCNCNvMNtCs1VabqvUvyvp_15rhizo_crypt_rpc6clientNtB6_9RpcClient9get_slice00CscGNtvOf38BJ_15rpc_integration
FNDA:1,_RNCNvMNtCs1VabqvUvyvp_15rhizo_crypt_rpc6clientNtB4_9RpcClient10get_vertex0CscGNtvOf38BJ_15rpc_integration
FNDA:1,_RNCNvMNtCs1VabqvUvyvp_15rhizo_crypt_rpc6clientNtB4_9RpcClient11get_genesis0CscGNtvOf38BJ_15rpc_integration
FNDA:2,_RNCNvMNtCs1VabqvUvyvp_15rhizo_crypt_rpc6clientNtB4_9RpcClient11get_session0CscGNtvOf38BJ_15rpc_integration
FNDA:1,_RNCNvMNtCs1VabqvUvyvp_15rhizo_crypt_rpc6clientNtB4_9RpcClient11list_slices0CscGNtvOf38BJ_15rpc_integration
FNDA:1,_RNCNvMNtCs1VabqvUvyvp_15rhizo_crypt_rpc6clientNtB4_9RpcClient12append_batch0CscGNtvOf38BJ_15rpc_integration
FNDA:11,_RNCNvMNtCs1VabqvUvyvp_15rhizo_crypt_rpc6clientNtB4_9RpcClient12append_event0CscGNtvOf38BJ_15rpc_integration
FNDA:1,_RNCNvMNtCs1VabqvUvyvp_15rhizo_crypt_rpc6clientNtB4_9RpcClient12get_children0CscGNtvOf38BJ_15rpc_integration
FNDA:1,_RNCNvMNtCs1VabqvUvyvp_15rhizo_crypt_rpc6clientNtB4_9RpcClient12get_frontier0CscGNtvOf38BJ_15rpc_integration
FNDA:1,_RNCNvMNtCs1VabqvUvyvp_15rhizo_crypt_rpc6clientNtB4_9RpcClient12verify_proof0CscGNtvOf38BJ_15rpc_integration
FNDA:3,_RNCNvMNtCs1VabqvUvyvp_15rhizo_crypt_rpc6clientNtB4_9RpcClient13list_sessions0CscGNtvOf38BJ_15rpc_integration
FNDA:1,_RNCNvMNtCs1VabqvUvyvp_15rhizo_crypt_rpc6clientNtB4_9RpcClient14checkout_slice0CscGNtvOf38BJ_15rpc_integration
FNDA:9,_RNCNvMNtCs1VabqvUvyvp_15rhizo_crypt_rpc6clientNtB4_9RpcClient14create_session0CscGNtvOf38BJ_15rpc_integration
FNDA:2,_RNCNvMNtCs1VabqvUvyvp_15rhizo_crypt_rpc6clientNtB4_9RpcClient14query_vertices0CscGNtvOf38BJ_15rpc_integration
FNDA:1,_RNCNvMNtCs1VabqvUvyvp_15rhizo_crypt_rpc6clientNtB4_9RpcClient15discard_session0CscGNtvOf38BJ_15rpc_integration
FNDA:1,_RNCNvMNtCs1VabqvUvyvp_15rhizo_crypt_rpc6clientNtB4_9RpcClient15get_merkle_root0CscGNtvOf38BJ_15rpc_integration
FNDA:1,_RNCNvMNtCs1VabqvUvyvp_15rhizo_crypt_rpc6clientNtB4_9RpcClient16get_merkle_proof0CscGNtvOf38BJ_15rpc_integration
FNDA:2,_RNCNvMNtCs1VabqvUvyvp_15rhizo_crypt_rpc6clientNtB4_9RpcClient22get_dehydration_status0CscGNtvOf38BJ_15rpc_integration
FNDA:2,_RNCNvMNtCs1VabqvUvyvp_15rhizo_crypt_rpc6clientNtB4_9RpcClient6health0CscGNtvOf38BJ_15rpc_integration
FNDA:10,_RNCNvMNtCs1VabqvUvyvp_15rhizo_crypt_rpc6clientNtB4_9RpcClient7connect0CscGNtvOf38BJ_15rpc_integration
FNDA:2,_RNCNvMNtCs1VabqvUvyvp_15rhizo_crypt_rpc6clientNtB4_9RpcClient7metrics0CscGNtvOf38BJ_15rpc_integration
FNDA:1,_RNCNvMNtCs1VabqvUvyvp_15rhizo_crypt_rpc6clientNtB4_9RpcClient9dehydrate0CscGNtvOf38BJ_15rpc_integration
FNDA:1,_RNCNvMNtCs1VabqvUvyvp_15rhizo_crypt_rpc6clientNtB4_9RpcClient9get_slice0CscGNtvOf38BJ_15rpc_integration
FNDA:1,_RNvMNtCs1VabqvUvyvp_15rhizo_crypt_rpc6clientNtB2_9RpcClient10get_vertex
FNDA:1,_RNvMNtCs1VabqvUvyvp_15rhizo_crypt_rpc6clientNtB2_9RpcClient11get_genesis
FNDA:2,_RNvMNtCs1VabqvUvyvp_15rhizo_crypt_rpc6clientNtB2_9RpcClient11get_session
FNDA:1,_RNvMNtCs1VabqvUvyvp_15rhizo_crypt_rpc6clientNtB2_9RpcClient11list_slices
FNDA:1,_RNvMNtCs1VabqvUvyvp_15rhizo_crypt_rpc6clientNtB2_9RpcClient12append_batch
FNDA:11,_RNvMNtCs1VabqvUvyvp_15rhizo_crypt_rpc6clientNtB2_9RpcClient12append_event
FNDA:1,_RNvMNtCs1VabqvUvyvp_15rhizo_crypt_rpc6clientNtB2_9RpcClient12get_children
FNDA:1,_RNvMNtCs1VabqvUvyvp_15rhizo_crypt_rpc6clientNtB2_9RpcClient12get_frontier
FNDA:1,_RNvMNtCs1VabqvUvyvp_15rhizo_crypt_rpc6clientNtB2_9RpcClient12verify_proof
FNDA:3,_RNvMNtCs1VabqvUvyvp_15rhizo_crypt_rpc6clientNtB2_9RpcClient13list_sessions
FNDA:0,_RNvMNtCs1VabqvUvyvp_15rhizo_crypt_rpc6clientNtB2_9RpcClient13resolve_slice
FNDA:1,_RNvMNtCs1VabqvUvyvp_15rhizo_crypt_rpc6clientNtB2_9RpcClient14checkout_slice
FNDA:9,_RNvMNtCs1VabqvUvyvp_15rhizo_crypt_rpc6clientNtB2_9RpcClient14create_session
FNDA:2,_RNvMNtCs1VabqvUvyvp_15rhizo_crypt_rpc6clientNtB2_9RpcClient14query_vertices
FNDA:1,_RNvMNtCs1VabqvUvyvp_15rhizo_crypt_rpc6clientNtB2_9RpcClient15discard_session
FNDA:1,_RNvMNtCs1VabqvUvyvp_15rhizo_crypt_rpc6clientNtB2_9RpcClient15get_merkle_root
FNDA:1,_RNvMNtCs1VabqvUvyvp_15rhizo_crypt_rpc6clientNtB2_9RpcClient16get_merkle_proof
FNDA:2,_RNvMNtCs1VabqvUvyvp_15rhizo_crypt_rpc6clientNtB2_9RpcClient22get_dehydration_status
FNDA:2,_RNvMNtCs1VabqvUvyvp_15rhizo_crypt_rpc6clientNtB2_9RpcClient6health
FNDA:10,_RNvMNtCs1VabqvUvyvp_15rhizo_crypt_rpc6clientNtB2_9RpcClient7connect
FNDA:2,_RNvMNtCs1VabqvUvyvp_15rhizo_crypt_rpc6clientNtB2_9RpcClient7metrics
FNDA:1,_RNvMNtCs1VabqvUvyvp_15rhizo_crypt_rpc6clientNtB2_9RpcClient9dehydrate
FNDA:1,_RNvMNtCs1VabqvUvyvp_15rhizo_crypt_rpc6clientNtB2_9RpcClient9get_slice
FNF:69
FNH:44
DA:26,10
DA:27,10
DA:28,10
DA:29,10
DA:31,10
DA:33,10
DA:34,10
DA:35,10
DA:36,10
DA:37,10
DA:38,10
DA:45,9
DA:46,9
DA:47,9
DA:48,9
DA:49,9
DA:50,9
DA:53,2
DA:54,2
DA:55,2
DA:56,2
DA:57,2
DA:58,2
DA:61,3
DA:62,3
DA:63,3
DA:64,3
DA:65,3
DA:66,3
DA:69,1
DA:70,1
DA:71,1
DA:72,1
DA:73,1
DA:74,1
DA:81,11
DA:82,11
DA:83,11
DA:84,11
DA:85,11
DA:86,11
DA:89,1
DA:90,1
DA:91,1
DA:92,1
DA:93,1
DA:94,1
DA:95,1
DA:96,1
DA:97,1
DA:104,1
DA:105,1
DA:106,1
DA:107,1
DA:108,1
DA:109,1
DA:110,1
DA:111,1
DA:112,1
DA:113,1
DA:116,1
DA:117,1
DA:118,1
DA:119,1
DA:120,1
DA:121,1
DA:124,1
DA:125,1
DA:126,1
DA:127,1
DA:128,1
DA:129,1
DA:132,2
DA:133,2
DA:134,2
DA:135,2
DA:136,2
DA:137,2
DA:140,1
DA:141,1
DA:142,1
DA:143,1
DA:144,1
DA:145,1
DA:146,1
DA:147,1
DA:148,1
DA:149,1
DA:156,1
DA:157,1
DA:158,1
DA:159,1
DA:160,1
DA:161,1
DA:164,1
DA:165,1
DA:166,1
DA:167,1
DA:168,1
DA:169,1
DA:170,1
DA:171,1
DA:172,1
DA:173,1
DA:176,1
DA:177,1
DA:178,1
DA:179,1
DA:180,1
DA:181,1
DA:188,1
DA:189,1
DA:190,1
DA:191,1
DA:192,1
DA:193,1
DA:196,1
DA:197,1
DA:198,1
DA:199,1
DA:200,1
DA:201,1
DA:204,1
DA:205,1
DA:206,1
DA:207,1
DA:208,1
DA:209,1
DA:212,0
DA:213,0
DA:214,0
DA:215,0
DA:216,0
DA:217,0
DA:224,1
DA:225,1
DA:226,1
DA:227,1
DA:228,1
DA:229,1
DA:232,2
DA:233,2
DA:234,2
DA:235,2
DA:236,2
DA:237,2
DA:238,2
DA:239,2
DA:240,2
DA:247,2
DA:248,2
DA:249,2
DA:250,2
DA:251,2
DA:252,2
DA:255,2
DA:256,2
DA:257,2
DA:258,2
DA:259,2
DA:260,2
BRF:0
BRH:0
LF:207
LH:177
end_of_record
SF:/home/strandgate/Development/ecoPrimals/phase2/rhizoCrypt/crates/rhizo-crypt-rpc/src/error.rs
FN:56,_RNvXNtCs4yQX48jEriP_15rhizo_crypt_rpc5errorNtB2_8RpcErrorINtNtCs9sjCchOt1K7_4core7convert4FromNtNtCsid3wTlZBOIR_16rhizo_crypt_core5error15RhizoCryptErrorE4from
FN:62,_RNvXs_NtCs4yQX48jEriP_15rhizo_crypt_rpc5errorNtB4_8RpcErrorINtNtCs9sjCchOt1K7_4core7convert4FromNtNtNtCseJswNlh1fGO_3std2io5error5ErrorE4from
FN:76,_RNvNtNtCs4yQX48jEriP_15rhizo_crypt_rpc5error5testss_18test_error_display
FN:110,_RNvNtNtCs4yQX48jEriP_15rhizo_crypt_rpc5error5testss_18test_from_io_error
FN:82,_RNvNtNtCs4yQX48jEriP_15rhizo_crypt_rpc5error5testss_19test_error_variants
FN:103,_RNvNtNtCs4yQX48jEriP_15rhizo_crypt_rpc5error5testss_26test_from_rhizocrypt_error
FNDA:1,_RNvXNtCs4yQX48jEriP_15rhizo_crypt_rpc5errorNtB2_8RpcErrorINtNtCs9sjCchOt1K7_4core7convert4FromNtNtCsid3wTlZBOIR_16rhizo_crypt_core5error15RhizoCryptErrorE4from
FNDA:1,_RNvXs_NtCs4yQX48jEriP_15rhizo_crypt_rpc5errorNtB4_8RpcErrorINtNtCs9sjCchOt1K7_4core7convert4FromNtNtNtCseJswNlh1fGO_3std2io5error5ErrorE4from
FNDA:1,_RNvNtNtCs4yQX48jEriP_15rhizo_crypt_rpc5error5testss_18test_error_display
FNDA:1,_RNvNtNtCs4yQX48jEriP_15rhizo_crypt_rpc5error5testss_18test_from_io_error
FNDA:1,_RNvNtNtCs4yQX48jEriP_15rhizo_crypt_rpc5error5testss_19test_error_variants
FNDA:1,_RNvNtNtCs4yQX48jEriP_15rhizo_crypt_rpc5error5testss_26test_from_rhizocrypt_error
FNF:6
FNH:6
DA:56,1
DA:57,1
DA:58,1
DA:62,1
DA:63,1
DA:64,1
DA:76,1
DA:77,1
DA:78,1
DA:79,1
DA:82,1
DA:83,1
DA:84,1
DA:85,1
DA:86,1
DA:87,1
DA:88,1
DA:89,1
DA:90,1
DA:91,1
DA:92,1
DA:93,1
DA:94,1
DA:96,11
DA:98,10
DA:100,1
DA:103,1
DA:104,1
DA:105,1
DA:106,1
DA:107,1
DA:110,1
DA:111,1
DA:112,1
DA:113,1
DA:114,1
BRF:0
BRH:0
LF:36
LH:36
end_of_record
SF:/home/strandgate/Development/ecoPrimals/phase2/rhizoCrypt/crates/rhizo-crypt-rpc/src/metrics.rs
FN:213,_RNvMs2_NtCs4yQX48jEriP_15rhizo_crypt_rpc7metricsNtB5_17HistogramSnapshot13bucket_bounds
FN:247,_RNvXs3_NtCs4yQX48jEriP_15rhizo_crypt_rpc7metricsNtB5_16MetricsCollectorNtNtCs9sjCchOt1K7_4core7default7Default7default
FN:467,_RNvXs6_NtCs4yQX48jEriP_15rhizo_crypt_rpc7metricsNtB5_13SharedMetricsNtNtCs9sjCchOt1K7_4core7default7Default7default
FN:76,_RNvMNtCs4yQX48jEriP_15rhizo_crypt_rpc7metricsNtB2_9RpcMethod6as_str
FN:175,_RNvMs1_NtCs4yQX48jEriP_15rhizo_crypt_rpc7metricsNtB5_9Histogram7observe
FN:190,_RNvMs1_NtCs4yQX48jEriP_15rhizo_crypt_rpc7metricsNtB5_9Histogram8snapshot
FN:220,_RNvMs2_NtCs4yQX48jEriP_15rhizo_crypt_rpc7metricsNtB5_17HistogramSnapshot12mean_seconds
FN:313,_RNvMs4_NtCs4yQX48jEriP_15rhizo_crypt_rpc7metricsNtB5_16MetricsCollector11error_count
FN:285,_RNvMs4_NtCs4yQX48jEriP_15rhizo_crypt_rpc7metricsNtB5_16MetricsCollector12dec_sessions
FN:280,_RNvMs4_NtCs4yQX48jEriP_15rhizo_crypt_rpc7metricsNtB5_16MetricsCollector12inc_sessions
FN:295,_RNvMs4_NtCs4yQX48jEriP_15rhizo_crypt_rpc7metricsNtB5_16MetricsCollector12inc_vertices
FN:274,_RNvMs4_NtCs4yQX48jEriP_15rhizo_crypt_rpc7metricsNtB5_16MetricsCollector12record_error
FN:290,_RNvMs4_NtCs4yQX48jEriP_15rhizo_crypt_rpc7metricsNtB5_16MetricsCollector12set_sessions
FN:301,_RNvMs4_NtCs4yQX48jEriP_15rhizo_crypt_rpc7metricsNtB5_16MetricsCollector13request_count
FN:267,_RNvMs4_NtCs4yQX48jEriP_15rhizo_crypt_rpc7metricsNtB5_16MetricsCollector14record_request
FN:331,_RNvMs4_NtCs4yQX48jEriP_15rhizo_crypt_rpc7metricsNtB5_16MetricsCollector14uptime_seconds
FN:325,_RNvMs4_NtCs4yQX48jEriP_15rhizo_crypt_rpc7metricsNtB5_16MetricsCollector14vertices_total
FN:319,_RNvMs4_NtCs4yQX48jEriP_15rhizo_crypt_rpc7metricsNtB5_16MetricsCollector15active_sessions
FN:337,_RNvMs4_NtCs4yQX48jEriP_15rhizo_crypt_rpc7metricsNtB5_16MetricsCollector17export_prometheus
FN:307,_RNvMs4_NtCs4yQX48jEriP_15rhizo_crypt_rpc7metricsNtB5_16MetricsCollector17latency_histogram
FN:255,_RNvMs4_NtCs4yQX48jEriP_15rhizo_crypt_rpc7metricsNtB5_16MetricsCollector3new
FN:455,_RNvMs5_NtCs4yQX48jEriP_15rhizo_crypt_rpc7metricsNtB5_13SharedMetrics3new
FN:461,_RNvMs5_NtCs4yQX48jEriP_15rhizo_crypt_rpc7metricsNtB5_13SharedMetrics9collector
FN:482,_RNvMs7_NtCs4yQX48jEriP_15rhizo_crypt_rpc7metricsNtB5_12RequestTimer5start
FN:491,_RNvMs7_NtCs4yQX48jEriP_15rhizo_crypt_rpc7metricsNtB5_12RequestTimer6finish
FN:124,_RNvMs_NtCs4yQX48jEriP_15rhizo_crypt_rpc7metricsNtB4_9ErrorType6as_str
FN:164,_RNvXs0_NtCs4yQX48jEriP_15rhizo_crypt_rpc7metricsNtB5_9HistogramNtNtCs9sjCchOt1K7_4core7default7Default7default
FN:546,_RNvNtNtCs4yQX48jEriP_15rhizo_crypt_rpc7metrics5testss_14test_histogram
FN:576,_RNvNtNtCs4yQX48jEriP_15rhizo_crypt_rpc7metrics5testss_18test_request_timer
FN:529,_RNvNtNtCs4yQX48jEriP_15rhizo_crypt_rpc7metrics5testss_18test_session_gauge
FN:516,_RNvNtNtCs4yQX48jEriP_15rhizo_crypt_rpc7metrics5testss_19test_error_tracking
FN:591,_RNvNtNtCs4yQX48jEriP_15rhizo_crypt_rpc7metrics5testss_19test_shared_metrics
FN:502,_RNvNtNtCs4yQX48jEriP_15rhizo_crypt_rpc7metrics5testss_22test_metrics_collector
FN:560,_RNvNtNtCs4yQX48jEriP_15rhizo_crypt_rpc7metrics5testss_22test_prometheus_export
FN:192,_RNCNvMs1_NtCs4yQX48jEriP_15rhizo_crypt_rpc7metricsNtB7_9Histogram8snapshot0B9_
FN:257,_RNCNvMs4_NtCs4yQX48jEriP_15rhizo_crypt_rpc7metricsNtB7_16MetricsCollector3new0B9_
FN:259,_RNCNvMs4_NtCs4yQX48jEriP_15rhizo_crypt_rpc7metricsNtB7_16MetricsCollector3news0_0B9_
FN:258,_RNCNvMs4_NtCs4yQX48jEriP_15rhizo_crypt_rpc7metricsNtB7_16MetricsCollector3news_0B9_
FN:166,_RNCNvXs0_NtCs4yQX48jEriP_15rhizo_crypt_rpc7metricsNtB7_9HistogramNtNtCs9sjCchOt1K7_4core7default7Default7default0B9_
FNDA:0,_RNvMs2_NtCs4yQX48jEriP_15rhizo_crypt_rpc7metricsNtB5_17HistogramSnapshot13bucket_bounds
FNDA:0,_RNvXs3_NtCs4yQX48jEriP_15rhizo_crypt_rpc7metricsNtB5_16MetricsCollectorNtNtCs9sjCchOt1K7_4core7default7Default7default
FNDA:0,_RNvXs6_NtCs4yQX48jEriP_15rhizo_crypt_rpc7metricsNtB5_13SharedMetricsNtNtCs9sjCchOt1K7_4core7default7Default7default
FNDA:2,_RNvMNtCs4yQX48jEriP_15rhizo_crypt_rpc7metricsNtB2_9RpcMethod6as_str
FNDA:8,_RNvMs1_NtCs4yQX48jEriP_15rhizo_crypt_rpc7metricsNtB5_9Histogram7observe
FNDA:26,_RNvMs1_NtCs4yQX48jEriP_15rhizo_crypt_rpc7metricsNtB5_9Histogram8snapshot
FNDA:3,_RNvMs2_NtCs4yQX48jEriP_15rhizo_crypt_rpc7metricsNtB5_17HistogramSnapshot12mean_seconds
FNDA:9,_RNvMs4_NtCs4yQX48jEriP_15rhizo_crypt_rpc7metricsNtB5_16MetricsCollector11error_count
FNDA:1,_RNvMs4_NtCs4yQX48jEriP_15rhizo_crypt_rpc7metricsNtB5_16MetricsCollector12dec_sessions
FNDA:4,_RNvMs4_NtCs4yQX48jEriP_15rhizo_crypt_rpc7metricsNtB5_16MetricsCollector12inc_sessions
FNDA:1,_RNvMs4_NtCs4yQX48jEriP_15rhizo_crypt_rpc7metricsNtB5_16MetricsCollector12inc_vertices
FNDA:3,_RNvMs4_NtCs4yQX48jEriP_15rhizo_crypt_rpc7metricsNtB5_16MetricsCollector12record_error
FNDA:1,_RNvMs4_NtCs4yQX48jEriP_15rhizo_crypt_rpc7metricsNtB5_16MetricsCollector12set_sessions
FNDA:28,_RNvMs4_NtCs4yQX48jEriP_15rhizo_crypt_rpc7metricsNtB5_16MetricsCollector13request_count
FNDA:8,_RNvMs4_NtCs4yQX48jEriP_15rhizo_crypt_rpc7metricsNtB5_16MetricsCollector14record_request
FNDA:1,_RNvMs4_NtCs4yQX48jEriP_15rhizo_crypt_rpc7metricsNtB5_16MetricsCollector14uptime_seconds
FNDA:1,_RNvMs4_NtCs4yQX48jEriP_15rhizo_crypt_rpc7metricsNtB5_16MetricsCollector14vertices_total
FNDA:6,_RNvMs4_NtCs4yQX48jEriP_15rhizo_crypt_rpc7metricsNtB5_16MetricsCollector15active_sessions
FNDA:1,_RNvMs4_NtCs4yQX48jEriP_15rhizo_crypt_rpc7metricsNtB5_16MetricsCollector17export_prometheus
FNDA:26,_RNvMs4_NtCs4yQX48jEriP_15rhizo_crypt_rpc7metricsNtB5_16MetricsCollector17latency_histogram
FNDA:7,_RNvMs4_NtCs4yQX48jEriP_15rhizo_crypt_rpc7metricsNtB5_16MetricsCollector3new
FNDA:1,_RNvMs5_NtCs4yQX48jEriP_15rhizo_crypt_rpc7metricsNtB5_13SharedMetrics3new
FNDA:2,_RNvMs5_NtCs4yQX48jEriP_15rhizo_crypt_rpc7metricsNtB5_13SharedMetrics9collector
FNDA:1,_RNvMs7_NtCs4yQX48jEriP_15rhizo_crypt_rpc7metricsNtB5_12RequestTimer5start
FNDA:1,_RNvMs7_NtCs4yQX48jEriP_15rhizo_crypt_rpc7metricsNtB5_12RequestTimer6finish
FNDA:0,_RNvMs_NtCs4yQX48jEriP_15rhizo_crypt_rpc7metricsNtB4_9ErrorType6as_str
FNDA:168,_RNvXs0_NtCs4yQX48jEriP_15rhizo_crypt_rpc7metricsNtB5_9HistogramNtNtCs9sjCchOt1K7_4core7default7Default7default
FNDA:1,_RNvNtNtCs4yQX48jEriP_15rhizo_crypt_rpc7metrics5testss_14test_histogram
FNDA:1,_RNvNtNtCs4yQX48jEriP_15rhizo_crypt_rpc7metrics5testss_18test_request_timer
FNDA:1,_RNvNtNtCs4yQX48jEriP_15rhizo_crypt_rpc7metrics5testss_18test_session_gauge
FNDA:1,_RNvNtNtCs4yQX48jEriP_15rhizo_crypt_rpc7metrics5testss_19test_error_tracking
FNDA:1,_RNvNtNtCs4yQX48jEriP_15rhizo_crypt_rpc7metrics5testss_19test_shared_metrics
FNDA:1,_RNvNtNtCs4yQX48jEriP_15rhizo_crypt_rpc7metrics5testss_22test_metrics_collector
FNDA:1,_RNvNtNtCs4yQX48jEriP_15rhizo_crypt_rpc7metrics5testss_22test_prometheus_export
FNDA:312,_RNCNvMs1_NtCs4yQX48jEriP_15rhizo_crypt_rpc7metricsNtB7_9Histogram8snapshot0B9_
FNDA:168,_RNCNvMs4_NtCs4yQX48jEriP_15rhizo_crypt_rpc7metricsNtB7_16MetricsCollector3new0B9_
FNDA:42,_RNCNvMs4_NtCs4yQX48jEriP_15rhizo_crypt_rpc7metricsNtB7_16MetricsCollector3news0_0B9_
FNDA:168,_RNCNvMs4_NtCs4yQX48jEriP_15rhizo_crypt_rpc7metricsNtB7_16MetricsCollector3news_0B9_
FNDA:2016,_RNCNvXs0_NtCs4yQX48jEriP_15rhizo_crypt_rpc7metricsNtB7_9HistogramNtNtCs9sjCchOt1K7_4core7default7Default7default0B9_
FNF:39
FNH:35
DA:76,2
DA:77,2
DA:78,2
DA:79,0
DA:80,0
DA:81,0
DA:82,0
DA:83,0
DA:84,0
DA:85,0
DA:86,0
DA:87,0
DA:88,0
DA:89,0
DA:90,0
DA:91,0
DA:92,0
DA:93,0
DA:94,0
DA:95,0
DA:96,0
DA:97,0
DA:98,0
DA:99,0
DA:101,2
DA:124,0
DA:125,0
DA:126,0
DA:127,0
DA:128,0
DA:129,0
DA:130,0
DA:131,0
DA:133,0
DA:164,168
DA:165,168
DA:166,2016
DA:167,168
DA:168,168
DA:169,168
DA:170,168
DA:175,8
DA:177,24
DA:178,24
DA:179,8
DA:180,8
DA:181,16
DA:185,8
DA:186,8
DA:187,8
DA:188,8
DA:190,26
DA:191,26
DA:192,312
DA:193,26
DA:194,26
DA:195,26
DA:196,26
DA:213,0
DA:214,0
DA:215,0
DA:220,3
DA:221,3
DA:222,0
DA:224,3
DA:226,3
DA:247,0
DA:248,0
DA:249,0
DA:255,7
DA:256,7
DA:257,168
DA:258,168
DA:259,42
DA:260,7
DA:261,7
DA:262,7
DA:263,7
DA:264,7
DA:267,8
DA:268,8
DA:269,8
DA:270,8
DA:271,8
DA:274,3
DA:275,3
DA:276,3
DA:277,3
DA:280,4
DA:281,4
DA:282,4
DA:285,1
DA:286,1
DA:287,1
DA:290,1
DA:291,1
DA:292,1
DA:295,1
DA:296,1
DA:297,1
DA:301,28
DA:302,28
DA:303,28
DA:307,26
DA:308,26
DA:309,26
DA:313,9
DA:314,9
DA:315,9
DA:319,6
DA:320,6
DA:321,6
DA:325,1
DA:326,1
DA:327,1
DA:331,1
DA:332,1
DA:333,1
DA:337,1
DA:340,1
DA:341,1
DA:342,1
DA:343,1
DA:344,1
DA:345,1
DA:346,1
DA:347,1
DA:348,1
DA:349,1
DA:350,1
DA:351,1
DA:352,1
DA:353,1
DA:354,1
DA:355,1
DA:356,1
DA:357,1
DA:358,1
DA:359,1
DA:360,25
DA:361,24
DA:362,24
DA:363,1
DA:364,1
DA:365,1
DA:366,1
DA:367,1
DA:368,1
DA:369,23
DA:371,1
DA:372,1
DA:373,1
DA:374,1
DA:375,1
DA:376,7
DA:377,6
DA:378,6
DA:379,0
DA:380,0
DA:381,0
DA:382,0
DA:383,0
DA:384,0
DA:385,6
DA:387,1
DA:388,1
DA:389,1
DA:390,1
DA:391,1
DA:392,1
DA:393,1
DA:394,25
DA:395,24
DA:396,24
DA:397,1
DA:398,1
DA:399,1
DA:400,1
DA:401,1
DA:402,1
DA:403,23
DA:406,1
DA:407,1
DA:455,1
DA:456,1
DA:457,1
DA:461,2
DA:462,2
DA:463,2
DA:467,0
DA:468,0
DA:469,0
DA:482,1
DA:483,1
DA:484,1
DA:485,1
DA:486,1
DA:487,1
DA:488,1
DA:491,1
DA:492,1
DA:493,1
DA:502,1
DA:503,1
DA:504,1
DA:505,1
DA:506,1
DA:507,1
DA:508,1
DA:509,1
DA:510,1
DA:511,1
DA:512,1
DA:513,1
DA:516,1
DA:517,1
DA:518,1
DA:519,1
DA:520,1
DA:521,1
DA:522,1
DA:523,1
DA:524,1
DA:525,1
DA:526,1
DA:529,1
DA:530,1
DA:531,1
DA:532,1
DA:534,1
DA:535,1
DA:536,1
DA:538,1
DA:539,1
DA:541,1
DA:542,1
DA:543,1
DA:546,1
DA:547,1
DA:548,1
DA:549,1
DA:550,1
DA:551,1
DA:552,1
DA:553,1
DA:554,1
DA:555,1
DA:556,1
DA:557,1
DA:560,1
DA:561,1
DA:562,1
DA:563,1
DA:564,1
DA:565,1
DA:566,1
DA:567,1
DA:568,1
DA:569,1
DA:570,1
DA:571,1
DA:572,1
DA:573,1
DA:576,1
DA:577,1
DA:578,1
DA:579,1
DA:580,1
DA:581,1
DA:582,1
DA:583,1
DA:584,1
DA:585,1
DA:586,1
DA:587,1
DA:588,1
DA:591,1
DA:592,1
DA:593,1
DA:594,1
DA:595,1
DA:596,1
DA:597,1
BRF:0
BRH:0
LF:288
LH:242
end_of_record
SF:/home/strandgate/Development/ecoPrimals/phase2/rhizoCrypt/crates/rhizo-crypt-rpc/src/rate_limit.rs
FN:222,_RNCNCNvMs2_NtCs4yQX48jEriP_15rhizo_crypt_rpc10rate_limitNtB9_11RateLimiter5check00Bb_
FN:239,_RNCNCNvMs2_NtCs4yQX48jEriP_15rhizo_crypt_rpc10rate_limitNtB9_11RateLimiter7cleanup00Bb_
FN:228,_RNCNvMs2_NtCs4yQX48jEriP_15rhizo_crypt_rpc10rate_limitNtB7_11RateLimiter12client_count0B9_
FN:215,_RNCNvMs2_NtCs4yQX48jEriP_15rhizo_crypt_rpc10rate_limitNtB7_11RateLimiter5check0B9_
FN:235,_RNCNvMs2_NtCs4yQX48jEriP_15rhizo_crypt_rpc10rate_limitNtB7_11RateLimiter7cleanup0B9_
FN:244,_RNvMs2_NtCs4yQX48jEriP_15rhizo_crypt_rpc10rate_limitNtB5_11RateLimiter10is_enabled
FN:249,_RNvMs2_NtCs4yQX48jEriP_15rhizo_crypt_rpc10rate_limitNtB5_11RateLimiter6enable
FN:254,_RNvMs2_NtCs4yQX48jEriP_15rhizo_crypt_rpc10rate_limitNtB5_11RateLimiter7disable
FN:71,_RNvMs_NtCs4yQX48jEriP_15rhizo_crypt_rpc10rate_limitNtB4_15RateLimitConfig8from_env
FN:269,_RNvXs3_NtCs4yQX48jEriP_15rhizo_crypt_rpc10rate_limitNtB5_17RateLimitExceededNtNtCs9sjCchOt1K7_4core3fmt7Display3fmt
FN:383,_RNvNtNtCs4yQX48jEriP_15rhizo_crypt_rpc10rate_limit5testss_19test_config_presets
FN:358,_RNvNtNtCs4yQX48jEriP_15rhizo_crypt_rpc10rate_limit5testss_25test_rate_limiter_cleanup
FN:324,_RNvNtNtCs4yQX48jEriP_15rhizo_crypt_rpc10rate_limit5testss_26test_rate_limiter_disabled
FN:335,_RNvNtNtCs4yQX48jEriP_15rhizo_crypt_rpc10rate_limit5testss_28test_rate_limiter_per_client
FN:283,_RNvNtNtCs4yQX48jEriP_15rhizo_crypt_rpc10rate_limit5testss_37test_rate_limiter_allows_within_limit
FN:302,_RNvNtNtCs4yQX48jEriP_15rhizo_crypt_rpc10rate_limit5testss_38test_rate_limiter_blocks_when_exceeded
FN:358,_RNCNvNtNtCs4yQX48jEriP_15rhizo_crypt_rpc10rate_limit5testss_25test_rate_limiter_cleanup0B7_
FN:324,_RNCNvNtNtCs4yQX48jEriP_15rhizo_crypt_rpc10rate_limit5testss_26test_rate_limiter_disabled0B7_
FN:335,_RNCNvNtNtCs4yQX48jEriP_15rhizo_crypt_rpc10rate_limit5testss_28test_rate_limiter_per_client0B7_
FN:283,_RNCNvNtNtCs4yQX48jEriP_15rhizo_crypt_rpc10rate_limit5testss_37test_rate_limiter_allows_within_limit0B7_
FN:302,_RNCNvNtNtCs4yQX48jEriP_15rhizo_crypt_rpc10rate_limit5testss_38test_rate_limiter_blocks_when_exceeded0B7_
FN:138,_RNvMs0_NtCs4yQX48jEriP_15rhizo_crypt_rpc10rate_limitNtB5_11TokenBucket11try_consume
FN:121,_RNvMs0_NtCs4yQX48jEriP_15rhizo_crypt_rpc10rate_limitNtB5_11TokenBucket3new
FN:131,_RNvMs0_NtCs4yQX48jEriP_15rhizo_crypt_rpc10rate_limitNtB5_11TokenBucket6refill
FN:168,_RNvMs1_NtCs4yQX48jEriP_15rhizo_crypt_rpc10rate_limitNtB5_11ClientState11try_consume
FN:159,_RNvMs1_NtCs4yQX48jEriP_15rhizo_crypt_rpc10rate_limitNtB5_11ClientState3new
FN:228,_RNvMs2_NtCs4yQX48jEriP_15rhizo_crypt_rpc10rate_limitNtB5_11RateLimiter12client_count
FN:193,_RNvMs2_NtCs4yQX48jEriP_15rhizo_crypt_rpc10rate_limitNtB5_11RateLimiter3new
FN:215,_RNvMs2_NtCs4yQX48jEriP_15rhizo_crypt_rpc10rate_limitNtB5_11RateLimiter5check
FN:235,_RNvMs2_NtCs4yQX48jEriP_15rhizo_crypt_rpc10rate_limitNtB5_11RateLimiter7cleanup
FN:204,_RNvMs2_NtCs4yQX48jEriP_15rhizo_crypt_rpc10rate_limitNtB5_11RateLimiter8disabled
FN:42,_RNvMs_NtCs4yQX48jEriP_15rhizo_crypt_rpc10rate_limitNtB4_15RateLimitConfig10production
FN:54,_RNvMs_NtCs4yQX48jEriP_15rhizo_crypt_rpc10rate_limitNtB4_15RateLimitConfig11development
FN:28,_RNvXNtCs4yQX48jEriP_15rhizo_crypt_rpc10rate_limitNtB2_15RateLimitConfigNtNtCs9sjCchOt1K7_4core7default7Default7default
FNDA:5,_RNCNCNvMs2_NtCs4yQX48jEriP_15rhizo_crypt_rpc10rate_limitNtB9_11RateLimiter5check00Bb_
FNDA:1,_RNCNCNvMs2_NtCs4yQX48jEriP_15rhizo_crypt_rpc10rate_limitNtB9_11RateLimiter7cleanup00Bb_
FNDA:2,_RNCNvMs2_NtCs4yQX48jEriP_15rhizo_crypt_rpc10rate_limitNtB7_11RateLimiter12client_count0B9_
FNDA:1038,_RNCNvMs2_NtCs4yQX48jEriP_15rhizo_crypt_rpc10rate_limitNtB7_11RateLimiter5check0B9_
FNDA:1,_RNCNvMs2_NtCs4yQX48jEriP_15rhizo_crypt_rpc10rate_limitNtB7_11RateLimiter7cleanup0B9_
FNDA:0,_RNvMs2_NtCs4yQX48jEriP_15rhizo_crypt_rpc10rate_limitNtB5_11RateLimiter10is_enabled
FNDA:0,_RNvMs2_NtCs4yQX48jEriP_15rhizo_crypt_rpc10rate_limitNtB5_11RateLimiter6enable
FNDA:0,_RNvMs2_NtCs4yQX48jEriP_15rhizo_crypt_rpc10rate_limitNtB5_11RateLimiter7disable
FNDA:0,_RNvMs_NtCs4yQX48jEriP_15rhizo_crypt_rpc10rate_limitNtB4_15RateLimitConfig8from_env
FNDA:0,_RNvXs3_NtCs4yQX48jEriP_15rhizo_crypt_rpc10rate_limitNtB5_17RateLimitExceededNtNtCs9sjCchOt1K7_4core3fmt7Display3fmt
FNDA:1,_RNvNtNtCs4yQX48jEriP_15rhizo_crypt_rpc10rate_limit5testss_19test_config_presets
FNDA:1,_RNvNtNtCs4yQX48jEriP_15rhizo_crypt_rpc10rate_limit5testss_25test_rate_limiter_cleanup
FNDA:1,_RNvNtNtCs4yQX48jEriP_15rhizo_crypt_rpc10rate_limit5testss_26test_rate_limiter_disabled
FNDA:1,_RNvNtNtCs4yQX48jEriP_15rhizo_crypt_rpc10rate_limit5testss_28test_rate_limiter_per_client
FNDA:1,_RNvNtNtCs4yQX48jEriP_15rhizo_crypt_rpc10rate_limit5testss_37test_rate_limiter_allows_within_limit
FNDA:1,_RNvNtNtCs4yQX48jEriP_15rhizo_crypt_rpc10rate_limit5testss_38test_rate_limiter_blocks_when_exceeded
FNDA:1,_RNCNvNtNtCs4yQX48jEriP_15rhizo_crypt_rpc10rate_limit5testss_25test_rate_limiter_cleanup0B7_
FNDA:1,_RNCNvNtNtCs4yQX48jEriP_15rhizo_crypt_rpc10rate_limit5testss_26test_rate_limiter_disabled0B7_
FNDA:1,_RNCNvNtNtCs4yQX48jEriP_15rhizo_crypt_rpc10rate_limit5testss_28test_rate_limiter_per_client0B7_
FNDA:1,_RNCNvNtNtCs4yQX48jEriP_15rhizo_crypt_rpc10rate_limit5testss_37test_rate_limiter_allows_within_limit0B7_
FNDA:1,_RNCNvNtNtCs4yQX48jEriP_15rhizo_crypt_rpc10rate_limit5testss_38test_rate_limiter_blocks_when_exceeded0B7_
FNDA:38,_RNvMs0_NtCs4yQX48jEriP_15rhizo_crypt_rpc10rate_limitNtB5_11TokenBucket11try_consume
FNDA:15,_RNvMs0_NtCs4yQX48jEriP_15rhizo_crypt_rpc10rate_limitNtB5_11TokenBucket3new
FNDA:38,_RNvMs0_NtCs4yQX48jEriP_15rhizo_crypt_rpc10rate_limitNtB5_11TokenBucket6refill
FNDA:38,_RNvMs1_NtCs4yQX48jEriP_15rhizo_crypt_rpc10rate_limitNtB5_11ClientState11try_consume
FNDA:5,_RNvMs1_NtCs4yQX48jEriP_15rhizo_crypt_rpc10rate_limitNtB5_11ClientState3new
FNDA:2,_RNvMs2_NtCs4yQX48jEriP_15rhizo_crypt_rpc10rate_limitNtB5_11RateLimiter12client_count
FNDA:4,_RNvMs2_NtCs4yQX48jEriP_15rhizo_crypt_rpc10rate_limitNtB5_11RateLimiter3new
FNDA:1038,_RNvMs2_NtCs4yQX48jEriP_15rhizo_crypt_rpc10rate_limitNtB5_11RateLimiter5check
FNDA:1,_RNvMs2_NtCs4yQX48jEriP_15rhizo_crypt_rpc10rate_limitNtB5_11RateLimiter7cleanup
FNDA:1,_RNvMs2_NtCs4yQX48jEriP_15rhizo_crypt_rpc10rate_limitNtB5_11RateLimiter8disabled
FNDA:1,_RNvMs_NtCs4yQX48jEriP_15rhizo_crypt_rpc10rate_limitNtB4_15RateLimitConfig10production
FNDA:1,_RNvMs_NtCs4yQX48jEriP_15rhizo_crypt_rpc10rate_limitNtB4_15RateLimitConfig11development
FNDA:1,_RNvXNtCs4yQX48jEriP_15rhizo_crypt_rpc10rate_limitNtB2_15RateLimitConfigNtNtCs9sjCchOt1K7_4core7default7Default7default
FNF:34
FNH:29
DA:28,1
DA:29,1
DA:30,1
DA:31,1
DA:32,1
DA:33,1
DA:34,1
DA:35,1
DA:36,1
DA:42,1
DA:43,1
DA:44,1
DA:45,1
DA:46,1
DA:47,1
DA:48,1
DA:49,1
DA:50,1
DA:54,1
DA:55,1
DA:56,1
DA:57,1
DA:58,1
DA:59,1
DA:60,1
DA:61,1
DA:62,1
DA:71,0
DA:72,0
DA:74,0
DA:75,0
DA:76,0
DA:77,0
DA:78,0
DA:80,0
DA:81,0
DA:82,0
DA:83,0
DA:84,0
DA:86,0
DA:87,0
DA:88,0
DA:89,0
DA:90,0
DA:92,0
DA:93,0
DA:121,15
DA:122,15
DA:123,15
DA:124,15
DA:125,15
DA:126,15
DA:127,15
DA:128,15
DA:129,15
DA:131,38
DA:132,38
DA:133,38
DA:134,38
DA:135,38
DA:136,38
DA:138,38
DA:139,38
DA:140,38
DA:141,37
DA:142,37
DA:144,1
DA:146,38
DA:159,5
DA:160,5
DA:161,5
DA:162,5
DA:163,5
DA:164,5
DA:165,5
DA:166,5
DA:168,38
DA:169,38
DA:170,38
DA:171,38
DA:172,0
DA:173,0
DA:175,38
DA:193,4
DA:194,4
DA:195,4
DA:196,4
DA:197,4
DA:198,4
DA:199,4
DA:204,1
DA:205,1
DA:206,1
DA:207,1
DA:208,1
DA:209,1
DA:210,1
DA:215,1038
DA:216,1038
DA:217,1000
DA:218,38
DA:220,38
DA:222,38
DA:223,38
DA:224,38
DA:225,1038
DA:228,2
DA:229,2
DA:230,2
DA:235,1
DA:236,1
DA:237,1
DA:238,1
DA:239,1
DA:240,1
DA:244,0
DA:245,0
DA:246,0
DA:249,0
DA:250,0
DA:251,0
DA:254,0
DA:255,0
DA:256,0
DA:269,0
DA:270,0
DA:271,0
DA:283,1
DA:284,1
DA:285,1
DA:286,1
DA:287,1
DA:288,1
DA:289,1
DA:290,1
DA:291,1
DA:292,1
DA:293,1
DA:294,1
DA:295,1
DA:296,21
DA:297,20
DA:298,1
DA:299,1
DA:302,1
DA:303,1
DA:304,1
DA:305,1
DA:306,1
DA:307,1
DA:308,1
DA:309,1
DA:310,1
DA:311,1
DA:312,1
DA:313,1
DA:314,1
DA:315,11
DA:316,10
DA:317,1
DA:318,1
DA:319,1
DA:320,1
DA:321,1
DA:324,1
DA:325,1
DA:326,1
DA:327,1
DA:328,1
DA:329,1001
DA:330,1000
DA:331,1
DA:332,1
DA:335,1
DA:336,1
DA:337,1
DA:338,1
DA:339,1
DA:340,1
DA:341,1
DA:342,1
DA:343,1
DA:344,1
DA:345,1
DA:346,1
DA:347,1
DA:348,1
DA:349,6
DA:350,5
DA:351,1
DA:352,1
DA:353,1
DA:354,1
DA:355,1
DA:358,1
DA:359,1
DA:360,1
DA:361,1
DA:362,1
DA:363,1
DA:364,1
DA:365,1
DA:366,1
DA:367,1
DA:368,1
DA:369,1
DA:370,1
DA:371,1
DA:372,1
DA:373,1
DA:374,1
DA:375,1
DA:376,1
DA:377,1
DA:378,1
DA:379,1
DA:380,1
DA:383,1
DA:384,1
DA:385,1
DA:387,1
DA:388,1
DA:389,1
BRF:0
BRH:0
LF:293
LH:260
end_of_record
SF:/home/strandgate/Development/ecoPrimals/phase2/rhizoCrypt/crates/rhizo-crypt-rpc/src/server.rs
FN:62,_RNCNCNCNCNCNvMNtCs4yQX48jEriP_15rhizo_crypt_rpc6serverNtBc_9RpcServer5serve0s0_0000Be_
FN:64,_RNCNCNCNCNvMNtCs4yQX48jEriP_15rhizo_crypt_rpc6serverNtBa_9RpcServer5serve0s0_000Bc_
FN:53,_RNCNCNCNvMNtCs4yQX48jEriP_15rhizo_crypt_rpc6serverNtB8_9RpcServer5serve000Ba_
FN:59,_RNCNCNCNvMNtCs4yQX48jEriP_15rhizo_crypt_rpc6serverNtB8_9RpcServer5serve0s0_00Ba_
FN:53,_RNCNCNvMNtCs4yQX48jEriP_15rhizo_crypt_rpc6serverNtB6_9RpcServer5serve00B8_
FN:56,_RNCNCNvMNtCs4yQX48jEriP_15rhizo_crypt_rpc6serverNtB6_9RpcServer5serve0s0_0B8_
FN:43,_RNCNvMNtCs4yQX48jEriP_15rhizo_crypt_rpc6serverNtB4_9RpcServer5serve0B6_
FN:43,_RNvMNtCs4yQX48jEriP_15rhizo_crypt_rpc6serverNtB2_9RpcServer5serve
FN:118,_RNvNtNtCs4yQX48jEriP_15rhizo_crypt_rpc6server5testss_20test_server_creation
FN:142,_RNvNtNtCs4yQX48jEriP_15rhizo_crypt_rpc6server5testss_22test_shutdown_receiver
FN:129,_RNvNtNtCs4yQX48jEriP_15rhizo_crypt_rpc6server5testss_23test_server_custom_port
FN:92,_RNvMNtCs4yQX48jEriP_15rhizo_crypt_rpc6serverNtB2_9RpcServer10is_running
FN:106,_RNvMNtCs4yQX48jEriP_15rhizo_crypt_rpc6serverNtB2_9RpcServer17shutdown_receiver
FN:28,_RNvMNtCs4yQX48jEriP_15rhizo_crypt_rpc6serverNtB2_9RpcServer3new
FN:98,_RNvMNtCs4yQX48jEriP_15rhizo_crypt_rpc6serverNtB2_9RpcServer4addr
FN:84,_RNvMNtCs4yQX48jEriP_15rhizo_crypt_rpc6serverNtB2_9RpcServer8shutdown
FN:62,_RNCNCNCNCNCNvMNtCs1VabqvUvyvp_15rhizo_crypt_rpc6serverNtBc_9RpcServer5serve0s0_0000CscGNtvOf38BJ_15rpc_integration
FN:64,_RNCNCNCNCNvMNtCs1VabqvUvyvp_15rhizo_crypt_rpc6serverNtBa_9RpcServer5serve0s0_000CscGNtvOf38BJ_15rpc_integration
FN:53,_RNCNCNCNvMNtCs1VabqvUvyvp_15rhizo_crypt_rpc6serverNtB8_9RpcServer5serve000CscGNtvOf38BJ_15rpc_integration
FN:59,_RNCNCNCNvMNtCs1VabqvUvyvp_15rhizo_crypt_rpc6serverNtB8_9RpcServer5serve0s0_00CscGNtvOf38BJ_15rpc_integration
FN:53,_RNCNCNvMNtCs1VabqvUvyvp_15rhizo_crypt_rpc6serverNtB6_9RpcServer5serve00CscGNtvOf38BJ_15rpc_integration
FN:56,_RNCNCNvMNtCs1VabqvUvyvp_15rhizo_crypt_rpc6serverNtB6_9RpcServer5serve0s0_0CscGNtvOf38BJ_15rpc_integration
FN:43,_RNCNvMNtCs1VabqvUvyvp_15rhizo_crypt_rpc6serverNtB4_9RpcServer5serve0CscGNtvOf38BJ_15rpc_integration
FN:92,_RNvMNtCs1VabqvUvyvp_15rhizo_crypt_rpc6serverNtB2_9RpcServer10is_running
FN:106,_RNvMNtCs1VabqvUvyvp_15rhizo_crypt_rpc6serverNtB2_9RpcServer17shutdown_receiver
FN:28,_RNvMNtCs1VabqvUvyvp_15rhizo_crypt_rpc6serverNtB2_9RpcServer3new
FN:98,_RNvMNtCs1VabqvUvyvp_15rhizo_crypt_rpc6serverNtB2_9RpcServer4addr
FN:43,_RNvMNtCs1VabqvUvyvp_15rhizo_crypt_rpc6serverNtB2_9RpcServer5serve
FN:84,_RNvMNtCs1VabqvUvyvp_15rhizo_crypt_rpc6serverNtB2_9RpcServer8shutdown
FNDA:0,_RNCNCNCNCNCNvMNtCs4yQX48jEriP_15rhizo_crypt_rpc6serverNtBc_9RpcServer5serve0s0_0000Be_
FNDA:0,_RNCNCNCNCNvMNtCs4yQX48jEriP_15rhizo_crypt_rpc6serverNtBa_9RpcServer5serve0s0_000Bc_
FNDA:0,_RNCNCNCNvMNtCs4yQX48jEriP_15rhizo_crypt_rpc6serverNtB8_9RpcServer5serve000Ba_
FNDA:0,_RNCNCNCNvMNtCs4yQX48jEriP_15rhizo_crypt_rpc6serverNtB8_9RpcServer5serve0s0_00Ba_
FNDA:0,_RNCNCNvMNtCs4yQX48jEriP_15rhizo_crypt_rpc6serverNtB6_9RpcServer5serve00B8_
FNDA:0,_RNCNCNvMNtCs4yQX48jEriP_15rhizo_crypt_rpc6serverNtB6_9RpcServer5serve0s0_0B8_
FNDA:0,_RNCNvMNtCs4yQX48jEriP_15rhizo_crypt_rpc6serverNtB4_9RpcServer5serve0B6_
FNDA:0,_RNvMNtCs4yQX48jEriP_15rhizo_crypt_rpc6serverNtB2_9RpcServer5serve
FNDA:1,_RNvNtNtCs4yQX48jEriP_15rhizo_crypt_rpc6server5testss_20test_server_creation
FNDA:1,_RNvNtNtCs4yQX48jEriP_15rhizo_crypt_rpc6server5testss_22test_shutdown_receiver
FNDA:1,_RNvNtNtCs4yQX48jEriP_15rhizo_crypt_rpc6server5testss_23test_server_custom_port
FNDA:1,_RNvMNtCs4yQX48jEriP_15rhizo_crypt_rpc6serverNtB2_9RpcServer10is_running
FNDA:1,_RNvMNtCs4yQX48jEriP_15rhizo_crypt_rpc6serverNtB2_9RpcServer17shutdown_receiver
FNDA:2,_RNvMNtCs4yQX48jEriP_15rhizo_crypt_rpc6serverNtB2_9RpcServer3new
FNDA:1,_RNvMNtCs4yQX48jEriP_15rhizo_crypt_rpc6serverNtB2_9RpcServer4addr
FNDA:1,_RNvMNtCs4yQX48jEriP_15rhizo_crypt_rpc6serverNtB2_9RpcServer8shutdown
FNDA:46,_RNCNCNCNCNCNvMNtCs1VabqvUvyvp_15rhizo_crypt_rpc6serverNtBc_9RpcServer5serve0s0_0000CscGNtvOf38BJ_15rpc_integration
FNDA:46,_RNCNCNCNCNvMNtCs1VabqvUvyvp_15rhizo_crypt_rpc6serverNtBa_9RpcServer5serve0s0_000CscGNtvOf38BJ_15rpc_integration
FNDA:10,_RNCNCNCNvMNtCs1VabqvUvyvp_15rhizo_crypt_rpc6serverNtB8_9RpcServer5serve000CscGNtvOf38BJ_15rpc_integration
FNDA:10,_RNCNCNCNvMNtCs1VabqvUvyvp_15rhizo_crypt_rpc6serverNtB8_9RpcServer5serve0s0_00CscGNtvOf38BJ_15rpc_integration
FNDA:10,_RNCNCNvMNtCs1VabqvUvyvp_15rhizo_crypt_rpc6serverNtB6_9RpcServer5serve00CscGNtvOf38BJ_15rpc_integration
FNDA:10,_RNCNCNvMNtCs1VabqvUvyvp_15rhizo_crypt_rpc6serverNtB6_9RpcServer5serve0s0_0CscGNtvOf38BJ_15rpc_integration
FNDA:10,_RNCNvMNtCs1VabqvUvyvp_15rhizo_crypt_rpc6serverNtB4_9RpcServer5serve0CscGNtvOf38BJ_15rpc_integration
FNDA:0,_RNvMNtCs1VabqvUvyvp_15rhizo_crypt_rpc6serverNtB2_9RpcServer10is_running
FNDA:0,_RNvMNtCs1VabqvUvyvp_15rhizo_crypt_rpc6serverNtB2_9RpcServer17shutdown_receiver
FNDA:10,_RNvMNtCs1VabqvUvyvp_15rhizo_crypt_rpc6serverNtB2_9RpcServer3new
FNDA:0,_RNvMNtCs1VabqvUvyvp_15rhizo_crypt_rpc6serverNtB2_9RpcServer4addr
FNDA:10,_RNvMNtCs1VabqvUvyvp_15rhizo_crypt_rpc6serverNtB2_9RpcServer5serve
FNDA:0,_RNvMNtCs1VabqvUvyvp_15rhizo_crypt_rpc6serverNtB2_9RpcServer8shutdown
FNF:16
FNH:16
DA:28,12
DA:29,12
DA:30,12
DA:31,12
DA:32,12
DA:33,12
DA:34,12
DA:35,12
DA:36,12
DA:37,12
DA:43,10
DA:44,10
DA:45,10
DA:46,10
DA:48,10
DA:49,10
DA:50,10
DA:51,10
DA:52,10
DA:53,10
DA:54,10
DA:55,10
DA:56,10
DA:57,10
DA:59,10
DA:60,10
DA:61,10
DA:62,46
DA:63,46
DA:64,92
DA:65,10
DA:66,10
DA:67,10
DA:68,10
DA:69,10
DA:70,0
DA:74,0
DA:75,0
DA:77,0
DA:78,0
DA:84,1
DA:85,1
DA:86,0
DA:87,1
DA:88,1
DA:92,1
DA:93,1
DA:94,1
DA:98,1
DA:99,1
DA:100,1
DA:106,1
DA:107,1
DA:108,1
DA:118,1
DA:119,1
DA:120,1
DA:121,1
DA:122,1
DA:123,1
DA:124,1
DA:125,1
DA:126,1
DA:129,1
DA:132,1
DA:133,1
DA:134,1
DA:135,1
DA:136,1
DA:137,1
DA:138,1
DA:139,1
DA:142,1
DA:143,1
DA:144,1
DA:145,1
DA:146,1
DA:147,1
DA:148,1
DA:149,1
DA:150,1
DA:151,1
DA:154,1
DA:155,1
DA:156,1
DA:157,1
DA:158,1
BRF:0
BRH:0
LF:95
LH:89
end_of_record
SF:/home/strandgate/Development/ecoPrimals/phase2/rhizoCrypt/crates/rhizo-crypt-rpc/src/service.rs
FN:144,_RINvMsg_NtCs4yQX48jEriP_15rhizo_crypt_rpc7serviceNtB6_19RhizoCryptRpcClient3newpEB8_
FN:398,_RNCNCNvXs_NtCs4yQX48jEriP_15rhizo_crypt_rpc7serviceNtB8_19RhizoCryptRpcServerNtB8_13RhizoCryptRpc10get_vertex00Ba_
FN:423,_RNCNCNvXs_NtCs4yQX48jEriP_15rhizo_crypt_rpc7serviceNtB8_19RhizoCryptRpcServerNtB8_13RhizoCryptRpc11get_genesis00Ba_
FN:317,_RNCNCNvXs_NtCs4yQX48jEriP_15rhizo_crypt_rpc7serviceNtB8_19RhizoCryptRpcServerNtB8_13RhizoCryptRpc11get_session00Ba_
FN:383,_RNCNCNvXs_NtCs4yQX48jEriP_15rhizo_crypt_rpc7serviceNtB8_19RhizoCryptRpcServerNtB8_13RhizoCryptRpc12append_batch00Ba_
FN:358,_RNCNCNvXs_NtCs4yQX48jEriP_15rhizo_crypt_rpc7serviceNtB8_19RhizoCryptRpcServerNtB8_13RhizoCryptRpc12append_event00Ba_
FN:448,_RNCNCNvXs_NtCs4yQX48jEriP_15rhizo_crypt_rpc7serviceNtB8_19RhizoCryptRpcServerNtB8_13RhizoCryptRpc12get_children00Ba_
FN:453,_RNCNCNvXs_NtCs4yQX48jEriP_15rhizo_crypt_rpc7serviceNtB8_19RhizoCryptRpcServerNtB8_13RhizoCryptRpc12get_children0s_0Ba_
FN:410,_RNCNCNvXs_NtCs4yQX48jEriP_15rhizo_crypt_rpc7serviceNtB8_19RhizoCryptRpcServerNtB8_13RhizoCryptRpc12get_frontier00Ba_
FN:553,_RNCNCNvXs_NtCs4yQX48jEriP_15rhizo_crypt_rpc7serviceNtB8_19RhizoCryptRpcServerNtB8_13RhizoCryptRpc13resolve_slice00Ba_
FN:524,_RNCNCNvXs_NtCs4yQX48jEriP_15rhizo_crypt_rpc7serviceNtB8_19RhizoCryptRpcServerNtB8_13RhizoCryptRpc14checkout_slice00Ba_
FN:305,_RNCNCNvXs_NtCs4yQX48jEriP_15rhizo_crypt_rpc7serviceNtB8_19RhizoCryptRpcServerNtB8_13RhizoCryptRpc14create_session00Ba_
FN:434,_RNCNCNvXs_NtCs4yQX48jEriP_15rhizo_crypt_rpc7serviceNtB8_19RhizoCryptRpcServerNtB8_13RhizoCryptRpc14query_vertices00Ba_
FN:439,_RNCNCNvXs_NtCs4yQX48jEriP_15rhizo_crypt_rpc7serviceNtB8_19RhizoCryptRpcServerNtB8_13RhizoCryptRpc14query_vertices0s_0Ba_
FN:332,_RNCNCNvXs_NtCs4yQX48jEriP_15rhizo_crypt_rpc7serviceNtB8_19RhizoCryptRpcServerNtB8_13RhizoCryptRpc15discard_session00Ba_
FN:461,_RNCNCNvXs_NtCs4yQX48jEriP_15rhizo_crypt_rpc7serviceNtB8_19RhizoCryptRpcServerNtB8_13RhizoCryptRpc15get_merkle_root00Ba_
FN:473,_RNCNCNvXs_NtCs4yQX48jEriP_15rhizo_crypt_rpc7serviceNtB8_19RhizoCryptRpcServerNtB8_13RhizoCryptRpc16get_merkle_proof00Ba_
FN:561,_RNCNCNvXs_NtCs4yQX48jEriP_15rhizo_crypt_rpc7serviceNtB8_19RhizoCryptRpcServerNtB8_13RhizoCryptRpc9dehydrate00Ba_
FN:532,_RNCNCNvXs_NtCs4yQX48jEriP_15rhizo_crypt_rpc7serviceNtB8_19RhizoCryptRpcServerNtB8_13RhizoCryptRpc9get_slice00Ba_
FN:144,_RNCNvMsi_NtCs4yQX48jEriP_15rhizo_crypt_rpc7serviceINtB7_19RhizoCryptRpcClientpE10get_vertex0B9_
FN:144,_RNCNvMsi_NtCs4yQX48jEriP_15rhizo_crypt_rpc7serviceINtB7_19RhizoCryptRpcClientpE11get_genesis0B9_
FN:144,_RNCNvMsi_NtCs4yQX48jEriP_15rhizo_crypt_rpc7serviceINtB7_19RhizoCryptRpcClientpE11get_session0B9_
FN:144,_RNCNvMsi_NtCs4yQX48jEriP_15rhizo_crypt_rpc7serviceINtB7_19RhizoCryptRpcClientpE11list_slices0B9_
FN:144,_RNCNvMsi_NtCs4yQX48jEriP_15rhizo_crypt_rpc7serviceINtB7_19RhizoCryptRpcClientpE12append_batch0B9_
FN:144,_RNCNvMsi_NtCs4yQX48jEriP_15rhizo_crypt_rpc7serviceINtB7_19RhizoCryptRpcClientpE12append_event0B9_
FN:144,_RNCNvMsi_NtCs4yQX48jEriP_15rhizo_crypt_rpc7serviceINtB7_19RhizoCryptRpcClientpE12get_children0B9_
FN:144,_RNCNvMsi_NtCs4yQX48jEriP_15rhizo_crypt_rpc7serviceINtB7_19RhizoCryptRpcClientpE12get_frontier0B9_
FN:144,_RNCNvMsi_NtCs4yQX48jEriP_15rhizo_crypt_rpc7serviceINtB7_19RhizoCryptRpcClientpE12verify_proof0B9_
FN:144,_RNCNvMsi_NtCs4yQX48jEriP_15rhizo_crypt_rpc7serviceINtB7_19RhizoCryptRpcClientpE13list_sessions0B9_
FN:144,_RNCNvMsi_NtCs4yQX48jEriP_15rhizo_crypt_rpc7serviceINtB7_19RhizoCryptRpcClientpE13resolve_slice0B9_
FN:144,_RNCNvMsi_NtCs4yQX48jEriP_15rhizo_crypt_rpc7serviceINtB7_19RhizoCryptRpcClientpE14checkout_slice0B9_
FN:144,_RNCNvMsi_NtCs4yQX48jEriP_15rhizo_crypt_rpc7serviceINtB7_19RhizoCryptRpcClientpE14create_session0B9_
FN:144,_RNCNvMsi_NtCs4yQX48jEriP_15rhizo_crypt_rpc7serviceINtB7_19RhizoCryptRpcClientpE14query_vertices0B9_
FN:144,_RNCNvMsi_NtCs4yQX48jEriP_15rhizo_crypt_rpc7serviceINtB7_19RhizoCryptRpcClientpE15discard_session0B9_
FN:144,_RNCNvMsi_NtCs4yQX48jEriP_15rhizo_crypt_rpc7serviceINtB7_19RhizoCryptRpcClientpE15get_merkle_root0B9_
FN:144,_RNCNvMsi_NtCs4yQX48jEriP_15rhizo_crypt_rpc7serviceINtB7_19RhizoCryptRpcClientpE16get_merkle_proof0B9_
FN:144,_RNCNvMsi_NtCs4yQX48jEriP_15rhizo_crypt_rpc7serviceINtB7_19RhizoCryptRpcClientpE22get_dehydration_status0B9_
FN:144,_RNCNvMsi_NtCs4yQX48jEriP_15rhizo_crypt_rpc7serviceINtB7_19RhizoCryptRpcClientpE6health0B9_
FN:144,_RNCNvMsi_NtCs4yQX48jEriP_15rhizo_crypt_rpc7serviceINtB7_19RhizoCryptRpcClientpE7metrics0B9_
FN:144,_RNCNvMsi_NtCs4yQX48jEriP_15rhizo_crypt_rpc7serviceINtB7_19RhizoCryptRpcClientpE9dehydrate0B9_
FN:144,_RNCNvMsi_NtCs4yQX48jEriP_15rhizo_crypt_rpc7serviceINtB7_19RhizoCryptRpcClientpE9get_slice0B9_
FN:394,_RNCNvXs_NtCs4yQX48jEriP_15rhizo_crypt_rpc7serviceNtB6_19RhizoCryptRpcServerNtB6_13RhizoCryptRpc10get_vertex0B8_
FN:418,_RNCNvXs_NtCs4yQX48jEriP_15rhizo_crypt_rpc7serviceNtB6_19RhizoCryptRpcServerNtB6_13RhizoCryptRpc11get_genesis0B8_
FN:312,_RNCNvXs_NtCs4yQX48jEriP_15rhizo_crypt_rpc7serviceNtB6_19RhizoCryptRpcServerNtB6_13RhizoCryptRpc11get_session0B8_
FN:538,_RNCNvXs_NtCs4yQX48jEriP_15rhizo_crypt_rpc7serviceNtB6_19RhizoCryptRpcServerNtB6_13RhizoCryptRpc11list_slices0B8_
FN:365,_RNCNvXs_NtCs4yQX48jEriP_15rhizo_crypt_rpc7serviceNtB6_19RhizoCryptRpcServerNtB6_13RhizoCryptRpc12append_batch0B8_
FN:339,_RNCNvXs_NtCs4yQX48jEriP_15rhizo_crypt_rpc7serviceNtB6_19RhizoCryptRpcServerNtB6_13RhizoCryptRpc12append_event0B8_
FN:447,_RNCNvXs_NtCs4yQX48jEriP_15rhizo_crypt_rpc7serviceNtB6_19RhizoCryptRpcServerNtB6_13RhizoCryptRpc12get_children0B8_
FN:405,_RNCNvXs_NtCs4yQX48jEriP_15rhizo_crypt_rpc7serviceNtB6_19RhizoCryptRpcServerNtB6_13RhizoCryptRpc12get_frontier0B8_
FN:481,_RNCNvXs_NtCs4yQX48jEriP_15rhizo_crypt_rpc7serviceNtB6_19RhizoCryptRpcServerNtB6_13RhizoCryptRpc12verify_proof0B8_
FN:322,_RNCNvXs_NtCs4yQX48jEriP_15rhizo_crypt_rpc7serviceNtB6_19RhizoCryptRpcServerNtB6_13RhizoCryptRpc13list_sessions0B8_
FN:547,_RNCNvXs_NtCs4yQX48jEriP_15rhizo_crypt_rpc7serviceNtB6_19RhizoCryptRpcServerNtB6_13RhizoCryptRpc13resolve_slice0B8_
FN:504,_RNCNvXs_NtCs4yQX48jEriP_15rhizo_crypt_rpc7serviceNtB6_19RhizoCryptRpcServerNtB6_13RhizoCryptRpc14checkout_slice0B8_
FN:289,_RNCNvXs_NtCs4yQX48jEriP_15rhizo_crypt_rpc7serviceNtB6_19RhizoCryptRpcServerNtB6_13RhizoCryptRpc14create_session0B8_
FN:431,_RNCNvXs_NtCs4yQX48jEriP_15rhizo_crypt_rpc7serviceNtB6_19RhizoCryptRpcServerNtB6_13RhizoCryptRpc14query_vertices0B8_
FN:331,_RNCNvXs_NtCs4yQX48jEriP_15rhizo_crypt_rpc7serviceNtB6_19RhizoCryptRpcServerNtB6_13RhizoCryptRpc15discard_session0B8_
FN:460,_RNCNvXs_NtCs4yQX48jEriP_15rhizo_crypt_rpc7serviceNtB6_19RhizoCryptRpcServerNtB6_13RhizoCryptRpc15get_merkle_root0B8_
FN:469,_RNCNvXs_NtCs4yQX48jEriP_15rhizo_crypt_rpc7serviceNtB6_19RhizoCryptRpcServerNtB6_13RhizoCryptRpc16get_merkle_proof0B8_
FN:568,_RNCNvXs_NtCs4yQX48jEriP_15rhizo_crypt_rpc7serviceNtB6_19RhizoCryptRpcServerNtB6_13RhizoCryptRpc22get_dehydration_status0B8_
FN:572,_RNCNvXs_NtCs4yQX48jEriP_15rhizo_crypt_rpc7serviceNtB6_19RhizoCryptRpcServerNtB6_13RhizoCryptRpc6health0B8_
FN:588,_RNCNvXs_NtCs4yQX48jEriP_15rhizo_crypt_rpc7serviceNtB6_19RhizoCryptRpcServerNtB6_13RhizoCryptRpc7metrics0B8_
FN:560,_RNCNvXs_NtCs4yQX48jEriP_15rhizo_crypt_rpc7serviceNtB6_19RhizoCryptRpcServerNtB6_13RhizoCryptRpc9dehydrate0B8_
FN:531,_RNCNvXs_NtCs4yQX48jEriP_15rhizo_crypt_rpc7serviceNtB6_19RhizoCryptRpcServerNtB6_13RhizoCryptRpc9get_slice0B8_
FN:276,_RNvMNtCs4yQX48jEriP_15rhizo_crypt_rpc7serviceNtB2_19RhizoCryptRpcServer3new
FN:254,_RNvNtCs4yQX48jEriP_15rhizo_crypt_rpc7service15session_to_info
FN:144,_RNvXININtCs4yQX48jEriP_15rhizo_crypt_rpc7servicesh_0pEINtB5_19RhizoCryptRpcClientpEINtNtCs9sjCchOt1K7_4core7convert4FrompE4fromB7_
FN:389,_RNvXs_NtCs4yQX48jEriP_15rhizo_crypt_rpc7serviceNtB4_19RhizoCryptRpcServerNtB4_13RhizoCryptRpc10get_vertex
FN:414,_RNvXs_NtCs4yQX48jEriP_15rhizo_crypt_rpc7serviceNtB4_19RhizoCryptRpcServerNtB4_13RhizoCryptRpc11get_genesis
FN:308,_RNvXs_NtCs4yQX48jEriP_15rhizo_crypt_rpc7serviceNtB4_19RhizoCryptRpcServerNtB4_13RhizoCryptRpc11get_session
FN:535,_RNvXs_NtCs4yQX48jEriP_15rhizo_crypt_rpc7serviceNtB4_19RhizoCryptRpcServerNtB4_13RhizoCryptRpc11list_slices
FN:361,_RNvXs_NtCs4yQX48jEriP_15rhizo_crypt_rpc7serviceNtB4_19RhizoCryptRpcServerNtB4_13RhizoCryptRpc12append_batch
FN:335,_RNvXs_NtCs4yQX48jEriP_15rhizo_crypt_rpc7serviceNtB4_19RhizoCryptRpcServerNtB4_13RhizoCryptRpc12append_event
FN:442,_RNvXs_NtCs4yQX48jEriP_15rhizo_crypt_rpc7serviceNtB4_19RhizoCryptRpcServerNtB4_13RhizoCryptRpc12get_children
FN:401,_RNvXs_NtCs4yQX48jEriP_15rhizo_crypt_rpc7serviceNtB4_19RhizoCryptRpcServerNtB4_13RhizoCryptRpc12get_frontier
FN:476,_RNvXs_NtCs4yQX48jEriP_15rhizo_crypt_rpc7serviceNtB4_19RhizoCryptRpcServerNtB4_13RhizoCryptRpc12verify_proof
FN:322,_RNvXs_NtCs4yQX48jEriP_15rhizo_crypt_rpc7serviceNtB4_19RhizoCryptRpcServerNtB4_13RhizoCryptRpc13list_sessions
FN:542,_RNvXs_NtCs4yQX48jEriP_15rhizo_crypt_rpc7serviceNtB4_19RhizoCryptRpcServerNtB4_13RhizoCryptRpc13resolve_slice
FN:500,_RNvXs_NtCs4yQX48jEriP_15rhizo_crypt_rpc7serviceNtB4_19RhizoCryptRpcServerNtB4_13RhizoCryptRpc14checkout_slice
FN:285,_RNvXs_NtCs4yQX48jEriP_15rhizo_crypt_rpc7serviceNtB4_19RhizoCryptRpcServerNtB4_13RhizoCryptRpc14create_session
FN:427,_RNvXs_NtCs4yQX48jEriP_15rhizo_crypt_rpc7serviceNtB4_19RhizoCryptRpcServerNtB4_13RhizoCryptRpc14query_vertices
FN:327,_RNvXs_NtCs4yQX48jEriP_15rhizo_crypt_rpc7serviceNtB4_19RhizoCryptRpcServerNtB4_13RhizoCryptRpc15discard_session
FN:456,_RNvXs_NtCs4yQX48jEriP_15rhizo_crypt_rpc7serviceNtB4_19RhizoCryptRpcServerNtB4_13RhizoCryptRpc15get_merkle_root
FN:464,_RNvXs_NtCs4yQX48jEriP_15rhizo_crypt_rpc7serviceNtB4_19RhizoCryptRpcServerNtB4_13RhizoCryptRpc16get_merkle_proof
FN:564,_RNvXs_NtCs4yQX48jEriP_15rhizo_crypt_rpc7serviceNtB4_19RhizoCryptRpcServerNtB4_13RhizoCryptRpc22get_dehydration_status
FN:572,_RNvXs_NtCs4yQX48jEriP_15rhizo_crypt_rpc7serviceNtB4_19RhizoCryptRpcServerNtB4_13RhizoCryptRpc6health
FN:588,_RNvXs_NtCs4yQX48jEriP_15rhizo_crypt_rpc7serviceNtB4_19RhizoCryptRpcServerNtB4_13RhizoCryptRpc7metrics
FN:556,_RNvXs_NtCs4yQX48jEriP_15rhizo_crypt_rpc7serviceNtB4_19RhizoCryptRpcServerNtB4_13RhizoCryptRpc9dehydrate
FN:527,_RNvXs_NtCs4yQX48jEriP_15rhizo_crypt_rpc7serviceNtB4_19RhizoCryptRpcServerNtB4_13RhizoCryptRpc9get_slice
FN:144,_RNvYpNtNtCs4yQX48jEriP_15rhizo_crypt_rpc7service13RhizoCryptRpc5serveB7_
FN:608,_RNvNtNtCs4yQX48jEriP_15rhizo_crypt_rpc7service5testss_26test_request_serialization
FN:625,_RNvNtNtCs4yQX48jEriP_15rhizo_crypt_rpc7service5testss_32test_health_status_serialization
FN:144,_RINvMsg_NtCs1VabqvUvyvp_15rhizo_crypt_rpc7serviceNtB6_19RhizoCryptRpcClient3newINtNtCsc9B1OUmwKjx_5tarpc15serde_transport9TransportNtNtNtNtCselEcaUKAb1f_5tokio3net3tcp6stream9TcpStreamINtB1k_8ResponseNtB6_21RhizoCryptRpcResponseEINtB1k_13ClientMessageNtB6_20RhizoCryptRpcRequestEINtNtNtCsls9BSJYjsQj_11tokio_serde7formats7bincode7BincodeB2W_B3F_EEECscGNtvOf38BJ_15rpc_integration
FN:398,_RNCNCNvXs_NtCs1VabqvUvyvp_15rhizo_crypt_rpc7serviceNtB8_19RhizoCryptRpcServerNtB8_13RhizoCryptRpc10get_vertex00CscGNtvOf38BJ_15rpc_integration
FN:423,_RNCNCNvXs_NtCs1VabqvUvyvp_15rhizo_crypt_rpc7serviceNtB8_19RhizoCryptRpcServerNtB8_13RhizoCryptRpc11get_genesis00CscGNtvOf38BJ_15rpc_integration
FN:317,_RNCNCNvXs_NtCs1VabqvUvyvp_15rhizo_crypt_rpc7serviceNtB8_19RhizoCryptRpcServerNtB8_13RhizoCryptRpc11get_session00CscGNtvOf38BJ_15rpc_integration
FN:383,_RNCNCNvXs_NtCs1VabqvUvyvp_15rhizo_crypt_rpc7serviceNtB8_19RhizoCryptRpcServerNtB8_13RhizoCryptRpc12append_batch00CscGNtvOf38BJ_15rpc_integration
FN:358,_RNCNCNvXs_NtCs1VabqvUvyvp_15rhizo_crypt_rpc7serviceNtB8_19RhizoCryptRpcServerNtB8_13RhizoCryptRpc12append_event00CscGNtvOf38BJ_15rpc_integration
FN:448,_RNCNCNvXs_NtCs1VabqvUvyvp_15rhizo_crypt_rpc7serviceNtB8_19RhizoCryptRpcServerNtB8_13RhizoCryptRpc12get_children00CscGNtvOf38BJ_15rpc_integration
FN:453,_RNCNCNvXs_NtCs1VabqvUvyvp_15rhizo_crypt_rpc7serviceNtB8_19RhizoCryptRpcServerNtB8_13RhizoCryptRpc12get_children0s_0CscGNtvOf38BJ_15rpc_integration
FN:410,_RNCNCNvXs_NtCs1VabqvUvyvp_15rhizo_crypt_rpc7serviceNtB8_19RhizoCryptRpcServerNtB8_13RhizoCryptRpc12get_frontier00CscGNtvOf38BJ_15rpc_integration
FN:553,_RNCNCNvXs_NtCs1VabqvUvyvp_15rhizo_crypt_rpc7serviceNtB8_19RhizoCryptRpcServerNtB8_13RhizoCryptRpc13resolve_slice00CscGNtvOf38BJ_15rpc_integration
FN:524,_RNCNCNvXs_NtCs1VabqvUvyvp_15rhizo_crypt_rpc7serviceNtB8_19RhizoCryptRpcServerNtB8_13RhizoCryptRpc14checkout_slice00CscGNtvOf38BJ_15rpc_integration
FN:305,_RNCNCNvXs_NtCs1VabqvUvyvp_15rhizo_crypt_rpc7serviceNtB8_19RhizoCryptRpcServerNtB8_13RhizoCryptRpc14create_session00CscGNtvOf38BJ_15rpc_integration
FN:434,_RNCNCNvXs_NtCs1VabqvUvyvp_15rhizo_crypt_rpc7serviceNtB8_19RhizoCryptRpcServerNtB8_13RhizoCryptRpc14query_vertices00CscGNtvOf38BJ_15rpc_integration
FN:439,_RNCNCNvXs_NtCs1VabqvUvyvp_15rhizo_crypt_rpc7serviceNtB8_19RhizoCryptRpcServerNtB8_13RhizoCryptRpc14query_vertices0s_0CscGNtvOf38BJ_15rpc_integration
FN:332,_RNCNCNvXs_NtCs1VabqvUvyvp_15rhizo_crypt_rpc7serviceNtB8_19RhizoCryptRpcServerNtB8_13RhizoCryptRpc15discard_session00CscGNtvOf38BJ_15rpc_integration
FN:461,_RNCNCNvXs_NtCs1VabqvUvyvp_15rhizo_crypt_rpc7serviceNtB8_19RhizoCryptRpcServerNtB8_13RhizoCryptRpc15get_merkle_root00CscGNtvOf38BJ_15rpc_integration
FN:473,_RNCNCNvXs_NtCs1VabqvUvyvp_15rhizo_crypt_rpc7serviceNtB8_19RhizoCryptRpcServerNtB8_13RhizoCryptRpc16get_merkle_proof00CscGNtvOf38BJ_15rpc_integration
FN:561,_RNCNCNvXs_NtCs1VabqvUvyvp_15rhizo_crypt_rpc7serviceNtB8_19RhizoCryptRpcServerNtB8_13RhizoCryptRpc9dehydrate00CscGNtvOf38BJ_15rpc_integration
FN:532,_RNCNCNvXs_NtCs1VabqvUvyvp_15rhizo_crypt_rpc7serviceNtB8_19RhizoCryptRpcServerNtB8_13RhizoCryptRpc9get_slice00CscGNtvOf38BJ_15rpc_integration
FN:144,_RNCNvMsi_NtCs1VabqvUvyvp_15rhizo_crypt_rpc7serviceNtB7_19RhizoCryptRpcClient10get_vertex0CscGNtvOf38BJ_15rpc_integration
FN:144,_RNCNvMsi_NtCs1VabqvUvyvp_15rhizo_crypt_rpc7serviceNtB7_19RhizoCryptRpcClient11get_genesis0CscGNtvOf38BJ_15rpc_integration
FN:144,_RNCNvMsi_NtCs1VabqvUvyvp_15rhizo_crypt_rpc7serviceNtB7_19RhizoCryptRpcClient11get_session0CscGNtvOf38BJ_15rpc_integration
FN:144,_RNCNvMsi_NtCs1VabqvUvyvp_15rhizo_crypt_rpc7serviceNtB7_19RhizoCryptRpcClient11list_slices0CscGNtvOf38BJ_15rpc_integration
FN:144,_RNCNvMsi_NtCs1VabqvUvyvp_15rhizo_crypt_rpc7serviceNtB7_19RhizoCryptRpcClient12append_batch0CscGNtvOf38BJ_15rpc_integration
FN:144,_RNCNvMsi_NtCs1VabqvUvyvp_15rhizo_crypt_rpc7serviceNtB7_19RhizoCryptRpcClient12append_event0CscGNtvOf38BJ_15rpc_integration
FN:144,_RNCNvMsi_NtCs1VabqvUvyvp_15rhizo_crypt_rpc7serviceNtB7_19RhizoCryptRpcClient12get_children0CscGNtvOf38BJ_15rpc_integration
FN:144,_RNCNvMsi_NtCs1VabqvUvyvp_15rhizo_crypt_rpc7serviceNtB7_19RhizoCryptRpcClient12get_frontier0CscGNtvOf38BJ_15rpc_integration
FN:144,_RNCNvMsi_NtCs1VabqvUvyvp_15rhizo_crypt_rpc7serviceNtB7_19RhizoCryptRpcClient12verify_proof0CscGNtvOf38BJ_15rpc_integration
FN:144,_RNCNvMsi_NtCs1VabqvUvyvp_15rhizo_crypt_rpc7serviceNtB7_19RhizoCryptRpcClient13list_sessions0CscGNtvOf38BJ_15rpc_integration
FN:144,_RNCNvMsi_NtCs1VabqvUvyvp_15rhizo_crypt_rpc7serviceNtB7_19RhizoCryptRpcClient14checkout_slice0CscGNtvOf38BJ_15rpc_integration
FN:144,_RNCNvMsi_NtCs1VabqvUvyvp_15rhizo_crypt_rpc7serviceNtB7_19RhizoCryptRpcClient14create_session0CscGNtvOf38BJ_15rpc_integration
FN:144,_RNCNvMsi_NtCs1VabqvUvyvp_15rhizo_crypt_rpc7serviceNtB7_19RhizoCryptRpcClient14query_vertices0CscGNtvOf38BJ_15rpc_integration
FN:144,_RNCNvMsi_NtCs1VabqvUvyvp_15rhizo_crypt_rpc7serviceNtB7_19RhizoCryptRpcClient15discard_session0CscGNtvOf38BJ_15rpc_integration
FN:144,_RNCNvMsi_NtCs1VabqvUvyvp_15rhizo_crypt_rpc7serviceNtB7_19RhizoCryptRpcClient15get_merkle_root0CscGNtvOf38BJ_15rpc_integration
FN:144,_RNCNvMsi_NtCs1VabqvUvyvp_15rhizo_crypt_rpc7serviceNtB7_19RhizoCryptRpcClient16get_merkle_proof0CscGNtvOf38BJ_15rpc_integration
FN:144,_RNCNvMsi_NtCs1VabqvUvyvp_15rhizo_crypt_rpc7serviceNtB7_19RhizoCryptRpcClient22get_dehydration_status0CscGNtvOf38BJ_15rpc_integration
FN:144,_RNCNvMsi_NtCs1VabqvUvyvp_15rhizo_crypt_rpc7serviceNtB7_19RhizoCryptRpcClient6health0CscGNtvOf38BJ_15rpc_integration
FN:144,_RNCNvMsi_NtCs1VabqvUvyvp_15rhizo_crypt_rpc7serviceNtB7_19RhizoCryptRpcClient7metrics0CscGNtvOf38BJ_15rpc_integration
FN:144,_RNCNvMsi_NtCs1VabqvUvyvp_15rhizo_crypt_rpc7serviceNtB7_19RhizoCryptRpcClient9dehydrate0CscGNtvOf38BJ_15rpc_integration
FN:144,_RNCNvMsi_NtCs1VabqvUvyvp_15rhizo_crypt_rpc7serviceNtB7_19RhizoCryptRpcClient9get_slice0CscGNtvOf38BJ_15rpc_integration
FN:394,_RNCNvXs_NtCs1VabqvUvyvp_15rhizo_crypt_rpc7serviceNtB6_19RhizoCryptRpcServerNtB6_13RhizoCryptRpc10get_vertex0CscGNtvOf38BJ_15rpc_integration
FN:418,_RNCNvXs_NtCs1VabqvUvyvp_15rhizo_crypt_rpc7serviceNtB6_19RhizoCryptRpcServerNtB6_13RhizoCryptRpc11get_genesis0CscGNtvOf38BJ_15rpc_integration
FN:312,_RNCNvXs_NtCs1VabqvUvyvp_15rhizo_crypt_rpc7serviceNtB6_19RhizoCryptRpcServerNtB6_13RhizoCryptRpc11get_session0CscGNtvOf38BJ_15rpc_integration
FN:538,_RNCNvXs_NtCs1VabqvUvyvp_15rhizo_crypt_rpc7serviceNtB6_19RhizoCryptRpcServerNtB6_13RhizoCryptRpc11list_slices0CscGNtvOf38BJ_15rpc_integration
FN:365,_RNCNvXs_NtCs1VabqvUvyvp_15rhizo_crypt_rpc7serviceNtB6_19RhizoCryptRpcServerNtB6_13RhizoCryptRpc12append_batch0CscGNtvOf38BJ_15rpc_integration
FN:339,_RNCNvXs_NtCs1VabqvUvyvp_15rhizo_crypt_rpc7serviceNtB6_19RhizoCryptRpcServerNtB6_13RhizoCryptRpc12append_event0CscGNtvOf38BJ_15rpc_integration
FN:447,_RNCNvXs_NtCs1VabqvUvyvp_15rhizo_crypt_rpc7serviceNtB6_19RhizoCryptRpcServerNtB6_13RhizoCryptRpc12get_children0CscGNtvOf38BJ_15rpc_integration
FN:405,_RNCNvXs_NtCs1VabqvUvyvp_15rhizo_crypt_rpc7serviceNtB6_19RhizoCryptRpcServerNtB6_13RhizoCryptRpc12get_frontier0CscGNtvOf38BJ_15rpc_integration
FN:481,_RNCNvXs_NtCs1VabqvUvyvp_15rhizo_crypt_rpc7serviceNtB6_19RhizoCryptRpcServerNtB6_13RhizoCryptRpc12verify_proof0CscGNtvOf38BJ_15rpc_integration
FN:322,_RNCNvXs_NtCs1VabqvUvyvp_15rhizo_crypt_rpc7serviceNtB6_19RhizoCryptRpcServerNtB6_13RhizoCryptRpc13list_sessions0CscGNtvOf38BJ_15rpc_integration
FN:547,_RNCNvXs_NtCs1VabqvUvyvp_15rhizo_crypt_rpc7serviceNtB6_19RhizoCryptRpcServerNtB6_13RhizoCryptRpc13resolve_slice0CscGNtvOf38BJ_15rpc_integration
FN:504,_RNCNvXs_NtCs1VabqvUvyvp_15rhizo_crypt_rpc7serviceNtB6_19RhizoCryptRpcServerNtB6_13RhizoCryptRpc14checkout_slice0CscGNtvOf38BJ_15rpc_integration
FN:289,_RNCNvXs_NtCs1VabqvUvyvp_15rhizo_crypt_rpc7serviceNtB6_19RhizoCryptRpcServerNtB6_13RhizoCryptRpc14create_session0CscGNtvOf38BJ_15rpc_integration
FN:431,_RNCNvXs_NtCs1VabqvUvyvp_15rhizo_crypt_rpc7serviceNtB6_19RhizoCryptRpcServerNtB6_13RhizoCryptRpc14query_vertices0CscGNtvOf38BJ_15rpc_integration
FN:331,_RNCNvXs_NtCs1VabqvUvyvp_15rhizo_crypt_rpc7serviceNtB6_19RhizoCryptRpcServerNtB6_13RhizoCryptRpc15discard_session0CscGNtvOf38BJ_15rpc_integration
FN:460,_RNCNvXs_NtCs1VabqvUvyvp_15rhizo_crypt_rpc7serviceNtB6_19RhizoCryptRpcServerNtB6_13RhizoCryptRpc15get_merkle_root0CscGNtvOf38BJ_15rpc_integration
FN:469,_RNCNvXs_NtCs1VabqvUvyvp_15rhizo_crypt_rpc7serviceNtB6_19RhizoCryptRpcServerNtB6_13RhizoCryptRpc16get_merkle_proof0CscGNtvOf38BJ_15rpc_integration
FN:568,_RNCNvXs_NtCs1VabqvUvyvp_15rhizo_crypt_rpc7serviceNtB6_19RhizoCryptRpcServerNtB6_13RhizoCryptRpc22get_dehydration_status0CscGNtvOf38BJ_15rpc_integration
FN:572,_RNCNvXs_NtCs1VabqvUvyvp_15rhizo_crypt_rpc7serviceNtB6_19RhizoCryptRpcServerNtB6_13RhizoCryptRpc6health0CscGNtvOf38BJ_15rpc_integration
FN:588,_RNCNvXs_NtCs1VabqvUvyvp_15rhizo_crypt_rpc7serviceNtB6_19RhizoCryptRpcServerNtB6_13RhizoCryptRpc7metrics0CscGNtvOf38BJ_15rpc_integration
FN:560,_RNCNvXs_NtCs1VabqvUvyvp_15rhizo_crypt_rpc7serviceNtB6_19RhizoCryptRpcServerNtB6_13RhizoCryptRpc9dehydrate0CscGNtvOf38BJ_15rpc_integration
FN:531,_RNCNvXs_NtCs1VabqvUvyvp_15rhizo_crypt_rpc7serviceNtB6_19RhizoCryptRpcServerNtB6_13RhizoCryptRpc9get_slice0CscGNtvOf38BJ_15rpc_integration
FN:144,_RNvYNtNtCs1VabqvUvyvp_15rhizo_crypt_rpc7service19RhizoCryptRpcServerNtB4_13RhizoCryptRpc5serveCscGNtvOf38BJ_15rpc_integration
FN:276,_RNvMNtCs1VabqvUvyvp_15rhizo_crypt_rpc7serviceNtB2_19RhizoCryptRpcServer3new
FN:254,_RNvNtCs1VabqvUvyvp_15rhizo_crypt_rpc7service15session_to_info
FN:389,_RNvXs_NtCs1VabqvUvyvp_15rhizo_crypt_rpc7serviceNtB4_19RhizoCryptRpcServerNtB4_13RhizoCryptRpc10get_vertex
FN:414,_RNvXs_NtCs1VabqvUvyvp_15rhizo_crypt_rpc7serviceNtB4_19RhizoCryptRpcServerNtB4_13RhizoCryptRpc11get_genesis
FN:308,_RNvXs_NtCs1VabqvUvyvp_15rhizo_crypt_rpc7serviceNtB4_19RhizoCryptRpcServerNtB4_13RhizoCryptRpc11get_session
FN:535,_RNvXs_NtCs1VabqvUvyvp_15rhizo_crypt_rpc7serviceNtB4_19RhizoCryptRpcServerNtB4_13RhizoCryptRpc11list_slices
FN:361,_RNvXs_NtCs1VabqvUvyvp_15rhizo_crypt_rpc7serviceNtB4_19RhizoCryptRpcServerNtB4_13RhizoCryptRpc12append_batch
FN:335,_RNvXs_NtCs1VabqvUvyvp_15rhizo_crypt_rpc7serviceNtB4_19RhizoCryptRpcServerNtB4_13RhizoCryptRpc12append_event
FN:442,_RNvXs_NtCs1VabqvUvyvp_15rhizo_crypt_rpc7serviceNtB4_19RhizoCryptRpcServerNtB4_13RhizoCryptRpc12get_children
FN:401,_RNvXs_NtCs1VabqvUvyvp_15rhizo_crypt_rpc7serviceNtB4_19RhizoCryptRpcServerNtB4_13RhizoCryptRpc12get_frontier
FN:476,_RNvXs_NtCs1VabqvUvyvp_15rhizo_crypt_rpc7serviceNtB4_19RhizoCryptRpcServerNtB4_13RhizoCryptRpc12verify_proof
FN:322,_RNvXs_NtCs1VabqvUvyvp_15rhizo_crypt_rpc7serviceNtB4_19RhizoCryptRpcServerNtB4_13RhizoCryptRpc13list_sessions
FN:542,_RNvXs_NtCs1VabqvUvyvp_15rhizo_crypt_rpc7serviceNtB4_19RhizoCryptRpcServerNtB4_13RhizoCryptRpc13resolve_slice
FN:500,_RNvXs_NtCs1VabqvUvyvp_15rhizo_crypt_rpc7serviceNtB4_19RhizoCryptRpcServerNtB4_13RhizoCryptRpc14checkout_slice
FN:285,_RNvXs_NtCs1VabqvUvyvp_15rhizo_crypt_rpc7serviceNtB4_19RhizoCryptRpcServerNtB4_13RhizoCryptRpc14create_session
FN:427,_RNvXs_NtCs1VabqvUvyvp_15rhizo_crypt_rpc7serviceNtB4_19RhizoCryptRpcServerNtB4_13RhizoCryptRpc14query_vertices
FN:327,_RNvXs_NtCs1VabqvUvyvp_15rhizo_crypt_rpc7serviceNtB4_19RhizoCryptRpcServerNtB4_13RhizoCryptRpc15discard_session
FN:456,_RNvXs_NtCs1VabqvUvyvp_15rhizo_crypt_rpc7serviceNtB4_19RhizoCryptRpcServerNtB4_13RhizoCryptRpc15get_merkle_root
FN:464,_RNvXs_NtCs1VabqvUvyvp_15rhizo_crypt_rpc7serviceNtB4_19RhizoCryptRpcServerNtB4_13RhizoCryptRpc16get_merkle_proof
FN:564,_RNvXs_NtCs1VabqvUvyvp_15rhizo_crypt_rpc7serviceNtB4_19RhizoCryptRpcServerNtB4_13RhizoCryptRpc22get_dehydration_status
FN:572,_RNvXs_NtCs1VabqvUvyvp_15rhizo_crypt_rpc7serviceNtB4_19RhizoCryptRpcServerNtB4_13RhizoCryptRpc6health
FN:588,_RNvXs_NtCs1VabqvUvyvp_15rhizo_crypt_rpc7serviceNtB4_19RhizoCryptRpcServerNtB4_13RhizoCryptRpc7metrics
FN:556,_RNvXs_NtCs1VabqvUvyvp_15rhizo_crypt_rpc7serviceNtB4_19RhizoCryptRpcServerNtB4_13RhizoCryptRpc9dehydrate
FN:527,_RNvXs_NtCs1VabqvUvyvp_15rhizo_crypt_rpc7serviceNtB4_19RhizoCryptRpcServerNtB4_13RhizoCryptRpc9get_slice
FNDA:0,_RINvMsg_NtCs4yQX48jEriP_15rhizo_crypt_rpc7serviceNtB6_19RhizoCryptRpcClient3newpEB8_
FNDA:0,_RNCNCNvXs_NtCs4yQX48jEriP_15rhizo_crypt_rpc7serviceNtB8_19RhizoCryptRpcServerNtB8_13RhizoCryptRpc10get_vertex00Ba_
FNDA:0,_RNCNCNvXs_NtCs4yQX48jEriP_15rhizo_crypt_rpc7serviceNtB8_19RhizoCryptRpcServerNtB8_13RhizoCryptRpc11get_genesis00Ba_
FNDA:0,_RNCNCNvXs_NtCs4yQX48jEriP_15rhizo_crypt_rpc7serviceNtB8_19RhizoCryptRpcServerNtB8_13RhizoCryptRpc11get_session00Ba_
FNDA:0,_RNCNCNvXs_NtCs4yQX48jEriP_15rhizo_crypt_rpc7serviceNtB8_19RhizoCryptRpcServerNtB8_13RhizoCryptRpc12append_batch00Ba_
FNDA:0,_RNCNCNvXs_NtCs4yQX48jEriP_15rhizo_crypt_rpc7serviceNtB8_19RhizoCryptRpcServerNtB8_13RhizoCryptRpc12append_event00Ba_
FNDA:0,_RNCNCNvXs_NtCs4yQX48jEriP_15rhizo_crypt_rpc7serviceNtB8_19RhizoCryptRpcServerNtB8_13RhizoCryptRpc12get_children00Ba_
FNDA:0,_RNCNCNvXs_NtCs4yQX48jEriP_15rhizo_crypt_rpc7serviceNtB8_19RhizoCryptRpcServerNtB8_13RhizoCryptRpc12get_children0s_0Ba_
FNDA:0,_RNCNCNvXs_NtCs4yQX48jEriP_15rhizo_crypt_rpc7serviceNtB8_19RhizoCryptRpcServerNtB8_13RhizoCryptRpc12get_frontier00Ba_
FNDA:0,_RNCNCNvXs_NtCs4yQX48jEriP_15rhizo_crypt_rpc7serviceNtB8_19RhizoCryptRpcServerNtB8_13RhizoCryptRpc13resolve_slice00Ba_
FNDA:0,_RNCNCNvXs_NtCs4yQX48jEriP_15rhizo_crypt_rpc7serviceNtB8_19RhizoCryptRpcServerNtB8_13RhizoCryptRpc14checkout_slice00Ba_
FNDA:0,_RNCNCNvXs_NtCs4yQX48jEriP_15rhizo_crypt_rpc7serviceNtB8_19RhizoCryptRpcServerNtB8_13RhizoCryptRpc14create_session00Ba_
FNDA:0,_RNCNCNvXs_NtCs4yQX48jEriP_15rhizo_crypt_rpc7serviceNtB8_19RhizoCryptRpcServerNtB8_13RhizoCryptRpc14query_vertices00Ba_
FNDA:0,_RNCNCNvXs_NtCs4yQX48jEriP_15rhizo_crypt_rpc7serviceNtB8_19RhizoCryptRpcServerNtB8_13RhizoCryptRpc14query_vertices0s_0Ba_
FNDA:0,_RNCNCNvXs_NtCs4yQX48jEriP_15rhizo_crypt_rpc7serviceNtB8_19RhizoCryptRpcServerNtB8_13RhizoCryptRpc15discard_session00Ba_
FNDA:0,_RNCNCNvXs_NtCs4yQX48jEriP_15rhizo_crypt_rpc7serviceNtB8_19RhizoCryptRpcServerNtB8_13RhizoCryptRpc15get_merkle_root00Ba_
FNDA:0,_RNCNCNvXs_NtCs4yQX48jEriP_15rhizo_crypt_rpc7serviceNtB8_19RhizoCryptRpcServerNtB8_13RhizoCryptRpc16get_merkle_proof00Ba_
FNDA:0,_RNCNCNvXs_NtCs4yQX48jEriP_15rhizo_crypt_rpc7serviceNtB8_19RhizoCryptRpcServerNtB8_13RhizoCryptRpc9dehydrate00Ba_
FNDA:0,_RNCNCNvXs_NtCs4yQX48jEriP_15rhizo_crypt_rpc7serviceNtB8_19RhizoCryptRpcServerNtB8_13RhizoCryptRpc9get_slice00Ba_
FNDA:0,_RNCNvMsi_NtCs4yQX48jEriP_15rhizo_crypt_rpc7serviceINtB7_19RhizoCryptRpcClientpE10get_vertex0B9_
FNDA:0,_RNCNvMsi_NtCs4yQX48jEriP_15rhizo_crypt_rpc7serviceINtB7_19RhizoCryptRpcClientpE11get_genesis0B9_
FNDA:0,_RNCNvMsi_NtCs4yQX48jEriP_15rhizo_crypt_rpc7serviceINtB7_19RhizoCryptRpcClientpE11get_session0B9_
FNDA:0,_RNCNvMsi_NtCs4yQX48jEriP_15rhizo_crypt_rpc7serviceINtB7_19RhizoCryptRpcClientpE11list_slices0B9_
FNDA:0,_RNCNvMsi_NtCs4yQX48jEriP_15rhizo_crypt_rpc7serviceINtB7_19RhizoCryptRpcClientpE12append_batch0B9_
FNDA:0,_RNCNvMsi_NtCs4yQX48jEriP_15rhizo_crypt_rpc7serviceINtB7_19RhizoCryptRpcClientpE12append_event0B9_
FNDA:0,_RNCNvMsi_NtCs4yQX48jEriP_15rhizo_crypt_rpc7serviceINtB7_19RhizoCryptRpcClientpE12get_children0B9_
FNDA:0,_RNCNvMsi_NtCs4yQX48jEriP_15rhizo_crypt_rpc7serviceINtB7_19RhizoCryptRpcClientpE12get_frontier0B9_
FNDA:0,_RNCNvMsi_NtCs4yQX48jEriP_15rhizo_crypt_rpc7serviceINtB7_19RhizoCryptRpcClientpE12verify_proof0B9_
FNDA:0,_RNCNvMsi_NtCs4yQX48jEriP_15rhizo_crypt_rpc7serviceINtB7_19RhizoCryptRpcClientpE13list_sessions0B9_
FNDA:0,_RNCNvMsi_NtCs4yQX48jEriP_15rhizo_crypt_rpc7serviceINtB7_19RhizoCryptRpcClientpE13resolve_slice0B9_
FNDA:0,_RNCNvMsi_NtCs4yQX48jEriP_15rhizo_crypt_rpc7serviceINtB7_19RhizoCryptRpcClientpE14checkout_slice0B9_
FNDA:0,_RNCNvMsi_NtCs4yQX48jEriP_15rhizo_crypt_rpc7serviceINtB7_19RhizoCryptRpcClientpE14create_session0B9_
FNDA:0,_RNCNvMsi_NtCs4yQX48jEriP_15rhizo_crypt_rpc7serviceINtB7_19RhizoCryptRpcClientpE14query_vertices0B9_
FNDA:0,_RNCNvMsi_NtCs4yQX48jEriP_15rhizo_crypt_rpc7serviceINtB7_19RhizoCryptRpcClientpE15discard_session0B9_
FNDA:0,_RNCNvMsi_NtCs4yQX48jEriP_15rhizo_crypt_rpc7serviceINtB7_19RhizoCryptRpcClientpE15get_merkle_root0B9_
FNDA:0,_RNCNvMsi_NtCs4yQX48jEriP_15rhizo_crypt_rpc7serviceINtB7_19RhizoCryptRpcClientpE16get_merkle_proof0B9_
FNDA:0,_RNCNvMsi_NtCs4yQX48jEriP_15rhizo_crypt_rpc7serviceINtB7_19RhizoCryptRpcClientpE22get_dehydration_status0B9_
FNDA:0,_RNCNvMsi_NtCs4yQX48jEriP_15rhizo_crypt_rpc7serviceINtB7_19RhizoCryptRpcClientpE6health0B9_
FNDA:0,_RNCNvMsi_NtCs4yQX48jEriP_15rhizo_crypt_rpc7serviceINtB7_19RhizoCryptRpcClientpE7metrics0B9_
FNDA:0,_RNCNvMsi_NtCs4yQX48jEriP_15rhizo_crypt_rpc7serviceINtB7_19RhizoCryptRpcClientpE9dehydrate0B9_
FNDA:0,_RNCNvMsi_NtCs4yQX48jEriP_15rhizo_crypt_rpc7serviceINtB7_19RhizoCryptRpcClientpE9get_slice0B9_
FNDA:0,_RNCNvXs_NtCs4yQX48jEriP_15rhizo_crypt_rpc7serviceNtB6_19RhizoCryptRpcServerNtB6_13RhizoCryptRpc10get_vertex0B8_
FNDA:0,_RNCNvXs_NtCs4yQX48jEriP_15rhizo_crypt_rpc7serviceNtB6_19RhizoCryptRpcServerNtB6_13RhizoCryptRpc11get_genesis0B8_
FNDA:0,_RNCNvXs_NtCs4yQX48jEriP_15rhizo_crypt_rpc7serviceNtB6_19RhizoCryptRpcServerNtB6_13RhizoCryptRpc11get_session0B8_
FNDA:0,_RNCNvXs_NtCs4yQX48jEriP_15rhizo_crypt_rpc7serviceNtB6_19RhizoCryptRpcServerNtB6_13RhizoCryptRpc11list_slices0B8_
FNDA:0,_RNCNvXs_NtCs4yQX48jEriP_15rhizo_crypt_rpc7serviceNtB6_19RhizoCryptRpcServerNtB6_13RhizoCryptRpc12append_batch0B8_
FNDA:0,_RNCNvXs_NtCs4yQX48jEriP_15rhizo_crypt_rpc7serviceNtB6_19RhizoCryptRpcServerNtB6_13RhizoCryptRpc12append_event0B8_
FNDA:0,_RNCNvXs_NtCs4yQX48jEriP_15rhizo_crypt_rpc7serviceNtB6_19RhizoCryptRpcServerNtB6_13RhizoCryptRpc12get_children0B8_
FNDA:0,_RNCNvXs_NtCs4yQX48jEriP_15rhizo_crypt_rpc7serviceNtB6_19RhizoCryptRpcServerNtB6_13RhizoCryptRpc12get_frontier0B8_
FNDA:0,_RNCNvXs_NtCs4yQX48jEriP_15rhizo_crypt_rpc7serviceNtB6_19RhizoCryptRpcServerNtB6_13RhizoCryptRpc12verify_proof0B8_
FNDA:0,_RNCNvXs_NtCs4yQX48jEriP_15rhizo_crypt_rpc7serviceNtB6_19RhizoCryptRpcServerNtB6_13RhizoCryptRpc13list_sessions0B8_
FNDA:0,_RNCNvXs_NtCs4yQX48jEriP_15rhizo_crypt_rpc7serviceNtB6_19RhizoCryptRpcServerNtB6_13RhizoCryptRpc13resolve_slice0B8_
FNDA:0,_RNCNvXs_NtCs4yQX48jEriP_15rhizo_crypt_rpc7serviceNtB6_19RhizoCryptRpcServerNtB6_13RhizoCryptRpc14checkout_slice0B8_
FNDA:0,_RNCNvXs_NtCs4yQX48jEriP_15rhizo_crypt_rpc7serviceNtB6_19RhizoCryptRpcServerNtB6_13RhizoCryptRpc14create_session0B8_
FNDA:0,_RNCNvXs_NtCs4yQX48jEriP_15rhizo_crypt_rpc7serviceNtB6_19RhizoCryptRpcServerNtB6_13RhizoCryptRpc14query_vertices0B8_
FNDA:0,_RNCNvXs_NtCs4yQX48jEriP_15rhizo_crypt_rpc7serviceNtB6_19RhizoCryptRpcServerNtB6_13RhizoCryptRpc15discard_session0B8_
FNDA:0,_RNCNvXs_NtCs4yQX48jEriP_15rhizo_crypt_rpc7serviceNtB6_19RhizoCryptRpcServerNtB6_13RhizoCryptRpc15get_merkle_root0B8_
FNDA:0,_RNCNvXs_NtCs4yQX48jEriP_15rhizo_crypt_rpc7serviceNtB6_19RhizoCryptRpcServerNtB6_13RhizoCryptRpc16get_merkle_proof0B8_
FNDA:0,_RNCNvXs_NtCs4yQX48jEriP_15rhizo_crypt_rpc7serviceNtB6_19RhizoCryptRpcServerNtB6_13RhizoCryptRpc22get_dehydration_status0B8_
FNDA:0,_RNCNvXs_NtCs4yQX48jEriP_15rhizo_crypt_rpc7serviceNtB6_19RhizoCryptRpcServerNtB6_13RhizoCryptRpc6health0B8_
FNDA:0,_RNCNvXs_NtCs4yQX48jEriP_15rhizo_crypt_rpc7serviceNtB6_19RhizoCryptRpcServerNtB6_13RhizoCryptRpc7metrics0B8_
FNDA:0,_RNCNvXs_NtCs4yQX48jEriP_15rhizo_crypt_rpc7serviceNtB6_19RhizoCryptRpcServerNtB6_13RhizoCryptRpc9dehydrate0B8_
FNDA:0,_RNCNvXs_NtCs4yQX48jEriP_15rhizo_crypt_rpc7serviceNtB6_19RhizoCryptRpcServerNtB6_13RhizoCryptRpc9get_slice0B8_
FNDA:0,_RNvMNtCs4yQX48jEriP_15rhizo_crypt_rpc7serviceNtB2_19RhizoCryptRpcServer3new
FNDA:0,_RNvNtCs4yQX48jEriP_15rhizo_crypt_rpc7service15session_to_info
FNDA:0,_RNvXININtCs4yQX48jEriP_15rhizo_crypt_rpc7servicesh_0pEINtB5_19RhizoCryptRpcClientpEINtNtCs9sjCchOt1K7_4core7convert4FrompE4fromB7_
FNDA:0,_RNvXs_NtCs4yQX48jEriP_15rhizo_crypt_rpc7serviceNtB4_19RhizoCryptRpcServerNtB4_13RhizoCryptRpc10get_vertex
FNDA:0,_RNvXs_NtCs4yQX48jEriP_15rhizo_crypt_rpc7serviceNtB4_19RhizoCryptRpcServerNtB4_13RhizoCryptRpc11get_genesis
FNDA:0,_RNvXs_NtCs4yQX48jEriP_15rhizo_crypt_rpc7serviceNtB4_19RhizoCryptRpcServerNtB4_13RhizoCryptRpc11get_session
FNDA:0,_RNvXs_NtCs4yQX48jEriP_15rhizo_crypt_rpc7serviceNtB4_19RhizoCryptRpcServerNtB4_13RhizoCryptRpc11list_slices
FNDA:0,_RNvXs_NtCs4yQX48jEriP_15rhizo_crypt_rpc7serviceNtB4_19RhizoCryptRpcServerNtB4_13RhizoCryptRpc12append_batch
FNDA:0,_RNvXs_NtCs4yQX48jEriP_15rhizo_crypt_rpc7serviceNtB4_19RhizoCryptRpcServerNtB4_13RhizoCryptRpc12append_event
FNDA:0,_RNvXs_NtCs4yQX48jEriP_15rhizo_crypt_rpc7serviceNtB4_19RhizoCryptRpcServerNtB4_13RhizoCryptRpc12get_children
FNDA:0,_RNvXs_NtCs4yQX48jEriP_15rhizo_crypt_rpc7serviceNtB4_19RhizoCryptRpcServerNtB4_13RhizoCryptRpc12get_frontier
FNDA:0,_RNvXs_NtCs4yQX48jEriP_15rhizo_crypt_rpc7serviceNtB4_19RhizoCryptRpcServerNtB4_13RhizoCryptRpc12verify_proof
FNDA:0,_RNvXs_NtCs4yQX48jEriP_15rhizo_crypt_rpc7serviceNtB4_19RhizoCryptRpcServerNtB4_13RhizoCryptRpc13list_sessions
FNDA:0,_RNvXs_NtCs4yQX48jEriP_15rhizo_crypt_rpc7serviceNtB4_19RhizoCryptRpcServerNtB4_13RhizoCryptRpc13resolve_slice
FNDA:0,_RNvXs_NtCs4yQX48jEriP_15rhizo_crypt_rpc7serviceNtB4_19RhizoCryptRpcServerNtB4_13RhizoCryptRpc14checkout_slice
FNDA:0,_RNvXs_NtCs4yQX48jEriP_15rhizo_crypt_rpc7serviceNtB4_19RhizoCryptRpcServerNtB4_13RhizoCryptRpc14create_session
FNDA:0,_RNvXs_NtCs4yQX48jEriP_15rhizo_crypt_rpc7serviceNtB4_19RhizoCryptRpcServerNtB4_13RhizoCryptRpc14query_vertices
FNDA:0,_RNvXs_NtCs4yQX48jEriP_15rhizo_crypt_rpc7serviceNtB4_19RhizoCryptRpcServerNtB4_13RhizoCryptRpc15discard_session
FNDA:0,_RNvXs_NtCs4yQX48jEriP_15rhizo_crypt_rpc7serviceNtB4_19RhizoCryptRpcServerNtB4_13RhizoCryptRpc15get_merkle_root
FNDA:0,_RNvXs_NtCs4yQX48jEriP_15rhizo_crypt_rpc7serviceNtB4_19RhizoCryptRpcServerNtB4_13RhizoCryptRpc16get_merkle_proof
FNDA:0,_RNvXs_NtCs4yQX48jEriP_15rhizo_crypt_rpc7serviceNtB4_19RhizoCryptRpcServerNtB4_13RhizoCryptRpc22get_dehydration_status
FNDA:0,_RNvXs_NtCs4yQX48jEriP_15rhizo_crypt_rpc7serviceNtB4_19RhizoCryptRpcServerNtB4_13RhizoCryptRpc6health
FNDA:0,_RNvXs_NtCs4yQX48jEriP_15rhizo_crypt_rpc7serviceNtB4_19RhizoCryptRpcServerNtB4_13RhizoCryptRpc7metrics
FNDA:0,_RNvXs_NtCs4yQX48jEriP_15rhizo_crypt_rpc7serviceNtB4_19RhizoCryptRpcServerNtB4_13RhizoCryptRpc9dehydrate
FNDA:0,_RNvXs_NtCs4yQX48jEriP_15rhizo_crypt_rpc7serviceNtB4_19RhizoCryptRpcServerNtB4_13RhizoCryptRpc9get_slice
FNDA:0,_RNvYpNtNtCs4yQX48jEriP_15rhizo_crypt_rpc7service13RhizoCryptRpc5serveB7_
FNDA:1,_RNvNtNtCs4yQX48jEriP_15rhizo_crypt_rpc7service5testss_26test_request_serialization
FNDA:1,_RNvNtNtCs4yQX48jEriP_15rhizo_crypt_rpc7service5testss_32test_health_status_serialization
FNDA:10,_RINvMsg_NtCs1VabqvUvyvp_15rhizo_crypt_rpc7serviceNtB6_19RhizoCryptRpcClient3newINtNtCsc9B1OUmwKjx_5tarpc15serde_transport9TransportNtNtNtNtCselEcaUKAb1f_5tokio3net3tcp6stream9TcpStreamINtB1k_8ResponseNtB6_21RhizoCryptRpcResponseEINtB1k_13ClientMessageNtB6_20RhizoCryptRpcRequestEINtNtNtCsls9BSJYjsQj_11tokio_serde7formats7bincode7BincodeB2W_B3F_EEECscGNtvOf38BJ_15rpc_integration
FNDA:0,_RNCNCNvXs_NtCs1VabqvUvyvp_15rhizo_crypt_rpc7serviceNtB8_19RhizoCryptRpcServerNtB8_13RhizoCryptRpc10get_vertex00CscGNtvOf38BJ_15rpc_integration
FNDA:0,_RNCNCNvXs_NtCs1VabqvUvyvp_15rhizo_crypt_rpc7serviceNtB8_19RhizoCryptRpcServerNtB8_13RhizoCryptRpc11get_genesis00CscGNtvOf38BJ_15rpc_integration
FNDA:0,_RNCNCNvXs_NtCs1VabqvUvyvp_15rhizo_crypt_rpc7serviceNtB8_19RhizoCryptRpcServerNtB8_13RhizoCryptRpc11get_session00CscGNtvOf38BJ_15rpc_integration
FNDA:0,_RNCNCNvXs_NtCs1VabqvUvyvp_15rhizo_crypt_rpc7serviceNtB8_19RhizoCryptRpcServerNtB8_13RhizoCryptRpc12append_batch00CscGNtvOf38BJ_15rpc_integration
FNDA:0,_RNCNCNvXs_NtCs1VabqvUvyvp_15rhizo_crypt_rpc7serviceNtB8_19RhizoCryptRpcServerNtB8_13RhizoCryptRpc12append_event00CscGNtvOf38BJ_15rpc_integration
FNDA:0,_RNCNCNvXs_NtCs1VabqvUvyvp_15rhizo_crypt_rpc7serviceNtB8_19RhizoCryptRpcServerNtB8_13RhizoCryptRpc12get_children00CscGNtvOf38BJ_15rpc_integration
FNDA:0,_RNCNCNvXs_NtCs1VabqvUvyvp_15rhizo_crypt_rpc7serviceNtB8_19RhizoCryptRpcServerNtB8_13RhizoCryptRpc12get_children0s_0CscGNtvOf38BJ_15rpc_integration
FNDA:0,_RNCNCNvXs_NtCs1VabqvUvyvp_15rhizo_crypt_rpc7serviceNtB8_19RhizoCryptRpcServerNtB8_13RhizoCryptRpc12get_frontier00CscGNtvOf38BJ_15rpc_integration
FNDA:0,_RNCNCNvXs_NtCs1VabqvUvyvp_15rhizo_crypt_rpc7serviceNtB8_19RhizoCryptRpcServerNtB8_13RhizoCryptRpc13resolve_slice00CscGNtvOf38BJ_15rpc_integration
FNDA:0,_RNCNCNvXs_NtCs1VabqvUvyvp_15rhizo_crypt_rpc7serviceNtB8_19RhizoCryptRpcServerNtB8_13RhizoCryptRpc14checkout_slice00CscGNtvOf38BJ_15rpc_integration
FNDA:0,_RNCNCNvXs_NtCs1VabqvUvyvp_15rhizo_crypt_rpc7serviceNtB8_19RhizoCryptRpcServerNtB8_13RhizoCryptRpc14create_session00CscGNtvOf38BJ_15rpc_integration
FNDA:1,_RNCNCNvXs_NtCs1VabqvUvyvp_15rhizo_crypt_rpc7serviceNtB8_19RhizoCryptRpcServerNtB8_13RhizoCryptRpc14query_vertices00CscGNtvOf38BJ_15rpc_integration
FNDA:0,_RNCNCNvXs_NtCs1VabqvUvyvp_15rhizo_crypt_rpc7serviceNtB8_19RhizoCryptRpcServerNtB8_13RhizoCryptRpc14query_vertices0s_0CscGNtvOf38BJ_15rpc_integration
FNDA:0,_RNCNCNvXs_NtCs1VabqvUvyvp_15rhizo_crypt_rpc7serviceNtB8_19RhizoCryptRpcServerNtB8_13RhizoCryptRpc15discard_session00CscGNtvOf38BJ_15rpc_integration
FNDA:0,_RNCNCNvXs_NtCs1VabqvUvyvp_15rhizo_crypt_rpc7serviceNtB8_19RhizoCryptRpcServerNtB8_13RhizoCryptRpc15get_merkle_root00CscGNtvOf38BJ_15rpc_integration
FNDA:0,_RNCNCNvXs_NtCs1VabqvUvyvp_15rhizo_crypt_rpc7serviceNtB8_19RhizoCryptRpcServerNtB8_13RhizoCryptRpc16get_merkle_proof00CscGNtvOf38BJ_15rpc_integration
FNDA:0,_RNCNCNvXs_NtCs1VabqvUvyvp_15rhizo_crypt_rpc7serviceNtB8_19RhizoCryptRpcServerNtB8_13RhizoCryptRpc9dehydrate00CscGNtvOf38BJ_15rpc_integration
FNDA:0,_RNCNCNvXs_NtCs1VabqvUvyvp_15rhizo_crypt_rpc7serviceNtB8_19RhizoCryptRpcServerNtB8_13RhizoCryptRpc9get_slice00CscGNtvOf38BJ_15rpc_integration
FNDA:0,_RNCNvMsi_NtCs1VabqvUvyvp_15rhizo_crypt_rpc7serviceNtB7_19RhizoCryptRpcClient10get_vertex0CscGNtvOf38BJ_15rpc_integration
FNDA:0,_RNCNvMsi_NtCs1VabqvUvyvp_15rhizo_crypt_rpc7serviceNtB7_19RhizoCryptRpcClient11get_genesis0CscGNtvOf38BJ_15rpc_integration
FNDA:0,_RNCNvMsi_NtCs1VabqvUvyvp_15rhizo_crypt_rpc7serviceNtB7_19RhizoCryptRpcClient11get_session0CscGNtvOf38BJ_15rpc_integration
FNDA:0,_RNCNvMsi_NtCs1VabqvUvyvp_15rhizo_crypt_rpc7serviceNtB7_19RhizoCryptRpcClient11list_slices0CscGNtvOf38BJ_15rpc_integration
FNDA:0,_RNCNvMsi_NtCs1VabqvUvyvp_15rhizo_crypt_rpc7serviceNtB7_19RhizoCryptRpcClient12append_batch0CscGNtvOf38BJ_15rpc_integration
FNDA:0,_RNCNvMsi_NtCs1VabqvUvyvp_15rhizo_crypt_rpc7serviceNtB7_19RhizoCryptRpcClient12append_event0CscGNtvOf38BJ_15rpc_integration
FNDA:0,_RNCNvMsi_NtCs1VabqvUvyvp_15rhizo_crypt_rpc7serviceNtB7_19RhizoCryptRpcClient12get_children0CscGNtvOf38BJ_15rpc_integration
FNDA:0,_RNCNvMsi_NtCs1VabqvUvyvp_15rhizo_crypt_rpc7serviceNtB7_19RhizoCryptRpcClient12get_frontier0CscGNtvOf38BJ_15rpc_integration
FNDA:0,_RNCNvMsi_NtCs1VabqvUvyvp_15rhizo_crypt_rpc7serviceNtB7_19RhizoCryptRpcClient12verify_proof0CscGNtvOf38BJ_15rpc_integration
FNDA:0,_RNCNvMsi_NtCs1VabqvUvyvp_15rhizo_crypt_rpc7serviceNtB7_19RhizoCryptRpcClient13list_sessions0CscGNtvOf38BJ_15rpc_integration
FNDA:0,_RNCNvMsi_NtCs1VabqvUvyvp_15rhizo_crypt_rpc7serviceNtB7_19RhizoCryptRpcClient14checkout_slice0CscGNtvOf38BJ_15rpc_integration
FNDA:0,_RNCNvMsi_NtCs1VabqvUvyvp_15rhizo_crypt_rpc7serviceNtB7_19RhizoCryptRpcClient14create_session0CscGNtvOf38BJ_15rpc_integration
FNDA:0,_RNCNvMsi_NtCs1VabqvUvyvp_15rhizo_crypt_rpc7serviceNtB7_19RhizoCryptRpcClient14query_vertices0CscGNtvOf38BJ_15rpc_integration
FNDA:0,_RNCNvMsi_NtCs1VabqvUvyvp_15rhizo_crypt_rpc7serviceNtB7_19RhizoCryptRpcClient15discard_session0CscGNtvOf38BJ_15rpc_integration
FNDA:0,_RNCNvMsi_NtCs1VabqvUvyvp_15rhizo_crypt_rpc7serviceNtB7_19RhizoCryptRpcClient15get_merkle_root0CscGNtvOf38BJ_15rpc_integration
FNDA:0,_RNCNvMsi_NtCs1VabqvUvyvp_15rhizo_crypt_rpc7serviceNtB7_19RhizoCryptRpcClient16get_merkle_proof0CscGNtvOf38BJ_15rpc_integration
FNDA:0,_RNCNvMsi_NtCs1VabqvUvyvp_15rhizo_crypt_rpc7serviceNtB7_19RhizoCryptRpcClient22get_dehydration_status0CscGNtvOf38BJ_15rpc_integration
FNDA:0,_RNCNvMsi_NtCs1VabqvUvyvp_15rhizo_crypt_rpc7serviceNtB7_19RhizoCryptRpcClient6health0CscGNtvOf38BJ_15rpc_integration
FNDA:0,_RNCNvMsi_NtCs1VabqvUvyvp_15rhizo_crypt_rpc7serviceNtB7_19RhizoCryptRpcClient7metrics0CscGNtvOf38BJ_15rpc_integration
FNDA:0,_RNCNvMsi_NtCs1VabqvUvyvp_15rhizo_crypt_rpc7serviceNtB7_19RhizoCryptRpcClient9dehydrate0CscGNtvOf38BJ_15rpc_integration
FNDA:0,_RNCNvMsi_NtCs1VabqvUvyvp_15rhizo_crypt_rpc7serviceNtB7_19RhizoCryptRpcClient9get_slice0CscGNtvOf38BJ_15rpc_integration
FNDA:1,_RNCNvXs_NtCs1VabqvUvyvp_15rhizo_crypt_rpc7serviceNtB6_19RhizoCryptRpcServerNtB6_13RhizoCryptRpc10get_vertex0CscGNtvOf38BJ_15rpc_integration
FNDA:1,_RNCNvXs_NtCs1VabqvUvyvp_15rhizo_crypt_rpc7serviceNtB6_19RhizoCryptRpcServerNtB6_13RhizoCryptRpc11get_genesis0CscGNtvOf38BJ_15rpc_integration
FNDA:2,_RNCNvXs_NtCs1VabqvUvyvp_15rhizo_crypt_rpc7serviceNtB6_19RhizoCryptRpcServerNtB6_13RhizoCryptRpc11get_session0CscGNtvOf38BJ_15rpc_integration
FNDA:1,_RNCNvXs_NtCs1VabqvUvyvp_15rhizo_crypt_rpc7serviceNtB6_19RhizoCryptRpcServerNtB6_13RhizoCryptRpc11list_slices0CscGNtvOf38BJ_15rpc_integration
FNDA:1,_RNCNvXs_NtCs1VabqvUvyvp_15rhizo_crypt_rpc7serviceNtB6_19RhizoCryptRpcServerNtB6_13RhizoCryptRpc12append_batch0CscGNtvOf38BJ_15rpc_integration
FNDA:11,_RNCNvXs_NtCs1VabqvUvyvp_15rhizo_crypt_rpc7serviceNtB6_19RhizoCryptRpcServerNtB6_13RhizoCryptRpc12append_event0CscGNtvOf38BJ_15rpc_integration
FNDA:1,_RNCNvXs_NtCs1VabqvUvyvp_15rhizo_crypt_rpc7serviceNtB6_19RhizoCryptRpcServerNtB6_13RhizoCryptRpc12get_children0CscGNtvOf38BJ_15rpc_integration
FNDA:1,_RNCNvXs_NtCs1VabqvUvyvp_15rhizo_crypt_rpc7serviceNtB6_19RhizoCryptRpcServerNtB6_13RhizoCryptRpc12get_frontier0CscGNtvOf38BJ_15rpc_integration
FNDA:1,_RNCNvXs_NtCs1VabqvUvyvp_15rhizo_crypt_rpc7serviceNtB6_19RhizoCryptRpcServerNtB6_13RhizoCryptRpc12verify_proof0CscGNtvOf38BJ_15rpc_integration
FNDA:3,_RNCNvXs_NtCs1VabqvUvyvp_15rhizo_crypt_rpc7serviceNtB6_19RhizoCryptRpcServerNtB6_13RhizoCryptRpc13list_sessions0CscGNtvOf38BJ_15rpc_integration
FNDA:0,_RNCNvXs_NtCs1VabqvUvyvp_15rhizo_crypt_rpc7serviceNtB6_19RhizoCryptRpcServerNtB6_13RhizoCryptRpc13resolve_slice0CscGNtvOf38BJ_15rpc_integration
FNDA:1,_RNCNvXs_NtCs1VabqvUvyvp_15rhizo_crypt_rpc7serviceNtB6_19RhizoCryptRpcServerNtB6_13RhizoCryptRpc14checkout_slice0CscGNtvOf38BJ_15rpc_integration
FNDA:9,_RNCNvXs_NtCs1VabqvUvyvp_15rhizo_crypt_rpc7serviceNtB6_19RhizoCryptRpcServerNtB6_13RhizoCryptRpc14create_session0CscGNtvOf38BJ_15rpc_integration
FNDA:2,_RNCNvXs_NtCs1VabqvUvyvp_15rhizo_crypt_rpc7serviceNtB6_19RhizoCryptRpcServerNtB6_13RhizoCryptRpc14query_vertices0CscGNtvOf38BJ_15rpc_integration
FNDA:1,_RNCNvXs_NtCs1VabqvUvyvp_15rhizo_crypt_rpc7serviceNtB6_19RhizoCryptRpcServerNtB6_13RhizoCryptRpc15discard_session0CscGNtvOf38BJ_15rpc_integration
FNDA:1,_RNCNvXs_NtCs1VabqvUvyvp_15rhizo_crypt_rpc7serviceNtB6_19RhizoCryptRpcServerNtB6_13RhizoCryptRpc15get_merkle_root0CscGNtvOf38BJ_15rpc_integration
FNDA:1,_RNCNvXs_NtCs1VabqvUvyvp_15rhizo_crypt_rpc7serviceNtB6_19RhizoCryptRpcServerNtB6_13RhizoCryptRpc16get_merkle_proof0CscGNtvOf38BJ_15rpc_integration
FNDA:2,_RNCNvXs_NtCs1VabqvUvyvp_15rhizo_crypt_rpc7serviceNtB6_19RhizoCryptRpcServerNtB6_13RhizoCryptRpc22get_dehydration_status0CscGNtvOf38BJ_15rpc_integration
FNDA:2,_RNCNvXs_NtCs1VabqvUvyvp_15rhizo_crypt_rpc7serviceNtB6_19RhizoCryptRpcServerNtB6_13RhizoCryptRpc6health0CscGNtvOf38BJ_15rpc_integration
FNDA:2,_RNCNvXs_NtCs1VabqvUvyvp_15rhizo_crypt_rpc7serviceNtB6_19RhizoCryptRpcServerNtB6_13RhizoCryptRpc7metrics0CscGNtvOf38BJ_15rpc_integration
FNDA:1,_RNCNvXs_NtCs1VabqvUvyvp_15rhizo_crypt_rpc7serviceNtB6_19RhizoCryptRpcServerNtB6_13RhizoCryptRpc9dehydrate0CscGNtvOf38BJ_15rpc_integration
FNDA:1,_RNCNvXs_NtCs1VabqvUvyvp_15rhizo_crypt_rpc7serviceNtB6_19RhizoCryptRpcServerNtB6_13RhizoCryptRpc9get_slice0CscGNtvOf38BJ_15rpc_integration
FNDA:10,_RNvYNtNtCs1VabqvUvyvp_15rhizo_crypt_rpc7service19RhizoCryptRpcServerNtB4_13RhizoCryptRpc5serveCscGNtvOf38BJ_15rpc_integration
FNDA:10,_RNvMNtCs1VabqvUvyvp_15rhizo_crypt_rpc7serviceNtB2_19RhizoCryptRpcServer3new
FNDA:4,_RNvNtCs1VabqvUvyvp_15rhizo_crypt_rpc7service15session_to_info
FNDA:1,_RNvXs_NtCs1VabqvUvyvp_15rhizo_crypt_rpc7serviceNtB4_19RhizoCryptRpcServerNtB4_13RhizoCryptRpc10get_vertex
FNDA:1,_RNvXs_NtCs1VabqvUvyvp_15rhizo_crypt_rpc7serviceNtB4_19RhizoCryptRpcServerNtB4_13RhizoCryptRpc11get_genesis
FNDA:2,_RNvXs_NtCs1VabqvUvyvp_15rhizo_crypt_rpc7serviceNtB4_19RhizoCryptRpcServerNtB4_13RhizoCryptRpc11get_session
FNDA:1,_RNvXs_NtCs1VabqvUvyvp_15rhizo_crypt_rpc7serviceNtB4_19RhizoCryptRpcServerNtB4_13RhizoCryptRpc11list_slices
FNDA:1,_RNvXs_NtCs1VabqvUvyvp_15rhizo_crypt_rpc7serviceNtB4_19RhizoCryptRpcServerNtB4_13RhizoCryptRpc12append_batch
FNDA:11,_RNvXs_NtCs1VabqvUvyvp_15rhizo_crypt_rpc7serviceNtB4_19RhizoCryptRpcServerNtB4_13RhizoCryptRpc12append_event
FNDA:1,_RNvXs_NtCs1VabqvUvyvp_15rhizo_crypt_rpc7serviceNtB4_19RhizoCryptRpcServerNtB4_13RhizoCryptRpc12get_children
FNDA:1,_RNvXs_NtCs1VabqvUvyvp_15rhizo_crypt_rpc7serviceNtB4_19RhizoCryptRpcServerNtB4_13RhizoCryptRpc12get_frontier
FNDA:1,_RNvXs_NtCs1VabqvUvyvp_15rhizo_crypt_rpc7serviceNtB4_19RhizoCryptRpcServerNtB4_13RhizoCryptRpc12verify_proof
FNDA:3,_RNvXs_NtCs1VabqvUvyvp_15rhizo_crypt_rpc7serviceNtB4_19RhizoCryptRpcServerNtB4_13RhizoCryptRpc13list_sessions
FNDA:0,_RNvXs_NtCs1VabqvUvyvp_15rhizo_crypt_rpc7serviceNtB4_19RhizoCryptRpcServerNtB4_13RhizoCryptRpc13resolve_slice
FNDA:1,_RNvXs_NtCs1VabqvUvyvp_15rhizo_crypt_rpc7serviceNtB4_19RhizoCryptRpcServerNtB4_13RhizoCryptRpc14checkout_slice
FNDA:9,_RNvXs_NtCs1VabqvUvyvp_15rhizo_crypt_rpc7serviceNtB4_19RhizoCryptRpcServerNtB4_13RhizoCryptRpc14create_session
FNDA:2,_RNvXs_NtCs1VabqvUvyvp_15rhizo_crypt_rpc7serviceNtB4_19RhizoCryptRpcServerNtB4_13RhizoCryptRpc14query_vertices
FNDA:1,_RNvXs_NtCs1VabqvUvyvp_15rhizo_crypt_rpc7serviceNtB4_19RhizoCryptRpcServerNtB4_13RhizoCryptRpc15discard_session
FNDA:1,_RNvXs_NtCs1VabqvUvyvp_15rhizo_crypt_rpc7serviceNtB4_19RhizoCryptRpcServerNtB4_13RhizoCryptRpc15get_merkle_root
FNDA:1,_RNvXs_NtCs1VabqvUvyvp_15rhizo_crypt_rpc7serviceNtB4_19RhizoCryptRpcServerNtB4_13RhizoCryptRpc16get_merkle_proof
FNDA:2,_RNvXs_NtCs1VabqvUvyvp_15rhizo_crypt_rpc7serviceNtB4_19RhizoCryptRpcServerNtB4_13RhizoCryptRpc22get_dehydration_status
FNDA:2,_RNvXs_NtCs1VabqvUvyvp_15rhizo_crypt_rpc7serviceNtB4_19RhizoCryptRpcServerNtB4_13RhizoCryptRpc6health
FNDA:2,_RNvXs_NtCs1VabqvUvyvp_15rhizo_crypt_rpc7serviceNtB4_19RhizoCryptRpcServerNtB4_13RhizoCryptRpc7metrics
FNDA:1,_RNvXs_NtCs1VabqvUvyvp_15rhizo_crypt_rpc7serviceNtB4_19RhizoCryptRpcServerNtB4_13RhizoCryptRpc9dehydrate
FNDA:1,_RNvXs_NtCs1VabqvUvyvp_15rhizo_crypt_rpc7serviceNtB4_19RhizoCryptRpcServerNtB4_13RhizoCryptRpc9get_slice
FNF:68
FNH:48
DA:144,20
DA:254,4
DA:255,4
DA:256,4
DA:257,4
DA:258,4
DA:259,4
DA:260,4
DA:261,4
DA:262,4
DA:263,4
DA:276,10
DA:277,10
DA:278,10
DA:279,10
DA:280,10
DA:281,10
DA:285,9
DA:286,9
DA:287,9
DA:288,9
DA:289,9
DA:290,9
DA:292,9
DA:293,2
DA:294,7
DA:296,9
DA:297,1
DA:298,8
DA:300,9
DA:301,0
DA:302,9
DA:304,9
DA:305,9
DA:306,9
DA:308,2
DA:309,2
DA:310,2
DA:311,2
DA:312,2
DA:313,2
DA:314,2
DA:315,2
DA:316,2
DA:317,2
DA:319,2
DA:320,2
DA:322,3
DA:323,3
DA:324,3
DA:325,3
DA:327,1
DA:328,1
DA:329,1
DA:330,1
DA:331,1
DA:332,1
DA:333,1
DA:335,11
DA:336,11
DA:337,11
DA:338,11
DA:339,11
DA:340,11
DA:342,11
DA:343,0
DA:344,11
DA:346,14
DA:347,3
DA:348,3
DA:350,11
DA:351,0
DA:352,0
DA:354,11
DA:355,11
DA:356,11
DA:357,11
DA:358,11
DA:359,11
DA:361,1
DA:362,1
DA:363,1
DA:364,1
DA:365,1
DA:366,1
DA:367,6
DA:368,5
DA:369,5
DA:370,0
DA:371,5
DA:372,5
DA:373,0
DA:374,0
DA:375,10
DA:376,5
DA:377,5
DA:378,5
DA:379,5
DA:380,5
DA:381,5
DA:382,5
DA:383,5
DA:384,5
DA:386,1
DA:387,1
DA:389,1
DA:390,1
DA:391,1
DA:392,1
DA:393,1
DA:394,1
DA:395,1
DA:396,1
DA:397,1
DA:398,1
DA:399,1
DA:401,1
DA:402,1
DA:403,1
DA:404,1
DA:405,1
DA:406,1
DA:407,1
DA:408,1
DA:409,1
DA:410,1
DA:411,1
DA:412,1
DA:414,1
DA:415,1
DA:416,1
DA:417,1
DA:418,1
DA:419,1
DA:420,1
DA:421,1
DA:422,1
DA:423,1
DA:424,1
DA:425,1
DA:427,2
DA:428,2
DA:429,2
DA:430,2
DA:431,2
DA:432,2
DA:433,2
DA:434,2
DA:435,2
DA:436,2
DA:437,2
DA:438,2
DA:439,2
DA:440,2
DA:442,1
DA:443,1
DA:444,1
DA:445,1
DA:446,1
DA:447,1
DA:448,1
DA:450,1
DA:451,1
DA:452,1
DA:453,1
DA:454,1
DA:456,1
DA:457,1
DA:458,1
DA:459,1
DA:460,1
DA:461,1
DA:462,1
DA:464,1
DA:465,1
DA:466,1
DA:467,1
DA:468,1
DA:469,1
DA:470,1
DA:471,1
DA:472,1
DA:473,1
DA:474,1
DA:476,1
DA:477,1
DA:478,1
DA:479,1
DA:480,1
DA:481,1
DA:489,1
DA:490,1
DA:491,1
DA:492,1
DA:493,0
DA:497,0
DA:498,1
DA:500,1
DA:501,1
DA:502,1
DA:503,1
DA:504,1
DA:508,1
DA:509,1
DA:510,1
DA:511,1
DA:512,1
DA:513,1
DA:514,1
DA:515,1
DA:516,1
DA:517,1
DA:518,1
DA:519,1
DA:520,1
DA:521,1
DA:522,1
DA:523,1
DA:524,1
DA:525,1
DA:527,1
DA:528,1
DA:529,1
DA:530,1
DA:531,1
DA:532,1
DA:533,1
DA:535,1
DA:536,1
DA:537,1
DA:538,1
DA:539,1
DA:540,1
DA:542,0
DA:543,0
DA:544,0
DA:545,0
DA:546,0
DA:547,0
DA:550,0
DA:551,0
DA:552,0
DA:553,0
DA:554,0
DA:556,1
DA:557,1
DA:558,1
DA:559,1
DA:560,1
DA:561,1
DA:562,1
DA:564,2
DA:565,2
DA:566,2
DA:567,2
DA:568,2
DA:569,2
DA:570,2
DA:572,2
DA:575,2
DA:576,2
DA:577,2
DA:579,2
DA:580,2
DA:581,2
DA:582,2
DA:583,2
DA:584,2
DA:585,2
DA:586,2
DA:588,2
DA:589,2
DA:590,2
DA:591,2
DA:592,2
DA:593,2
DA:594,2
DA:595,2
DA:596,2
DA:597,2
DA:598,2
DA:599,2
DA:608,1
DA:609,1
DA:610,1
DA:611,1
DA:612,1
DA:613,1
DA:614,1
DA:615,1
DA:616,1
DA:617,1
DA:618,1
DA:619,1
DA:620,1
DA:621,1
DA:622,1
DA:625,1
DA:626,1
DA:627,1
DA:628,1
DA:629,1
DA:630,1
DA:631,1
DA:632,1
DA:633,1
DA:634,1
DA:635,1
DA:636,1
DA:637,1
DA:638,1
DA:639,1
BRF:0
BRH:0
LF:353
LH:314
end_of_record